 spectrum

 Timestamp is 691a435e (Sun Nov 16 23:34:22 2025)

 Preferred load address is 0000000180000000

 Start         Length     Name                   Class
 0001:00000000 000ab790H .text$mn                CODE
 0001:000ab790 00000060H .text$mn$00             CODE
 0001:000ab7f0 00000d10H .text$mn$21             CODE
 0001:000ac500 00000f1dH .text$x                 CODE
 0002:00000000 00000300H .idata$5                DATA
 0002:00000300 00000038H .00cfg                  DATA
 0002:00000338 00000008H .CRT$XCA                DATA
 0002:00000340 00000008H .CRT$XCZ                DATA
 0002:00000348 00000008H .CRT$XIA                DATA
 0002:00000350 00000018H .CRT$XIC                DATA
 0002:00000368 00000008H .CRT$XIZ                DATA
 0002:00000370 00000008H .CRT$XPA                DATA
 0002:00000378 00000010H .CRT$XPX                DATA
 0002:00000388 00000008H .CRT$XPXA               DATA
 0002:00000390 00000008H .CRT$XPZ                DATA
 0002:00000398 00000008H .CRT$XTA                DATA
 0002:000003a0 00000010H .CRT$XTZ                DATA
 0002:000003a8 00000000H .gehcont$y              DATA
 0002:000003a8 00000000H .gfids$y                DATA
 0002:000003b0 000207b0H .rdata                  DATA
 0002:00020b60 000001a0H .rdata$00               DATA
 0002:00020d00 00000080H .rdata$CastGuardVftablesA DATA
 0002:00020d80 00000080H .rdata$CastGuardVftablesC DATA
 0002:00020e00 00000464H .rdata$r                DATA
 0002:00021264 0000014cH .rdata$voltmd           DATA
 0002:000213b0 000003d0H .rdata$zzzdbg           DATA
 0002:00021780 00000008H .rtc$IAA                DATA
 0002:00021788 00000008H .rtc$IZZ                DATA
 0002:00021790 00000008H .rtc$TAA                DATA
 0002:00021798 00000008H .rtc$TZZ                DATA
 0002:000217a0 00006c90H .xdata                  DATA
 0002:00028430 00000090H .xdata$x                DATA
 0002:000284c0 00000054H .edata                  DATA
 0002:00028514 00000014H .idata$2                DATA
 0002:00028528 00000018H .idata$3                DATA
 0002:00028540 00000300H .idata$4                DATA
 0002:00028840 000006fcH .idata$6                DATA
 0003:00000000 00000b40H .data                   DATA
 0003:00000b40 00000078H .data$r                 DATA
 0003:00000bb8 000000f8H .data$rs                DATA
 0003:00000cb0 000019a8H .bss                    DATA
 0004:00000000 00008178H .pdata                  DATA
 0005:00000000 00000100H .fptable                DATA

  Address         Publics by Value              Rva+Base               Lib:Object

 0000:00000000       __AbsoluteZero             0000000000000000     <absolute>
 0000:00000000       ___safe_se_handler_count   0000000000000000     <absolute>
 0000:00000000       ___safe_se_handler_table   0000000000000000     <absolute>
 0000:00000000       __arm64x_extra_rfe_table   0000000000000000     <absolute>
 0000:00000000       __arm64x_extra_rfe_table_size 0000000000000000     <absolute>
 0000:00000000       __arm64x_native_entrypoint 0000000000000000     <absolute>
 0000:00000000       __arm64x_redirection_metadata 0000000000000000     <absolute>
 0000:00000000       __arm64x_redirection_metadata_count 0000000000000000     <absolute>
 0000:00000000       __dynamic_value_reloc_table 0000000000000000     <absolute>
 0000:00000000       __enclave_config           0000000000000000     <absolute>
 0000:00000000       __guard_check_icall_a64n_fptr 0000000000000000     <absolute>
 0000:00000000       __guard_eh_cont_count      0000000000000000     <absolute>
 0000:00000000       __guard_eh_cont_table      0000000000000000     <absolute>
 0000:00000000       __guard_fids_count         0000000000000000     <absolute>
 0000:00000000       __guard_fids_table         0000000000000000     <absolute>
 0000:00000000       __guard_iat_count          0000000000000000     <absolute>
 0000:00000000       __guard_iat_table          0000000000000000     <absolute>
 0000:00000000       __guard_longjmp_count      0000000000000000     <absolute>
 0000:00000000       __guard_longjmp_table      0000000000000000     <absolute>
 0000:00000000       __hybrid_auxiliary_delayload_iat 0000000000000000     <absolute>
 0000:00000000       __hybrid_auxiliary_delayload_iat_copy 0000000000000000     <absolute>
 0000:00000000       __hybrid_auxiliary_iat     0000000000000000     <absolute>
 0000:00000000       __hybrid_auxiliary_iat_copy 0000000000000000     <absolute>
 0000:00000000       __hybrid_code_map          0000000000000000     <absolute>
 0000:00000000       __hybrid_code_map_count    0000000000000000     <absolute>
 0000:00000000       __hybrid_image_info_bitfield 0000000000000000     <absolute>
 0000:00000000       __x64_code_ranges_to_entry_points 0000000000000000     <absolute>
 0000:00000000       __x64_code_ranges_to_entry_points_count 0000000000000000     <absolute>
 0000:00000100       __guard_flags              0000000000000100     <absolute>
 0000:00000000       __ImageBase                0000000180000000     <linker-defined>
 0001:00000000       update_and_render          0000000180001000 f   spectrum.obj
 0001:00000420       _CRT_INIT                  0000000180001420 f   LIBCMTD:dll_dllmain.obj
 0001:00000450       _DllMainCRTStartup         0000000180001450 f   LIBCMTD:dll_dllmain.obj
 0001:00000550       __security_init_cookie     0000000180001550 f   LIBCMTD:gs_support.obj
 0001:000005d0       DllMain                    00000001800015d0 f   LIBCMTD:dll_dllmain_stub.obj
 0001:000005f0       ?__scrt_initialize_type_info@@YAXXZ 00000001800015f0 f   LIBCMTD:tncleanup.obj
 0001:00000610       ?__scrt_uninitialize_type_info@@YAXXZ 0000000180001610 f   LIBCMTD:tncleanup.obj
 0001:00000630       __local_stdio_printf_options 0000000180001630 f i LIBCMTD:default_local_stdio_options.obj
 0001:00000640       __local_stdio_scanf_options 0000000180001640 f i LIBCMTD:default_local_stdio_options.obj
 0001:00000650       __scrt_initialize_default_local_stdio_options 0000000180001650 f   LIBCMTD:default_local_stdio_options.obj
 0001:000006a0       ?configure_argv@__scrt_narrow_argv_policy@@SAHXZ 00000001800016a0 f i LIBCMTD:utility.obj
 0001:00000790       ?initialize_environment@__scrt_narrow_environment_policy@@SAHXZ 0000000180001790 f i LIBCMTD:utility.obj
 0001:00000830       NtCurrentTeb               0000000180001830 f i LIBCMTD:utility.obj
 0001:00000840       __scrt_acquire_startup_lock 0000000180001840 f   LIBCMTD:utility.obj
 0001:000008b0       __scrt_dllmain_after_initialize_c 00000001800018b0 f   LIBCMTD:utility.obj
 0001:000008e0       __scrt_dllmain_before_initialize_c 00000001800018e0 f   LIBCMTD:utility.obj
 0001:00000900       __scrt_dllmain_crt_thread_attach 0000000180001900 f   LIBCMTD:utility.obj
 0001:00000930       __scrt_dllmain_crt_thread_detach 0000000180001930 f   LIBCMTD:utility.obj
 0001:00000950       __scrt_dllmain_exception_filter 0000000180001950 f   LIBCMTD:utility.obj
 0001:000009c0       __scrt_dllmain_uninitialize_c 00000001800019c0 f   LIBCMTD:utility.obj
 0001:000009f0       __scrt_dllmain_uninitialize_critical 00000001800019f0 f   LIBCMTD:utility.obj
 0001:00000a10       __scrt_initialize_crt      0000000180001a10 f   LIBCMTD:utility.obj
 0001:00000a60       __scrt_initialize_onexit_tables 0000000180001a60 f   LIBCMTD:utility.obj
 0001:00000b70       __scrt_is_nonwritable_in_current_image 0000000180001b70 f   LIBCMTD:utility.obj
 0001:00000c00       __scrt_release_startup_lock 0000000180001c00 f   LIBCMTD:utility.obj
 0001:00000c30       __scrt_uninitialize_crt    0000000180001c30 f   LIBCMTD:utility.obj
 0001:00000c70       _onexit                    0000000180001c70 f   LIBCMTD:utility.obj
 0001:00000cf0       at_quick_exit              0000000180001cf0 f   LIBCMTD:utility.obj
 0001:00000d40       atexit                     0000000180001d40 f   LIBCMTD:utility.obj
 0001:00000d80       __scrt_get_dyn_tls_init_callback 0000000180001d80 f   LIBCMTD:dyn_tls_init.obj
 0001:00000d90       __crt_debugger_hook        0000000180001d90 f   LIBCMTD:utility_desktop.obj
 0001:00000da0       __scrt_fastfail            0000000180001da0 f   LIBCMTD:utility_desktop.obj
 0001:00000f40       __scrt_get_show_window_mode 0000000180001f40 f   LIBCMTD:utility_desktop.obj
 0001:00000fa0       __scrt_initialize_mta      0000000180001fa0 f   LIBCMTD:utility_desktop.obj
 0001:00000fb0       __scrt_initialize_winrt    0000000180001fb0 f   LIBCMTD:utility_desktop.obj
 0001:00000fc0       __scrt_is_managed_app      0000000180001fc0 f   LIBCMTD:utility_desktop.obj
 0001:00001070       __scrt_set_unhandled_exception_filter 0000000180002070 f   LIBCMTD:utility_desktop.obj
 0001:00001090       __scrt_exe_initialize_mta  0000000180002090 f   LIBCMTD:utility_desktop.obj
 0001:00001090       __scrt_stub_for_initialize_mta 0000000180002090 f   LIBCMTD:utility_desktop.obj
 0001:000010a0       __scrt_unhandled_exception_filter 00000001800020a0 f   LIBCMTD:utility_desktop.obj
 0001:00001140       _RTC_Initialize            0000000180002140 f   LIBCMTD:initsect.obj
 0001:00001190       _RTC_Terminate             0000000180002190 f   LIBCMTD:initsect.obj
 0001:000011e0       _guard_check_icall_nop     00000001800021e0 f i LIBCMTD:guard_support.obj
 0001:000011f0       ReadNoFence64              00000001800021f0 f i LIBCMTD:guard_support.obj
 0001:00001210       ReadPointerNoFence         0000000180002210 f i LIBCMTD:guard_support.obj
 0001:00001230       __castguard_check_failure_debugbreak 0000000180002230 f i LIBCMTD:guard_support.obj
 0001:00001250       __castguard_check_failure_fastfail 0000000180002250 f i LIBCMTD:guard_support.obj
 0001:00001280       __castguard_check_failure_nop 0000000180002280 f i LIBCMTD:guard_support.obj
 0001:00001290       __castguard_check_failure_os_handled 0000000180002290 f i LIBCMTD:guard_support.obj
 0001:00001300       __castguard_check_failure_user_handled 0000000180002300 f i LIBCMTD:guard_support.obj
 0001:000013f0       __castguard_set_user_handler 00000001800023f0 f i LIBCMTD:guard_support.obj
 0001:00001420       __castguard_slow_path_check_debugbreak 0000000180002420 f i LIBCMTD:guard_support.obj
 0001:00001460       __castguard_slow_path_check_fastfail 0000000180002460 f i LIBCMTD:guard_support.obj
 0001:000014b0       __castguard_slow_path_check_nop 00000001800024b0 f i LIBCMTD:guard_support.obj
 0001:000014c0       __castguard_slow_path_check_os_handled 00000001800024c0 f i LIBCMTD:guard_support.obj
 0001:00001510       __castguard_slow_path_check_user_handled 0000000180002510 f i LIBCMTD:guard_support.obj
 0001:000015d0       _guard_icall_checks_enforced 00000001800025d0 f i LIBCMTD:guard_support.obj
 0001:00001610       _guard_rf_checks_enforced  0000000180002610 f i LIBCMTD:guard_support.obj
 0001:00001620       __isa_available_init       0000000180002620 f   LIBCMTD:cpu_disp.obj
 0001:00001b10       _get_startup_argv_mode     0000000180002b10 f   LIBCMTD:argv_mode.obj
 0001:00001b20       __scrt_is_ucrt_dll_in_use  0000000180002b20 f   LIBCMTD:ucrt_detection.obj
 0001:00001b50       __GSHandlerCheck           0000000180002b50 f   LIBCMTD:gshandler.obj
 0001:00001b90       __GSHandlerCheckCommon     0000000180002b90 f   LIBCMTD:gshandler.obj
 0001:00001ca0       __security_check_cookie    0000000180002ca0 f   LIBCMTD:amdsecgs.obj
 0001:00001cc0       __raise_securityfailure    0000000180002cc0 f   LIBCMTD:gs_report.obj
 0001:00001d00       __report_gsfailure         0000000180002d00 f   LIBCMTD:gs_report.obj
 0001:00001de0       __report_rangecheckfailure 0000000180002de0 f   LIBCMTD:gs_report.obj
 0001:00001e00       __report_securityfailure   0000000180002e00 f   LIBCMTD:gs_report.obj
 0001:00001ea0       __report_securityfailureEx 0000000180002ea0 f   LIBCMTD:gs_report.obj
 0001:00002103       QueryPerformanceCounter    0000000180003103 f   kernel32:KERNEL32.dll
 0001:00002109       GetCurrentProcessId        0000000180003109 f   kernel32:KERNEL32.dll
 0001:0000210f       GetCurrentThreadId         000000018000310f f   kernel32:KERNEL32.dll
 0001:00002115       GetSystemTimeAsFileTime    0000000180003115 f   kernel32:KERNEL32.dll
 0001:0000211b       InitializeSListHead        000000018000311b f   kernel32:KERNEL32.dll
 0001:00002121       RtlCaptureContext          0000000180003121 f   kernel32:KERNEL32.dll
 0001:00002127       RtlLookupFunctionEntry     0000000180003127 f   kernel32:KERNEL32.dll
 0001:0000212d       RtlVirtualUnwind           000000018000312d f   kernel32:KERNEL32.dll
 0001:00002133       IsDebuggerPresent          0000000180003133 f   kernel32:KERNEL32.dll
 0001:00002139       UnhandledExceptionFilter   0000000180003139 f   kernel32:KERNEL32.dll
 0001:0000213f       SetUnhandledExceptionFilter 000000018000313f f   kernel32:KERNEL32.dll
 0001:00002145       GetStartupInfoW            0000000180003145 f   kernel32:KERNEL32.dll
 0001:0000214b       IsProcessorFeaturePresent  000000018000314b f   kernel32:KERNEL32.dll
 0001:00002151       GetModuleHandleW           0000000180003151 f   kernel32:KERNEL32.dll
 0001:00002157       GetCurrentProcess          0000000180003157 f   kernel32:KERNEL32.dll
 0001:0000215d       TerminateProcess           000000018000315d f   kernel32:KERNEL32.dll
 0001:00002170       __C_specific_handler       0000000180003170 f   libvcruntimed:riscchandler.obj
 0001:00002620       ??$?RD@__crt_internal_free_policy@@QEBAXQEBD@Z 0000000180003620 f i libvcruntimed:std_type_info.obj
 0001:00002650       ??$?RX@__crt_internal_free_policy@@QEBAXQEBX@Z 0000000180003650 f i libvcruntimed:std_type_info.obj
 0001:00002680       ??$__crt_interlocked_compare_exchange_pointer@$$CBDPEAD$$T@@YAPEBDPEDSEBDQEAD$$T@Z 0000000180003680 f i libvcruntimed:std_type_info.obj
 0001:000026c0       ??$__crt_interlocked_read_pointer@$$CBD@@YAPEBDPEDSEBD@Z 00000001800036c0 f i libvcruntimed:std_type_info.obj
 0001:000026e0       ??0?$__crt_unique_heap_ptr@DU__crt_internal_free_policy@@@@QEAA@QEAD@Z 00000001800036e0 f i libvcruntimed:std_type_info.obj
 0001:00002700       ??0?$__crt_unique_heap_ptr@XU__crt_internal_free_policy@@@@QEAA@QEAX@Z 0000000180003700 f i libvcruntimed:std_type_info.obj
 0001:00002720       ??1?$__crt_unique_heap_ptr@DU__crt_internal_free_policy@@@@QEAA@XZ 0000000180003720 f i libvcruntimed:std_type_info.obj
 0001:00002740       ??1?$__crt_unique_heap_ptr@XU__crt_internal_free_policy@@@@QEAA@XZ 0000000180003740 f i libvcruntimed:std_type_info.obj
 0001:00002760       ??B?$__crt_unique_heap_ptr@DU__crt_internal_free_policy@@@@QEBA_NXZ 0000000180003760 f i libvcruntimed:std_type_info.obj
 0001:00002780       ??B?$__crt_unique_heap_ptr@XU__crt_internal_free_policy@@@@QEBA_NXZ 0000000180003780 f i libvcruntimed:std_type_info.obj
 0001:00002800       ?__crt_interlocked_read_64@@YA_JPED_J@Z 0000000180003800 f i libvcruntimed:std_type_info.obj
 0001:00002820       ?detach@?$__crt_unique_heap_ptr@XU__crt_internal_free_policy@@@@QEAAPEAXXZ 0000000180003820 f i libvcruntimed:std_type_info.obj
 0001:00002850       ?get@?$__crt_unique_heap_ptr@DU__crt_internal_free_policy@@@@QEBAPEADXZ 0000000180003850 f i libvcruntimed:std_type_info.obj
 0001:00002860       ?get@?$__crt_unique_heap_ptr@XU__crt_internal_free_policy@@@@QEBAPEAXXZ 0000000180003860 f i libvcruntimed:std_type_info.obj
 0001:00002870       ?is_valid@?$__crt_unique_heap_ptr@DU__crt_internal_free_policy@@@@QEBA_NXZ 0000000180003870 f i libvcruntimed:std_type_info.obj
 0001:000028a0       ?is_valid@?$__crt_unique_heap_ptr@XU__crt_internal_free_policy@@@@QEBA_NXZ 00000001800038a0 f i libvcruntimed:std_type_info.obj
 0001:000028d0       ?release@?$__crt_unique_heap_ptr@DU__crt_internal_free_policy@@@@QEAAXXZ 00000001800038d0 f i libvcruntimed:std_type_info.obj
 0001:00002900       ?release@?$__crt_unique_heap_ptr@XU__crt_internal_free_policy@@@@QEAAXXZ 0000000180003900 f i libvcruntimed:std_type_info.obj
 0001:00002930       __std_type_info_compare    0000000180003930 f   libvcruntimed:std_type_info.obj
 0001:00002970       __std_type_info_destroy_list 0000000180003970 f   libvcruntimed:std_type_info.obj
 0001:000029d0       __std_type_info_hash       00000001800039d0 f   libvcruntimed:std_type_info.obj
 0001:00002a80       __std_type_info_name       0000000180003a80 f   libvcruntimed:std_type_info.obj
 0001:00002d10       __vcrt_initialize          0000000180003d10 f   libvcruntimed:initialization.obj
 0001:00002d50       __vcrt_thread_attach       0000000180003d50 f   libvcruntimed:initialization.obj
 0001:00002d70       __vcrt_thread_detach       0000000180003d70 f   libvcruntimed:initialization.obj
 0001:00002d80       __vcrt_uninitialize        0000000180003d80 f   libvcruntimed:initialization.obj
 0001:00002da0       __vcrt_uninitialize_critical 0000000180003da0 f   libvcruntimed:initialization.obj
 0001:00002dc0       __DestructExceptionObject  0000000180003dc0 f   libvcruntimed:ehhelpers.obj
 0001:00002ec0       ?_CallMemberFunction0@@YAXQEAX0@Z 0000000180003ec0 f i libvcruntimed:ehhelpers.obj
 0001:00002fa0       ?raw_name@type_info@@QEBAPEBDXZ 0000000180003fa0 f i libvcruntimed:ehhelpers.obj
 0001:00002fb0       _IsExceptionObjectToBeDestroyed 0000000180003fb0 f   libvcruntimed:ehhelpers.obj
 0001:00003000       _SetWinRTOutOfMemoryExceptionCallback 0000000180004000 f   libvcruntimed:ehhelpers.obj
 0001:00003020       __AdjustPointer            0000000180004020 f   libvcruntimed:ehhelpers.obj
 0001:000030a0       __FrameUnwindFilter        00000001800040a0 f   libvcruntimed:ehhelpers.obj
 0001:00003150       __GetPlatformExceptionInfo 0000000180004150 f   libvcruntimed:ehhelpers.obj
 0001:00003200       __current_exception        0000000180004200 f   libvcruntimed:ehhelpers.obj
 0001:00003220       __current_exception_context 0000000180004220 f   libvcruntimed:ehhelpers.obj
 0001:00003240       __processing_throw         0000000180004240 f   libvcruntimed:ehhelpers.obj
 0001:00003260       __std_terminate            0000000180004260 f   libvcruntimed:ehhelpers.obj
 0001:00003270       _is_exception_typeof       0000000180004270 f   libvcruntimed:ehhelpers.obj
 0001:000033f0       _NLG_Notify                00000001800043f0 f   libvcruntimed:notify.obj
 0001:00003410       __NLG_Dispatch2            0000000180004410 f   libvcruntimed:notify.obj
 0001:00003420       __NLG_Return2              0000000180004420 f   libvcruntimed:notify.obj
 0001:00003440       __except_validate_context_record 0000000180004440 f   libvcruntimed:jbcxrval.obj
 0001:000034a0       __except_validate_jump_buffer 00000001800044a0 f   libvcruntimed:jbcxrval.obj
 0001:000034c0       __except_validate_jump_buffer_common 00000001800044c0 f i libvcruntimed:jbcxrval.obj
 0001:00003540       ??$?0$00@DName@@QEAA@PEAVUnDecorator@@PEBDU?$StringLifeSelector@$00@@@Z 0000000180004540 f i libvcruntimed:undname.obj
 0001:000035c0       ??$?0$00@pcharNode@@QEAA@PEBDHU?$StringLifeSelector@$00@@AEAV_HeapManager@@@Z 00000001800045c0 f i libvcruntimed:undname.obj
 0001:00003620       ??$?0$01@DName@@QEAA@PEAVUnDecorator@@PEBDU?$StringLifeSelector@$01@@@Z 0000000180004620 f i libvcruntimed:undname.obj
 0001:000036a0       ??$?0$01@pcharNode@@QEAA@PEBDHU?$StringLifeSelector@$01@@AEAV_HeapManager@@@Z 00000001800046a0 f i libvcruntimed:undname.obj
 0001:00003750       ??$?0$0A@@DName@@QEAA@PEAVUnDecorator@@PEBDU?$StringLifeSelector@$0A@@@@Z 0000000180004750 f i libvcruntimed:undname.obj
 0001:000037d0       ??$?0$0A@@pcharNode@@QEAA@PEBDHU?$StringLifeSelector@$0A@@@AEAV_HeapManager@@@Z 00000001800047d0 f i libvcruntimed:undname.obj
 0001:00003880       ??$?0_K$0A@@?$optional@_K@std@@QEAA@$$QEA_K@Z 0000000180004880 f i libvcruntimed:undname.obj
 0001:000038b0       ??$?0_K@?$_Optional_construct_base@_K@std@@QEAA@Uin_place_t@1@$$QEA_K@Z 00000001800048b0 f i libvcruntimed:undname.obj
 0001:000038f0       ??$?0_K@?$_Optional_destruct_base@_K$00@std@@QEAA@Uin_place_t@1@$$QEA_K@Z 00000001800048f0 f i libvcruntimed:undname.obj
 0001:00003920       ??$append@VDNameNode@@@DName@@AEAAXPEBVDNameNode@@@Z 0000000180004920 f i libvcruntimed:undname.obj
 0001:000039e0       ??$append@VDNameStatusNode@@@DName@@AEAAXPEBVDNameStatusNode@@@Z 00000001800049e0 f i libvcruntimed:undname.obj
 0001:00003aa0       ??$append@VcharNode@@@DName@@AEAAXPEBVcharNode@@@Z 0000000180004aa0 f i libvcruntimed:undname.obj
 0001:00003b60       ??$append@VpDNameNode@@@DName@@AEAAXPEBVpDNameNode@@@Z 0000000180004b60 f i libvcruntimed:undname.obj
 0001:00003c20       ??$append@VpcharNode@@@DName@@AEAAXPEBVpcharNode@@@Z 0000000180004c20 f i libvcruntimed:undname.obj
 0001:00003ce0       ??$doPchar@$00@DName@@AEAAXPEBDH@Z 0000000180004ce0 f i libvcruntimed:undname.obj
 0001:00003e90       ??$doPchar@$01@DName@@AEAAXPEBDH@Z 0000000180004e90 f i libvcruntimed:undname.obj
 0001:00004040       ??$doPchar@$0A@@DName@@AEAAXPEBDH@Z 0000000180005040 f i libvcruntimed:undname.obj
 0001:00004390       ??0?$_Optional_construct_base@_K@std@@QEAA@XZ 0000000180005390 f i libvcruntimed:undname.obj
 0001:000043b0       ??0?$_Optional_destruct_base@_K$00@std@@QEAA@XZ 00000001800053b0 f i libvcruntimed:undname.obj
 0001:000043e0       ??0?$optional@_K@std@@QEAA@XZ 00000001800053e0 f i libvcruntimed:undname.obj
 0001:00004400       ??0Block@_HeapManager@@QEAA@XZ 0000000180005400 f i libvcruntimed:undname.obj
 0001:00004420       ??0DName@@QEAA@AEBV0@@Z    0000000180005420 f i libvcruntimed:undname.obj
 0001:00004470       ??0DName@@QEAA@PEAVUnDecorator@@@Z 0000000180005470 f i libvcruntimed:undname.obj
 0001:000044b0       ??0DName@@QEAA@PEAVUnDecorator@@AEAPEBDD@Z 00000001800054b0 f   libvcruntimed:undname.obj
 0001:000046a0       ??0DName@@QEAA@PEAVUnDecorator@@AEBUStringLiteral@@@Z 00000001800056a0 f   libvcruntimed:undname.obj
 0001:00004710       ??0DName@@QEAA@PEAVUnDecorator@@D@Z 0000000180005710 f   libvcruntimed:undname.obj
 0001:00004770       ??0DName@@QEAA@PEAVUnDecorator@@PEAV0@@Z 0000000180005770 f   libvcruntimed:undname.obj
 0001:00004870       ??0DName@@QEAA@PEAVUnDecorator@@W4DNameStatus@@@Z 0000000180005870 f   libvcruntimed:undname.obj
 0001:00004940       ??0DName@@QEAA@PEAVUnDecorator@@_J@Z 0000000180005940 f   libvcruntimed:undname.obj
 0001:00004a60       ??0DName@@QEAA@PEAVUnDecorator@@_K@Z 0000000180005a60 f   libvcruntimed:undname.obj
 0001:00004b50       ??0DNameNode@@IEAA@XZ      0000000180005b50 f i libvcruntimed:undname.obj
 0001:00004b70       ??0Replicator@@QEAA@PEAVUnDecorator@@@Z 0000000180005b70 f i libvcruntimed:undname.obj
 0001:00004bf0       ??0UnDecorator@@QEAA@PEBDP6APEADJ@ZKP6APEAX_K@ZP6AXPEAX@Z@Z 0000000180005bf0 f i libvcruntimed:undname.obj
 0001:00004d90       ??0_HeapManager@@QEAA@P6APEAX_K@ZP6AXPEAX@Z@Z 0000000180005d90 f i libvcruntimed:undname.obj
 0001:00004df0       ??0_Nontrivial_dummy_type@std@@QEAA@XZ 0000000180005df0 f i libvcruntimed:undname.obj
 0001:00004e00       ??0charNode@@QEAA@D@Z      0000000180005e00 f i libvcruntimed:undname.obj
 0001:00004e40       ??0pDNameNode@@QEAA@PEAVDName@@@Z 0000000180005e40 f   libvcruntimed:undname.obj
 0001:00004ec0       ??0pairNode@@QEAA@PEBVDNameNode@@0@Z 0000000180005ec0 f i libvcruntimed:undname.obj
 0001:00004f40       ??2@YAPEAX_KAEAV_HeapManager@@H@Z 0000000180005f40 f   libvcruntimed:undname.obj
 0001:00004fa0       ??4DName@@QEAAAEAV0@AEBUStringLiteral@@@Z 0000000180005fa0 f   libvcruntimed:undname.obj
 0001:00004ff0       ??4DName@@QEAAAEAV0@AEBV0@@Z 0000000180005ff0 f   libvcruntimed:undname.obj
 0001:00005020       ??4DName@@QEAAAEAV0@D@Z    0000000180006020 f i libvcruntimed:undname.obj
 0001:00005060       ??4DName@@QEAAAEAV0@PEAV0@@Z 0000000180006060 f   libvcruntimed:undname.obj
 0001:00005130       ??4DName@@QEAAAEAV0@W4DNameStatus@@@Z 0000000180006130 f   libvcruntimed:undname.obj
 0001:000051c0       ??AReplicator@@QEBA?AVDName@@H@Z 00000001800061c0 f   libvcruntimed:undname.obj
 0001:00005260       ??B?$optional@_K@std@@QEBA_NXZ 0000000180006260 f i libvcruntimed:undname.obj
 0001:00005270       ??D?$_Optional_construct_base@_K@std@@QEGAAAEA_KXZ 0000000180006270 f i libvcruntimed:undname.obj
 0001:000052f0       ??H@YA?AVDName@@AEBUStringLiteral@@AEBV0@@Z 00000001800062f0 f i libvcruntimed:undname.obj
 0001:00005340       ??H@YA?AVDName@@DAEBV0@@Z  0000000180006340 f i libvcruntimed:undname.obj
 0001:00005390       ??H@YA?AVDName@@W4DNameStatus@@AEBV0@@Z 0000000180006390 f i libvcruntimed:undname.obj
 0001:000053e0       ??HDName@@QEBA?AV0@AEBUStringLiteral@@@Z 00000001800063e0 f   libvcruntimed:undname.obj
 0001:00005420       ??HDName@@QEBA?AV0@AEBV0@@Z 0000000180006420 f   libvcruntimed:undname.obj
 0001:00005460       ??HDName@@QEBA?AV0@D@Z     0000000180006460 f   libvcruntimed:undname.obj
 0001:000054a0       ??HDName@@QEBA?AV0@PEAV0@@Z 00000001800064a0 f   libvcruntimed:undname.obj
 0001:000054e0       ??HDName@@QEBA?AV0@W4DNameStatus@@@Z 00000001800064e0 f   libvcruntimed:undname.obj
 0001:00005520       ??HStringLiteral@@QEBA?AU0@H@Z 0000000180006520 f i libvcruntimed:undname.obj
 0001:00005560       ??YDName@@QEAAAEAV0@AEBUStringLiteral@@@Z 0000000180006560 f   libvcruntimed:undname.obj
 0001:00005680       ??YDName@@QEAAAEAV0@AEBV0@@Z 0000000180006680 f   libvcruntimed:undname.obj
 0001:00005740       ??YDName@@QEAAAEAV0@D@Z    0000000180006740 f   libvcruntimed:undname.obj
 0001:000057f0       ??YDName@@QEAAAEAV0@PEAV0@@Z 00000001800067f0 f   libvcruntimed:undname.obj
 0001:000058e0       ??YDName@@QEAAAEAV0@W4DNameStatus@@@Z 00000001800068e0 f   libvcruntimed:undname.obj
 0001:00005960       ??YReplicator@@QEAAAEAV0@AEBVDName@@@Z 0000000180006960 f   libvcruntimed:undname.obj
 0001:00005a30       ??_5DName@@QEAAAEAV0@AEBV0@@Z 0000000180006a30 f   libvcruntimed:undname.obj
 0001:00005ab0       ??__K_l@@YA?AUStringLiteral@@PEBD_K@Z 0000000180006ab0 f i libvcruntimed:undname.obj
 0001:00005ae0       ?Destructor@UnDecorator@@QEAAXXZ 0000000180006ae0 f i libvcruntimed:undname.obj
 0001:00005b10       ?Destructor@_HeapManager@@QEAAXXZ 0000000180006b10 f i libvcruntimed:undname.obj
 0001:00005bb0       ?UScore@UnDecorator@@QEAA?AUStringLiteral@@W4Tokens@@@Z 0000000180006bb0 f   libvcruntimed:undname.obj
 0001:00005c40       ?composeDeclaration@UnDecorator@@AEAA?AVDName@@AEBV2@@Z 0000000180006c40 f i libvcruntimed:undname.obj
 0001:000083c0       ?doAccessSpecifiers@UnDecorator@@QEAAHXZ 00000001800093c0 f i libvcruntimed:undname.obj
 0001:00008400       ?doAllocationLanguage@UnDecorator@@QEAAHXZ 0000000180009400 f i libvcruntimed:undname.obj
 0001:00008440       ?doAllocationModel@UnDecorator@@QEAAHXZ 0000000180009440 f i libvcruntimed:undname.obj
 0001:00008480       ?doEcsu@UnDecorator@@QEAAHXZ 0000000180009480 f i libvcruntimed:undname.obj
 0001:000084c0       ?doEllipsis@UnDecorator@@QEAAHXZ 00000001800094c0 f i libvcruntimed:undname.obj
 0001:00008500       ?doFunctionReturns@UnDecorator@@QEAAHXZ 0000000180009500 f i libvcruntimed:undname.obj
 0001:00008540       ?doMSKeywords@UnDecorator@@QEAAHXZ 0000000180009540 f i libvcruntimed:undname.obj
 0001:00008580       ?doMemberTypes@UnDecorator@@QEAAHXZ 0000000180009580 f i libvcruntimed:undname.obj
 0001:000085c0       ?doNameOnly@UnDecorator@@QEAAHXZ 00000001800095c0 f i libvcruntimed:undname.obj
 0001:000085e0       ?doNoIdentCharCheck@UnDecorator@@QEAAHXZ 00000001800095e0 f i libvcruntimed:undname.obj
 0001:00008600       ?doPchar@DName@@AEAAXD@Z   0000000180009600 f   libvcruntimed:undname.obj
 0001:000086a0       ?doPtr64@UnDecorator@@QEAAHXZ 00000001800096a0 f i libvcruntimed:undname.obj
 0001:000086e0       ?doRestrictionSpec@UnDecorator@@QEAAHXZ 00000001800096e0 f i libvcruntimed:undname.obj
 0001:00008720       ?doThisTypes@UnDecorator@@QEAAHXZ 0000000180009720 f i libvcruntimed:undname.obj
 0001:00008760       ?doThrowTypes@UnDecorator@@QEAAHXZ 0000000180009760 f i libvcruntimed:undname.obj
 0001:000087a0       ?doTypeOnly@UnDecorator@@QEAAHXZ 00000001800097a0 f i libvcruntimed:undname.obj
 0001:000087c0       ?doUnderScore@UnDecorator@@QEAAHXZ 00000001800097c0 f i libvcruntimed:undname.obj
 0001:00008800       ?getAddressOf@UnDecorator@@AEAA?AVDName@@XZ 0000000180009800 f   libvcruntimed:undname.obj
 0001:000088c0       ?getArgumentList@UnDecorator@@AEAA?AVDName@@XZ 00000001800098c0 f   libvcruntimed:undname.obj
 0001:00008ae0       ?getArgumentTypes@UnDecorator@@AEAA?AVDName@@XZ 0000000180009ae0 f   libvcruntimed:undname.obj
 0001:00008e00       ?getArrayAccess@UnDecorator@@AEAA?AVDName@@XZ 0000000180009e00 f   libvcruntimed:undname.obj
 0001:00008ee0       ?getArrayObject@UnDecorator@@AEAA?AVDName@@XZ 0000000180009ee0 f   libvcruntimed:undname.obj
 0001:00009090       ?getArrayType@UnDecorator@@AEAA?AVDName@@AEBV2@@Z 000000018000a090 f i libvcruntimed:undname.obj
 0001:000094c0       ?getBasedType@UnDecorator@@AEAA?AVDName@@XZ 000000018000a4c0 f   libvcruntimed:undname.obj
 0001:00009630       ?getBasicDataType@UnDecorator@@AEAA?AVDName@@AEBV2@@Z 000000018000a630 f   libvcruntimed:undname.obj
 0001:0000a580       ?getCHPEName@UnDecorator@@QEAAPEADPEADH@Z 000000018000b580 f i libvcruntimed:undname.obj
 0001:0000a7d0       ?getCallIndex@UnDecorator@@AEAA?AVDName@@XZ 000000018000b7d0 f i libvcruntimed:undname.obj
 0001:0000a800       ?getCallingConvention@UnDecorator@@AEAA?AVDName@@XZ 000000018000b800 f   libvcruntimed:undname.obj
 0001:0000ab50       ?getDataIndirectType@UnDecorator@@AEAA?AVDName@@AEBV2@W4IndirectionKind@@0H@Z 000000018000bb50 f   libvcruntimed:undname.obj
 0001:0000b930       ?getDataIndirectType@UnDecorator@@AEAA?AVDName@@XZ 000000018000c930 f i libvcruntimed:undname.obj
 0001:0000b9b0       ?getDataType@UnDecorator@@AEAA?AVDName@@PEAV2@@Z 000000018000c9b0 f   libvcruntimed:undname.obj
 0001:0000bbb0       ?getDecoratedName@UnDecorator@@AEAA?AVDName@@XZ 000000018000cbb0 f   libvcruntimed:undname.obj
 0001:0000c1c0       ?getDimension@UnDecorator@@AEAA?AVDName@@_N@Z 000000018000d1c0 f   libvcruntimed:undname.obj
 0001:0000c510       ?getDispatchTarget@UnDecorator@@AEAA?AVDName@@XZ 000000018000d510 f   libvcruntimed:undname.obj
 0001:0000c5f0       ?getDisplacement@UnDecorator@@AEAA?AVDName@@XZ 000000018000d5f0 f i libvcruntimed:undname.obj
 0001:0000c620       ?getECSUDataType@UnDecorator@@AEAA?AVDName@@XZ 000000018000d620 f   libvcruntimed:undname.obj
 0001:0000cae0       ?getECSUName@UnDecorator@@AEAA?AVDName@@XZ 000000018000dae0 f i libvcruntimed:undname.obj
 0001:0000cb10       ?getEnumType@UnDecorator@@AEAA?AVDName@@XZ 000000018000db10 f i libvcruntimed:undname.obj
 0001:0000cdd0       ?getExtendedDataIndirectType@UnDecorator@@AEAA?AVDName@@AEAW4IndirectionKind@@AEA_NH@Z 000000018000ddd0 f   libvcruntimed:undname.obj
 0001:0000d1f0       ?getExternalDataType@UnDecorator@@AEAA?AVDName@@AEBV2@@Z 000000018000e1f0 f i libvcruntimed:undname.obj
 0001:0000d2e0       ?getFloatingPoint@UnDecorator@@AEAA?AVDName@@H@Z 000000018000e2e0 f   libvcruntimed:undname.obj
 0001:0000d470       ?getFunctionIndirectType@UnDecorator@@AEAA?AVDName@@AEBV2@@Z 000000018000e470 f   libvcruntimed:undname.obj
 0001:0000dbe0       ?getGuardNumber@UnDecorator@@AEAA?AVDName@@XZ 000000018000ebe0 f i libvcruntimed:undname.obj
 0001:0000dc10       ?getHeap@UnDecorator@@QEAAAEAV_HeapManager@@XZ 000000018000ec10 f i libvcruntimed:undname.obj
 0001:0000dc30       ?getLastChar@DName@@QEBADXZ 000000018000ec30 f i libvcruntimed:undname.obj
 0001:0000dc80       ?getLastChar@DNameStatusNode@@UEBADXZ 000000018000ec80 f i libvcruntimed:undname.obj
 0001:0000dcc0       ?getLastChar@charNode@@UEBADXZ 000000018000ecc0 f i libvcruntimed:undname.obj
 0001:0000dcd0       ?getLastChar@pDNameNode@@UEBADXZ 000000018000ecd0 f i libvcruntimed:undname.obj
 0001:0000dd10       ?getLastChar@pairNode@@UEBADXZ 000000018000ed10 f i libvcruntimed:undname.obj
 0001:0000dd90       ?getLastChar@pcharNode@@UEBADXZ 000000018000ed90 f i libvcruntimed:undname.obj
 0001:0000ddd0       ?getLexicalFrame@UnDecorator@@AEAA?AVDName@@XZ 000000018000edd0 f i libvcruntimed:undname.obj
 0001:0000de30       ?getMemberAccess@UnDecorator@@AEAA?AVDName@@XZ 000000018000ee30 f   libvcruntimed:undname.obj
 0001:0000df10       ?getMemoryWithBuffer@_HeapManager@@QEAAPEAX_K@Z 000000018000ef10 f   libvcruntimed:undname.obj
 0001:0000e050       ?getMemoryWithoutBuffer@_HeapManager@@QEAAPEAX_K@Z 000000018000f050 f   libvcruntimed:undname.obj
 0001:0000e0a0       ?getNoexcept@UnDecorator@@AEAA?AVDName@@XZ 000000018000f0a0 f   libvcruntimed:undname.obj
 0001:0000e150       ?getNumberOfDimensions@UnDecorator@@AEAAHXZ 000000018000f150 f   libvcruntimed:undname.obj
 0001:0000e260       ?getOperatorName@UnDecorator@@AEAA?AVDName@@_NPEA_N@Z 000000018000f260 f i libvcruntimed:undname.obj
 0001:0000f390       ?getPointerToMember@UnDecorator@@AEAA?AVDName@@XZ 0000000180010390 f   libvcruntimed:undname.obj
 0001:0000f520       ?getPointerType@UnDecorator@@AEAA?AVDName@@AEBV2@0@Z 0000000180010520 f i libvcruntimed:undname.obj
 0001:0000f570       ?getPointerTypeArray@UnDecorator@@AEAA?AVDName@@AEBV2@0@Z 0000000180010570 f i libvcruntimed:undname.obj
 0001:0000f5c0       ?getPrimaryDataType@UnDecorator@@AEAA?AVDName@@AEBV2@@Z 00000001800105c0 f   libvcruntimed:undname.obj
 0001:0000fc80       ?getPtrRefDataType@UnDecorator@@AEAA?AVDName@@AEBV2@H@Z 0000000180010c80 f   libvcruntimed:undname.obj
 0001:000100e0       ?getPtrRefType@UnDecorator@@AEAA?AVDName@@AEBV2@0W4IndirectionKind@@@Z 00000001800110e0 f   libvcruntimed:undname.obj
 0001:00010370       ?getReferenceType@UnDecorator@@AEAA?AVDName@@AEBV2@0W4IndirectionKind@@@Z 0000000180011370 f i libvcruntimed:undname.obj
 0001:000103c0       ?getRestrictionSpec@UnDecorator@@AEAA?AVDName@@XZ 00000001800113c0 f   libvcruntimed:undname.obj
 0001:00010670       ?getReturnType@UnDecorator@@AEAA?AVDName@@PEAV2@@Z 0000000180011670 f   libvcruntimed:undname.obj
 0001:000106e0       ?getScope@UnDecorator@@AEAA?AVDName@@XZ 00000001800116e0 f   libvcruntimed:undname.obj
 0001:00010f50       ?getScopedName@UnDecorator@@AEAA?AVDName@@XZ 0000000180011f50 f   libvcruntimed:undname.obj
 0001:000111a0       ?getSignedDimension@UnDecorator@@AEAA?AVDName@@XZ 00000001800121a0 f   libvcruntimed:undname.obj
 0001:00011250       ?getStorageConvention@UnDecorator@@AEAA?AVDName@@XZ 0000000180012250 f i libvcruntimed:undname.obj
 0001:00011280       ?getString@DName@@QEBAPEADPEAD0@Z 0000000180012280 f i libvcruntimed:undname.obj
 0001:00011300       ?getString@DName@@QEBAPEADPEADH@Z 0000000180012300 f i libvcruntimed:undname.obj
 0001:000113c0       ?getString@DNameStatusNode@@UEBAPEADPEAD0@Z 00000001800123c0 f i libvcruntimed:undname.obj
 0001:00011410       ?getString@charNode@@UEBAPEADPEAD0@Z 0000000180012410 f i libvcruntimed:undname.obj
 0001:00011450       ?getString@pDNameNode@@UEBAPEADPEAD0@Z 0000000180012450 f i libvcruntimed:undname.obj
 0001:000114b0       ?getString@pairNode@@UEBAPEADPEAD0@Z 00000001800124b0 f i libvcruntimed:undname.obj
 0001:00011580       ?getString@pcharNode@@UEBAPEADPEAD0@Z 0000000180012580 f i libvcruntimed:undname.obj
 0001:000115c0       ?getStringEncoding@UnDecorator@@AEAA?AVDName@@W4PrefixKind@@H@Z 00000001800125c0 f   libvcruntimed:undname.obj
 0001:00011790       ?getStringHelper@@YAPEADPEADPEBD1H@Z 0000000180012790 f i libvcruntimed:undname.obj
 0001:00011800       ?getStringObject@UnDecorator@@AEAA?AVDName@@XZ 0000000180012800 f   libvcruntimed:undname.obj
 0001:000118e0       ?getSymbolName@UnDecorator@@AEAA?AVDName@@XZ 00000001800128e0 f i libvcruntimed:undname.obj
 0001:00011990       ?getTemplateArgumentList@UnDecorator@@AEAA?AVDName@@XZ 0000000180012990 f   libvcruntimed:undname.obj
 0001:00011d90       ?getTemplateName@UnDecorator@@AEAA?AVDName@@_N@Z 0000000180012d90 f   libvcruntimed:undname.obj
 0001:00012080       ?getTemplateNonTypeArgument@UnDecorator@@AEAA?AVDName@@XZ 0000000180013080 f   libvcruntimed:undname.obj
 0001:00012a50       ?getTemplateTypeArgument@UnDecorator@@AEAA?AVDName@@XZ 0000000180013a50 f   libvcruntimed:undname.obj
 0001:00012d30       ?getThisType@UnDecorator@@AEAA?AVDName@@XZ 0000000180013d30 f i libvcruntimed:undname.obj
 0001:00012db0       ?getThrowTypes@UnDecorator@@AEAA?AVDName@@XZ 0000000180013db0 f   libvcruntimed:undname.obj
 0001:00012e00       ?getTypeEncoding@UnDecorator@@AEAAHXZ 0000000180013e00 f i libvcruntimed:undname.obj
 0001:00013b30       ?getUndecoratedName@UnDecorator@@QEAAPEADPEADH@Z 0000000180014b30 f i libvcruntimed:undname.obj
 0001:00013d60       ?getUnionObject@UnDecorator@@AEAA?AVDName@@XZ 0000000180014d60 f   libvcruntimed:undname.obj
 0001:00013ec0       ?getVCallThunkType@UnDecorator@@AEAA?AVDName@@XZ 0000000180014ec0 f i libvcruntimed:undname.obj
 0001:00013f80       ?getValue@UnDecorator@@AEAA?AV?$optional@_K@std@@XZ 0000000180014f80 f   libvcruntimed:undname.obj
 0001:00014060       ?getValueObject@UnDecorator@@AEAA?AVDName@@XZ 0000000180015060 f   libvcruntimed:undname.obj
 0001:00014370       ?getVbTableType@UnDecorator@@AEAA?AVDName@@AEBV2@@Z 0000000180015370 f i libvcruntimed:undname.obj
 0001:000143b0       ?getVdispMapType@UnDecorator@@AEAA?AVDName@@AEBV2@@Z 00000001800153b0 f i libvcruntimed:undname.obj
 0001:00014480       ?getVfTableType@UnDecorator@@AEAA?AVDName@@AEBV2@@Z 0000000180015480 f i libvcruntimed:undname.obj
 0001:00014790       ?getZName@UnDecorator@@AEAA?AVDName@@_N0@Z 0000000180015790 f   libvcruntimed:undname.obj
 0001:00014cc0       ?get_current_character_and_increment_buffer@UnDecorator@@AEAADXZ 0000000180015cc0 f i libvcruntimed:undname.obj
 0001:00014d10       ?haveTemplateParameters@UnDecorator@@QEAAHXZ 0000000180015d10 f i libvcruntimed:undname.obj
 0001:00014d30       ?increment_buffer@UnDecorator@@AEAA_N_K@Z 0000000180015d30 f i libvcruntimed:undname.obj
 0001:00014da0       ?increment_buffer_no_check@UnDecorator@@AEAAXXZ 0000000180015da0 f i libvcruntimed:undname.obj
 0001:00014dd0       ?increment_buffer_no_check@UnDecorator@@AEAAX_K@Z 0000000180015dd0 f i libvcruntimed:undname.obj
 0001:00014e30       ?isArray@DName@@QEBAHXZ    0000000180015e30 f i libvcruntimed:undname.obj
 0001:00014e50       ?isComArray@DName@@QEBAHXZ 0000000180015e50 f i libvcruntimed:undname.obj
 0001:00014e70       ?isEmpty@DName@@QEBAHXZ    0000000180015e70 f i libvcruntimed:undname.obj
 0001:00014ea0       ?isFull@Replicator@@QEBAHXZ 0000000180015ea0 f i libvcruntimed:undname.obj
 0001:00014ed0       ?isNoTE@DName@@QEBAHXZ     0000000180015ed0 f i libvcruntimed:undname.obj
 0001:00014ef0       ?isPinPtr@DName@@QEBAHXZ   0000000180015ef0 f i libvcruntimed:undname.obj
 0001:00014f10       ?isPtrRef@DName@@QEBAHXZ   0000000180015f10 f i libvcruntimed:undname.obj
 0001:00014f30       ?isUDC@DName@@QEBAHXZ      0000000180015f30 f i libvcruntimed:undname.obj
 0001:00014f80       ?isUDTThunk@DName@@QEBAHXZ 0000000180015f80 f i libvcruntimed:undname.obj
 0001:00014fd0       ?isVCallThunk@DName@@QEBAHXZ 0000000180015fd0 f i libvcruntimed:undname.obj
 0001:00014ff0       ?isValid@DName@@QEBAHXZ    0000000180015ff0 f i libvcruntimed:undname.obj
 0001:00015030       ?length@DName@@QEBAHXZ     0000000180016030 f i libvcruntimed:undname.obj
 0001:00015080       ?length@DNameStatusNode@@UEBAHXZ 0000000180016080 f i libvcruntimed:undname.obj
 0001:00015090       ?length@charNode@@UEBAHXZ  0000000180016090 f i libvcruntimed:undname.obj
 0001:000150a0       ?length@pDNameNode@@UEBAHXZ 00000001800160a0 f i libvcruntimed:undname.obj
 0001:000150e0       ?length@pairNode@@UEBAHXZ  00000001800160e0 f i libvcruntimed:undname.obj
 0001:00015170       ?length@pcharNode@@UEBAHXZ 0000000180016170 f i libvcruntimed:undname.obj
 0001:00015180       ?make@DNameStatusNode@@SAPEBV1@W4DNameStatus@@@Z 0000000180016180 f i libvcruntimed:undname.obj
 0001:000151d0       ?parseDecoratedName@UnDecorator@@AEAA?AVDName@@XZ 00000001800161d0 f   libvcruntimed:undname.obj
 0001:00015480       ?raw_length@DNameStatusNode@@UEBAHXZ 0000000180016480 f i libvcruntimed:undname.obj
 0001:000154a0       ?raw_length@charNode@@UEBAHXZ 00000001800164a0 f i libvcruntimed:undname.obj
 0001:000154c0       ?raw_length@pDNameNode@@UEBAHXZ 00000001800164c0 f i libvcruntimed:undname.obj
 0001:000154d0       ?raw_length@pairNode@@UEBAHXZ 00000001800164d0 f i libvcruntimed:undname.obj
 0001:000154e0       ?raw_length@pcharNode@@UEBAHXZ 00000001800164e0 f i libvcruntimed:undname.obj
 0001:00015500       ?setIsArray@DName@@QEAAXXZ 0000000180016500 f i libvcruntimed:undname.obj
 0001:00015520       ?setIsComArray@DName@@QEAAXXZ 0000000180016520 f i libvcruntimed:undname.obj
 0001:00015540       ?setIsNoTE@DName@@QEAAXXZ  0000000180016540 f i libvcruntimed:undname.obj
 0001:00015560       ?setIsPinPtr@DName@@QEAAXXZ 0000000180016560 f i libvcruntimed:undname.obj
 0001:00015580       ?setIsUDC@DName@@QEAAXXZ   0000000180016580 f i libvcruntimed:undname.obj
 0001:000155b0       ?setIsVCallThunk@DName@@QEAAXXZ 00000001800165b0 f i libvcruntimed:undname.obj
 0001:000155d0       ?setPtrRef@DName@@QEAAAEAV1@XZ 00000001800165d0 f i libvcruntimed:undname.obj
 0001:000155f0       ?status@DName@@QEBA?AW4DNameStatus@@XZ 00000001800165f0 f i libvcruntimed:undname.obj
 0001:00015720       __unDName                  0000000180016720 f   libvcruntimed:undname.obj
 0001:00015780       __unDNameEx                0000000180016780 f   libvcruntimed:undname.obj
 0001:00015840       _vsprintf_s_l              0000000180016840 f i libvcruntimed:undname.obj
 0001:000158b0       snprintf                   00000001800168b0 f i libvcruntimed:undname.obj
 0001:00015910       sprintf_s                  0000000180016910 f i libvcruntimed:undname.obj
 0001:00015970       unDNameGenerateCHPE        0000000180016970 f   libvcruntimed:undname.obj
 0001:00015a10       vsnprintf                  0000000180016a10 f i libvcruntimed:undname.obj
 0001:00015a90       ??$?RU__vcrt_ptd@@@__crt_internal_free_policy@@QEBAXQEBU__vcrt_ptd@@@Z 0000000180016a90 f i libvcruntimed:per_thread_data.obj
 0001:00015ac0       ??0?$__crt_unique_heap_ptr@U__vcrt_ptd@@U__crt_internal_free_policy@@@@QEAA@QEAU__vcrt_ptd@@@Z 0000000180016ac0 f i libvcruntimed:per_thread_data.obj
 0001:00015b00       ??1?$__crt_unique_heap_ptr@U__vcrt_ptd@@U__crt_internal_free_policy@@@@QEAA@XZ 0000000180016b00 f i libvcruntimed:per_thread_data.obj
 0001:00015b40       ??B?$__crt_unique_heap_ptr@U__vcrt_ptd@@U__crt_internal_free_policy@@@@QEBA_NXZ 0000000180016b40 f i libvcruntimed:per_thread_data.obj
 0001:00015b60       ?detach@?$__crt_unique_heap_ptr@U__vcrt_ptd@@U__crt_internal_free_policy@@@@QEAAPEAU__vcrt_ptd@@XZ 0000000180016b60 f i libvcruntimed:per_thread_data.obj
 0001:00015b90       ?get@?$__crt_unique_heap_ptr@U__vcrt_ptd@@U__crt_internal_free_policy@@@@QEBAPEAU__vcrt_ptd@@XZ 0000000180016b90 f i libvcruntimed:per_thread_data.obj
 0001:00015ba0       ?is_valid@?$__crt_unique_heap_ptr@U__vcrt_ptd@@U__crt_internal_free_policy@@@@QEBA_NXZ 0000000180016ba0 f i libvcruntimed:per_thread_data.obj
 0001:00015bd0       ?release@?$__crt_unique_heap_ptr@U__vcrt_ptd@@U__crt_internal_free_policy@@@@QEAAXXZ 0000000180016bd0 f i libvcruntimed:per_thread_data.obj
 0001:00015c40       __vcrt_freefls             0000000180016c40 f   libvcruntimed:per_thread_data.obj
 0001:00015c80       __vcrt_freeptd_for_this_thread 0000000180016c80 f   libvcruntimed:per_thread_data.obj
 0001:00015cc0       __vcrt_getptd              0000000180016cc0 f   libvcruntimed:per_thread_data.obj
 0001:00015cf0       __vcrt_getptd_noexit       0000000180016cf0 f   libvcruntimed:per_thread_data.obj
 0001:00015e90       __vcrt_getptd_noinit       0000000180016e90 f   libvcruntimed:per_thread_data.obj
 0001:00015ef0       __vcrt_initialize_ptd      0000000180016ef0 f   libvcruntimed:per_thread_data.obj
 0001:00015f40       __vcrt_uninitialize_ptd    0000000180016f40 f   libvcruntimed:per_thread_data.obj
 0001:00015f70       __vcrt_initialize_locks    0000000180016f70 f   libvcruntimed:locks.obj
 0001:00015fe0       __vcrt_lock                0000000180016fe0 f   libvcruntimed:locks.obj
 0001:00016010       __vcrt_uninitialize_locks  0000000180017010 f   libvcruntimed:locks.obj
 0001:00016070       __vcrt_unlock              0000000180017070 f   libvcruntimed:locks.obj
 0001:000160a0       ??$__crt_interlocked_exchange_pointer@$$A6AXXZP6AXXZ@@YAP6AXXZPEDS6AXXZQ6AXXZ@Z 00000001800170a0 f i libvcruntimed:purevirt.obj
 0001:000160c0       ??$__crt_interlocked_read_pointer@$$A6AXXZ@@YAP6AXXZPEDS6AXXZ@Z 00000001800170c0 f i libvcruntimed:purevirt.obj
 0001:000160e0       _get_purecall_handler      00000001800170e0 f   libvcruntimed:purevirt.obj
 0001:00016100       _purecall                  0000000180017100 f   libvcruntimed:purevirt.obj
 0001:00016140       _set_purecall_handler      0000000180017140 f   libvcruntimed:purevirt.obj
 0001:00016160       ??$?0AEAViterator@TryBlockMap4@FH4@@AEAV012@$0A@@?$pair@Viterator@TryBlockMap4@FH4@@V123@@std@@QEAA@AEAViterator@TryBlockMap4@FH4@@0@Z 0000000180017160 f i libvcruntimed:risctrnsctrl.obj
 0001:000161a0       ??$?0AEAViterator@TryBlockMap@__FrameHandler3@@AEAV012@$0A@@?$pair@Viterator@TryBlockMap@__FrameHandler3@@V123@@std@@QEAA@AEAViterator@TryBlockMap@__FrameHandler3@@0@Z 00000001800171a0 f i libvcruntimed:risctrnsctrl.obj
 0001:00016390       ??$_CallSETranslator@V__FrameHandler3@@@@YAHPEAUEHExceptionRecord@@PEA_KPEAU_CONTEXT@@PEAU_xDISPATCHER_CONTEXT@@PEBU_s_FuncInfo@@K1H@Z 0000000180017390 f i libvcruntimed:risctrnsctrl.obj
 0001:00016420       ??$_CallSETranslator@V__FrameHandler4@@@@YAHPEAUEHExceptionRecord@@PEA_KPEAU_CONTEXT@@PEAU_xDISPATCHER_CONTEXT@@PEAUFuncInfo4@FH4@@K1H@Z 0000000180017420 f i libvcruntimed:risctrnsctrl.obj
 0001:000164b0       ??0FuncInfo4@FH4@@QEAA@XZ  00000001800174b0 f i libvcruntimed:risctrnsctrl.obj
 0001:00016520       ??0FuncInfoHeader@FH4@@QEAA@XZ 0000000180017520 f i libvcruntimed:risctrnsctrl.obj
 0001:00016540       ??0iterator@TryBlockMap4@FH4@@QEAA@AEAV12@I@Z 0000000180017540 f i libvcruntimed:risctrnsctrl.obj
 0001:00016570       ??0iterator@TryBlockMap@__FrameHandler3@@QEAA@AEAV12@I@Z 0000000180017570 f i libvcruntimed:risctrnsctrl.obj
 0001:000165a0       ??4iterator@TryBlockMap4@FH4@@QEAAAEAV012@AEBV012@@Z 00000001800175a0 f i libvcruntimed:risctrnsctrl.obj
 0001:000165c0       ??9iterator@TryBlockMap4@FH4@@QEBA_NAEBV012@@Z 00000001800175c0 f i libvcruntimed:risctrnsctrl.obj
 0001:00016600       ??Diterator@TryBlockMap4@FH4@@QEAA?AUTryBlockMapEntry4@2@XZ 0000000180017600 f i libvcruntimed:risctrnsctrl.obj
 0001:00016630       ??Eiterator@TryBlockMap4@FH4@@QEAAAEAV012@XZ 0000000180017630 f i libvcruntimed:risctrnsctrl.obj
 0001:00016670       ?CatchTryBlock@__FrameHandler3@@SAPEBU_s_TryBlockMapEntry@@PEBU_s_FuncInfo@@H@Z 0000000180017670 f   libvcruntimed:risctrnsctrl.obj
 0001:00016700       ?DecompFuncInfo@FH4@@YA_JPEAEAEAUFuncInfo4@1@_KH@Z 0000000180017700 f i libvcruntimed:risctrnsctrl.obj
 0001:00016740       ?DecompFuncInfo@FH4@@YA_JPEAEAEAUFuncInfo4@1@_KH_N@Z 0000000180017740 f i libvcruntimed:risctrnsctrl.obj
 0001:00016920       ?DecompTryBlock@TryBlockMap4@FH4@@AEAAXXZ 0000000180017920 f i libvcruntimed:risctrnsctrl.obj
 0001:000169a0       ?ExecutionInCatch@__FrameHandler3@@SA_NPEAU_xDISPATCHER_CONTEXT@@PEBU_s_FuncInfo@@@Z 00000001800179a0 f   libvcruntimed:risctrnsctrl.obj
 0001:000169f0       ?ExecutionInCatch@__FrameHandler4@@SA_NPEAU_xDISPATCHER_CONTEXT@@PEAUFuncInfo4@FH4@@@Z 00000001800179f0 f   libvcruntimed:risctrnsctrl.obj
 0001:00016a10       ?FrameUnwindToEmptyState@__FrameHandler3@@SAXPEA_KPEAU_xDISPATCHER_CONTEXT@@PEBU_s_FuncInfo@@@Z 0000000180017a10 f   libvcruntimed:risctrnsctrl.obj
 0001:00016ab0       ?FrameUnwindToEmptyState@__FrameHandler4@@SAXPEA_KPEAU_xDISPATCHER_CONTEXT@@PEAUFuncInfo4@FH4@@@Z 0000000180017ab0 f   libvcruntimed:risctrnsctrl.obj
 0001:00016b10       ?GetEstablisherFrame@__FrameHandler3@@SAPEA_KPEA_KPEAU_xDISPATCHER_CONTEXT@@PEBU_s_FuncInfo@@0@Z 0000000180017b10 f   libvcruntimed:risctrnsctrl.obj
 0001:00016c80       ?GetEstablisherFrame@__FrameHandler4@@SAPEA_KPEA_KPEAU_xDISPATCHER_CONTEXT@@PEAUFuncInfo4@FH4@@0@Z 0000000180017c80 f   libvcruntimed:risctrnsctrl.obj
 0001:00016cf0       ?GetRangeOfTrysToCheck@__FrameHandler3@@SA?AU?$pair@Viterator@TryBlockMap@__FrameHandler3@@V123@@std@@AEAVTryBlockMap@1@HPEAU_xDISPATCHER_CONTEXT@@PEBU_s_FuncInfo@@H@Z 0000000180017cf0 f   libvcruntimed:risctrnsctrl.obj
 0001:00016f30       ?GetRangeOfTrysToCheck@__FrameHandler4@@SA?AU?$pair@Viterator@TryBlockMap4@FH4@@V123@@std@@AEAVTryBlockMap4@FH4@@HPEAU_xDISPATCHER_CONTEXT@@PEAUFuncInfo4@5@H@Z 0000000180017f30 f   libvcruntimed:risctrnsctrl.obj
 0001:000170f0       ?ReadInt@FH4@@YAHPEAPEAE@Z 00000001800180f0 f i libvcruntimed:risctrnsctrl.obj
 0001:00017130       ?ReadUnsigned@FH4@@YAIPEAPEAE@Z 0000000180018130 f i libvcruntimed:risctrnsctrl.obj
 0001:000171c0       ?UnwindNestedFrames@__FrameHandler3@@SAXPEA_KPEAUEHExceptionRecord@@PEAU_CONTEXT@@0PEAXPEBU_s_FuncInfo@@HHPEBU_s_HandlerType@@PEAU_xDISPATCHER_CONTEXT@@E@Z 00000001800181c0 f   libvcruntimed:risctrnsctrl.obj
 0001:00017330       ?UnwindNestedFrames@__FrameHandler4@@SAXPEA_KPEAUEHExceptionRecord@@PEAU_CONTEXT@@0PEAXPEAUFuncInfo4@FH4@@HHPEAUHandlerType4@5@PEAU_xDISPATCHER_CONTEXT@@E@Z 0000000180018330 f   libvcruntimed:risctrnsctrl.obj
 0001:00017500       ?begin@TryBlockMap4@FH4@@QEAA?AViterator@12@XZ 0000000180018500 f i libvcruntimed:risctrnsctrl.obj
 0001:00017530       ?end@TryBlockMap4@FH4@@QEAA?AViterator@12@XZ 0000000180018530 f i libvcruntimed:risctrnsctrl.obj
 0001:00017560       ?imageRelToByteBuffer@FH4@@YAPEAE_KH@Z 0000000180018560 f i libvcruntimed:risctrnsctrl.obj
 0001:00017580       ?incrementToSentinel@iterator@TryBlockMap4@FH4@@QEAAXXZ 0000000180018580 f i libvcruntimed:risctrnsctrl.obj
 0001:000175a0       ?setBuffer@TryBlockMap4@FH4@@QEAAXViterator@12@@Z 00000001800185a0 f i libvcruntimed:risctrnsctrl.obj
 0001:00017610       _CreateFrameInfo           0000000180018610 f   libvcruntimed:risctrnsctrl.obj
 0001:00017680       _FindAndUnlinkFrame        0000000180018680 f   libvcruntimed:risctrnsctrl.obj
 0001:00017700       _GetImageBase              0000000180018700 f   libvcruntimed:risctrnsctrl.obj
 0001:00017720       _GetThrowImageBase         0000000180018720 f   libvcruntimed:risctrnsctrl.obj
 0001:00017740       _SetImageBase              0000000180018740 f   libvcruntimed:risctrnsctrl.obj
 0001:00017760       _SetThrowImageBase         0000000180018760 f   libvcruntimed:risctrnsctrl.obj
 0001:00017780       __CxxFrameHandler          0000000180018780 f   libvcruntimed:risctrnsctrl.obj
 0001:000177c0       __CxxFrameHandler2         00000001800187c0 f   libvcruntimed:risctrnsctrl.obj
 0001:00017800       __CxxFrameHandler3         0000000180018800 f   libvcruntimed:risctrnsctrl.obj
 0001:000178e0       __CxxFrameHandler4         00000001800188e0 f   libvcruntimed:risctrnsctrl.obj
 0001:000179f0       ??$__crt_interlocked_exchange_pointer@UHINSTANCE__@@PEAU1@@@YAPEAUHINSTANCE__@@PEDSEAU0@QEAU0@@Z 00000001800189f0 f i libvcruntimed:winapi_downlevel.obj
 0001:00017a10       ??$__crt_interlocked_exchange_pointer@UHINSTANCE__@@PEAX@@YAPEAUHINSTANCE__@@PEDSEAU0@QEAX@Z 0000000180018a10 f i libvcruntimed:winapi_downlevel.obj
 0001:00017a30       ??$__crt_interlocked_exchange_pointer@XPEAX@@YAPEAXPEDSEAXQEAX@Z 0000000180018a30 f i libvcruntimed:winapi_downlevel.obj
 0001:00017a50       ??$__crt_interlocked_read_pointer@UHINSTANCE__@@@@YAPEAUHINSTANCE__@@PEDSEAU0@@Z 0000000180018a50 f i libvcruntimed:winapi_downlevel.obj
 0001:00017a70       ??$__crt_interlocked_read_pointer@X@@YAPEAXPEDSEAX@Z 0000000180018a70 f i libvcruntimed:winapi_downlevel.obj
 0001:00017f80       __vcrt_FlsAlloc            0000000180018f80 f   libvcruntimed:winapi_downlevel.obj
 0001:00017fd0       __vcrt_FlsFree             0000000180018fd0 f   libvcruntimed:winapi_downlevel.obj
 0001:00018020       __vcrt_FlsGetValue         0000000180019020 f   libvcruntimed:winapi_downlevel.obj
 0001:00018070       __vcrt_FlsSetValue         0000000180019070 f   libvcruntimed:winapi_downlevel.obj
 0001:000180d0       __vcrt_InitializeCriticalSectionEx 00000001800190d0 f   libvcruntimed:winapi_downlevel.obj
 0001:00018140       ?GetCurrentState@__FrameHandler3@@SAHPEA_KPEAU_xDISPATCHER_CONTEXT@@PEBU_s_FuncInfo@@@Z 0000000180019140 f   libvcruntimed:ehstate.obj
 0001:000181a0       ?GetUnwindTryBlock@__FrameHandler3@@SAHPEA_KPEAU_xDISPATCHER_CONTEXT@@PEBU_s_FuncInfo@@@Z 00000001800191a0 f   libvcruntimed:ehstate.obj
 0001:000181f0       ?SetState@__FrameHandler3@@SAXPEA_KPEBU_s_FuncInfo@@H@Z 00000001800191f0 f   libvcruntimed:ehstate.obj
 0001:00018220       ?SetUnwindTryBlock@__FrameHandler3@@SAXPEA_KPEAU_xDISPATCHER_CONTEXT@@PEBU_s_FuncInfo@@H@Z 0000000180019220 f   libvcruntimed:ehstate.obj
 0001:00018290       ?StateFromControlPc@__FrameHandler3@@SAHPEBU_s_FuncInfo@@PEAU_xDISPATCHER_CONTEXT@@@Z 0000000180019290 f   libvcruntimed:ehstate.obj
 0001:000182d0       ?StateFromControlPc@__FrameHandler4@@SAHPEAUFuncInfo4@FH4@@PEAU_xDISPATCHER_CONTEXT@@@Z 00000001800192d0 f   libvcruntimed:ehstate.obj
 0001:00018310       ?StateFromIp@__FrameHandler3@@SAHPEBU_s_FuncInfo@@PEAU_xDISPATCHER_CONTEXT@@_K@Z 0000000180019310 f   libvcruntimed:ehstate.obj
 0001:00018410       ?StateFromIp@__FrameHandler4@@SAHPEAUFuncInfo4@FH4@@PEAU_xDISPATCHER_CONTEXT@@_K@Z 0000000180019410 f   libvcruntimed:ehstate.obj
 0001:00018500       ?__FuncRelToRealOffset@@YA_KPEAU_xDISPATCHER_CONTEXT@@I@Z 0000000180019500 f i libvcruntimed:ehstate.obj
 0001:00018530       ?__RVAtoRealOffset@@YA_KPEAU_xDISPATCHER_CONTEXT@@H@Z 0000000180019530 f i libvcruntimed:ehstate.obj
 0001:0001a7d0       ??$TypeMatchHelper@V__FrameHandler3@@@@YAHPEBU_s_HandlerType@@PEBU_s_CatchableType@@PEBU_s_ThrowInfo@@@Z 000000018001b7d0 f i libvcruntimed:frame.obj
 0001:0001a9d0       ??$TypeMatchHelper@V__FrameHandler4@@@@YAHPEAUHandlerType4@FH4@@PEBU_s_CatchableType@@PEBU_s_ThrowInfo@@@Z 000000018001b9d0 f i libvcruntimed:frame.obj
 0001:0001abe0       ??$__InternalCxxFrameHandler@V__FrameHandler3@@@@YA?AW4_EXCEPTION_DISPOSITION@@PEAUEHExceptionRecord@@PEA_KPEAU_CONTEXT@@PEAU_xDISPATCHER_CONTEXT@@PEBU_s_FuncInfo@@H1E@Z 000000018001bbe0 f i libvcruntimed:frame.obj
 0001:0001b060       ??$__InternalCxxFrameHandler@V__FrameHandler4@@@@YA?AW4_EXCEPTION_DISPOSITION@@PEAUEHExceptionRecord@@PEA_KPEAU_CONTEXT@@PEAU_xDISPATCHER_CONTEXT@@PEAUFuncInfo4@FH4@@H1E@Z 000000018001c060 f i libvcruntimed:frame.obj
 0001:0001b500       ??$__InternalCxxFrameHandlerWrapper@V__FrameHandler3@@@@YA?AW4_EXCEPTION_DISPOSITION@@PEAUEHExceptionRecord@@PEA_KPEAU_CONTEXT@@PEAU_xDISPATCHER_CONTEXT@@PEBU_s_FuncInfo@@H1E@Z 000000018001c500 f i libvcruntimed:frame.obj
 0001:0001b570       ??$__InternalCxxFrameHandlerWrapper@V__FrameHandler4@@@@YA?AW4_EXCEPTION_DISPOSITION@@PEAUEHExceptionRecord@@PEA_KPEAU_CONTEXT@@PEAU_xDISPATCHER_CONTEXT@@PEAUFuncInfo4@FH4@@H1E@Z 000000018001c570 f i libvcruntimed:frame.obj
 0001:0001b600       ??0HandlerMap4@FH4@@QEAA@PEBUTryBlockMapEntry4@1@_KH@Z 000000018001c600 f i libvcruntimed:frame.obj
 0001:0001b6e0       ??0HandlerMap@__FrameHandler3@@QEAA@PEBU_s_TryBlockMapEntry@@_KI@Z 000000018001c6e0 f i libvcruntimed:frame.obj
 0001:0001b730       ??0HandlerType4@FH4@@QEAA@XZ 000000018001c730 f i libvcruntimed:frame.obj
 0001:0001b750       ??0TryBlockMap4@FH4@@QEAA@PEBUFuncInfo4@1@_K@Z 000000018001c750 f i libvcruntimed:frame.obj
 0001:0001b810       ??0TryBlockMap@__FrameHandler3@@QEAA@PEBU_s_FuncInfo@@_K@Z 000000018001c810 f i libvcruntimed:frame.obj
 0001:0001b840       ??0UWMap4@FH4@@QEAA@PEBUFuncInfo4@1@_K@Z 000000018001c840 f i libvcruntimed:frame.obj
 0001:0001b8d0       ??0bad_exception@std@@QEAA@AEBV01@@Z 000000018001c8d0 f i libvcruntimed:frame.obj
 0001:0001b910       ??0bad_exception@std@@QEAA@XZ 000000018001c910 f i libvcruntimed:frame.obj
 0001:0001b950       ??0exception@std@@QEAA@AEBV01@@Z 000000018001c950 f i libvcruntimed:frame.obj
 0001:0001b9b0       ??0exception@std@@QEAA@QEBDH@Z 000000018001c9b0 f i libvcruntimed:frame.obj
 0001:0001ba00       ??0iterator@HandlerMap4@FH4@@QEAA@AEAV12@I@Z 000000018001ca00 f i libvcruntimed:frame.obj
 0001:0001ba30       ??0iterator@HandlerMap@__FrameHandler3@@QEAA@AEAV12@I@Z 000000018001ca30 f i libvcruntimed:frame.obj
 0001:0001ba60       ??0iterator@UWMap4@FH4@@QEAA@AEAV12@PEAE@Z 000000018001ca60 f i libvcruntimed:frame.obj
 0001:0001ba90       ??1bad_exception@std@@UEAA@XZ 000000018001ca90 f i libvcruntimed:frame.obj
 0001:0001bab0       ??1exception@std@@UEAA@XZ  000000018001cab0 f i libvcruntimed:frame.obj
 0001:0001bae0       ??4iterator@UWMap4@FH4@@QEAAAEAV012@AEBV012@@Z 000000018001cae0 f i libvcruntimed:frame.obj
 0001:0001bb30       ??8iterator@HandlerMap4@FH4@@QEBA_NAEBV012@@Z 000000018001cb30 f i libvcruntimed:frame.obj
 0001:0001bb70       ??8iterator@HandlerMap@__FrameHandler3@@QEBA_NAEBV012@@Z 000000018001cb70 f i libvcruntimed:frame.obj
 0001:0001bbb0       ??8type_info@@QEBA_NAEBV0@@Z 000000018001cbb0 f i libvcruntimed:frame.obj
 0001:0001bc30       ??9iterator@HandlerMap4@FH4@@QEBA_NAEBV012@@Z 000000018001cc30 f i libvcruntimed:frame.obj
 0001:0001bc70       ??9iterator@HandlerMap@__FrameHandler3@@QEBA_NAEBV012@@Z 000000018001cc70 f i libvcruntimed:frame.obj
 0001:0001bcb0       ??Diterator@HandlerMap4@FH4@@QEAA?AUHandlerType4@2@XZ 000000018001ccb0 f i libvcruntimed:frame.obj
 0001:0001bce0       ??Diterator@HandlerMap@__FrameHandler3@@QEAA?BU_s_HandlerType@@XZ 000000018001cce0 f i libvcruntimed:frame.obj
 0001:0001bd20       ??Diterator@TryBlockMap@__FrameHandler3@@QEAA?BU_s_TryBlockMapEntry@@XZ 000000018001cd20 f i libvcruntimed:frame.obj
 0001:0001bd70       ??Diterator@UWMap4@FH4@@QEAA?AUUnwindMapEntry4@2@XZ 000000018001cd70 f i libvcruntimed:frame.obj
 0001:0001bdf0       ??Eiterator@HandlerMap4@FH4@@QEAAAEAV012@XZ 000000018001cdf0 f i libvcruntimed:frame.obj
 0001:0001be30       ??Eiterator@HandlerMap@__FrameHandler3@@QEAAAEAV012@XZ 000000018001ce30 f i libvcruntimed:frame.obj
 0001:0001be50       ??Eiterator@TryBlockMap@__FrameHandler3@@QEAAAEAV012@XZ 000000018001ce50 f i libvcruntimed:frame.obj
 0001:0001be70       ??Eiterator@UWMap4@FH4@@QEAAAEAV012@XZ 000000018001ce70 f i libvcruntimed:frame.obj
 0001:0001beb0       ??Giterator@UWMap4@FH4@@QEBA_JAEBV012@@Z 000000018001ceb0 f i libvcruntimed:frame.obj
 0001:0001bed0       ??Miterator@TryBlockMap4@FH4@@QEBA_NAEBV012@@Z 000000018001ced0 f i libvcruntimed:frame.obj
 0001:0001bf10       ??Miterator@TryBlockMap@__FrameHandler3@@QEBA_NAEBV012@@Z 000000018001cf10 f i libvcruntimed:frame.obj
 0001:0001bf50       ??Oiterator@UWMap4@FH4@@QEBA_NAEBV012@@Z 000000018001cf50 f i libvcruntimed:frame.obj
 0001:0001bf90       ??Piterator@UWMap4@FH4@@QEBA_NAEBV012@@Z 000000018001cf90 f i libvcruntimed:frame.obj
 0001:0001bfd0       ??_Ebad_exception@std@@UEAAPEAXI@Z 000000018001cfd0 f i libvcruntimed:frame.obj
 0001:0001bfd0       ??_Gbad_exception@std@@UEAAPEAXI@Z 000000018001cfd0 f i libvcruntimed:frame.obj
 0001:0001c010       ??_Eexception@std@@UEAAPEAXI@Z 000000018001d010 f i libvcruntimed:frame.obj
 0001:0001c010       ??_Gexception@std@@UEAAPEAXI@Z 000000018001d010 f i libvcruntimed:frame.obj
 0001:0001c050       ?BuildCatchObject@__FrameHandler3@@SAXPEAUEHExceptionRecord@@PEAXPEBU_s_HandlerType@@PEBU_s_CatchableType@@@Z 000000018001d050 f   libvcruntimed:frame.obj
 0001:0001c090       ?BuildCatchObject@__FrameHandler4@@SAXPEAUEHExceptionRecord@@PEAXPEAUHandlerType4@FH4@@PEBU_s_CatchableType@@@Z 000000018001d090 f   libvcruntimed:frame.obj
 0001:0001c0d0       ?BuildCatchObjectHelper@__FrameHandler3@@SAHPEAUEHExceptionRecord@@PEAXPEBU_s_HandlerType@@PEBU_s_CatchableType@@@Z 000000018001d0d0 f   libvcruntimed:frame.obj
 0001:0001c110       ?BuildCatchObjectHelper@__FrameHandler4@@SAHPEAUEHExceptionRecord@@PEAXPEAUHandlerType4@FH4@@PEBU_s_CatchableType@@@Z 000000018001d110 f   libvcruntimed:frame.obj
 0001:0001c150       ?CxxCallCatchBlock@__FrameHandler3@@SAPEAXPEAU_EXCEPTION_RECORD@@@Z 000000018001d150 f   libvcruntimed:frame.obj
 0001:0001c3b0       ?CxxCallCatchBlock@__FrameHandler4@@SAPEAXPEAU_EXCEPTION_RECORD@@@Z 000000018001d3b0 f   libvcruntimed:frame.obj
 0001:0001c6e0       ?DecompHandler@HandlerMap4@FH4@@AEAAXXZ 000000018001d6e0 f i libvcruntimed:frame.obj
 0001:0001cab0       ?FrameUnwindToState@__FrameHandler3@@SAXPEA_KPEAU_xDISPATCHER_CONTEXT@@PEBU_s_FuncInfo@@H@Z 000000018001dab0 f   libvcruntimed:frame.obj
 0001:0001cd00       ?FrameUnwindToState@__FrameHandler4@@SAXPEA_KPEAU_xDISPATCHER_CONTEXT@@PEAUFuncInfo4@FH4@@H@Z 000000018001dd00 f   libvcruntimed:frame.obj
 0001:0001d020       ?GetHandlerSearchState@__FrameHandler3@@SAHPEA_KPEAU_xDISPATCHER_CONTEXT@@PEBU_s_FuncInfo@@@Z 000000018001e020 f i libvcruntimed:frame.obj
 0001:0001d0d0       ?GetHandlerSearchState@__FrameHandler4@@SAHPEA_KPEAU_xDISPATCHER_CONTEXT@@PEAUFuncInfo4@FH4@@@Z 000000018001e0d0 f i libvcruntimed:frame.obj
 0001:0001d160       ?GetMaxState@__FrameHandler3@@SAHPEAU_xDISPATCHER_CONTEXT@@PEBU_s_FuncInfo@@@Z 000000018001e160 f i libvcruntimed:frame.obj
 0001:0001d180       ?GetMaxState@__FrameHandler4@@SAHPEAU_xDISPATCHER_CONTEXT@@PEAUFuncInfo4@FH4@@@Z 000000018001e180 f i libvcruntimed:frame.obj
 0001:0001d3b0       ?ReadEntry@UWMap4@FH4@@AEAAXPEAPEAE@Z 000000018001e3b0 f i libvcruntimed:frame.obj
 0001:0001d460       ?TypeMatch@__FrameHandler3@@SAHPEBU_s_HandlerType@@PEBU_s_CatchableType@@PEBU_s_ThrowInfo@@@Z 000000018001e460 f   libvcruntimed:frame.obj
 0001:0001d490       ?TypeMatch@__FrameHandler4@@SAHPEAUHandlerType4@FH4@@PEBU_s_CatchableType@@PEBU_s_ThrowInfo@@@Z 000000018001e490 f   libvcruntimed:frame.obj
 0001:0001d4c0       ?WalkBack@UWMap4@FH4@@AEAAXPEAPEAE@Z 000000018001e4c0 f i libvcruntimed:frame.obj
 0001:0001d510       ?WalkBack@iterator@UWMap4@FH4@@QEAAXXZ 000000018001e510 f i libvcruntimed:frame.obj
 0001:0001d550       ?WalkForward@UWMap4@FH4@@AEAAXPEAPEAE@Z 000000018001e550 f i libvcruntimed:frame.obj
 0001:0001d580       ?_CallMemberFunction1@@YAXQEAX00@Z 000000018001e580 f i libvcruntimed:frame.obj
 0001:0001d5c0       ?_CallMemberFunction2@@YAXQEAX00H@Z 000000018001e5c0 f i libvcruntimed:frame.obj
 0001:0001d650       ?begin@HandlerMap4@FH4@@QEAA?AViterator@12@XZ 000000018001e650 f i libvcruntimed:frame.obj
 0001:0001d680       ?begin@HandlerMap@__FrameHandler3@@QEAA?AViterator@12@XZ 000000018001e680 f i libvcruntimed:frame.obj
 0001:0001d6b0       ?begin@UWMap4@FH4@@QEAA?AViterator@12@XZ 000000018001e6b0 f i libvcruntimed:frame.obj
 0001:0001d6e0       ?end@HandlerMap4@FH4@@QEAA?AViterator@12@XZ 000000018001e6e0 f i libvcruntimed:frame.obj
 0001:0001d710       ?end@HandlerMap@__FrameHandler3@@QEAA?AViterator@12@XZ 000000018001e710 f i libvcruntimed:frame.obj
 0001:0001d740       ?getESTypes@__FrameHandler3@@SAPEBU_s_ESTypeList@@PEBU_s_FuncInfo@@@Z 000000018001e740 f i libvcruntimed:frame.obj
 0001:0001d780       ?getESTypes@__FrameHandler4@@SAPEBU_s_ESTypeList@@PEAUFuncInfo4@FH4@@@Z 000000018001e780 f i libvcruntimed:frame.obj
 0001:0001d790       ?getLastEntry@HandlerMap4@FH4@@QEAAPEAUHandlerType4@2@XZ 000000018001e790 f i libvcruntimed:frame.obj
 0001:0001d7d0       ?getLastEntry@HandlerMap@__FrameHandler3@@QEAAPEBU_s_HandlerType@@XZ 000000018001e7d0 f i libvcruntimed:frame.obj
 0001:0001d7f0       ?getMagicNum@__FrameHandler3@@SAIPEBU_s_FuncInfo@@@Z 000000018001e7f0 f i libvcruntimed:frame.obj
 0001:0001d810       ?getMagicNum@__FrameHandler4@@SAIPEAUFuncInfo4@FH4@@@Z 000000018001e810 f i libvcruntimed:frame.obj
 0001:0001d820       ?getNumTryBlocks@TryBlockMap4@FH4@@QEAAIXZ 000000018001e820 f i libvcruntimed:frame.obj
 0001:0001d830       ?getNumTryBlocks@TryBlockMap@__FrameHandler3@@QEAAIXZ 000000018001e830 f i libvcruntimed:frame.obj
 0001:0001d850       ?getStartStop@UWMap4@FH4@@QEAAXHHAEAViterator@12@0@Z 000000018001e850 f i libvcruntimed:frame.obj
 0001:0001d970       ?getStateFromIterators@UWMap4@FH4@@SAHAEBViterator@12@H0H0@Z 000000018001e970 f i libvcruntimed:frame.obj
 0001:0001dab0       ?isEHs@__FrameHandler3@@SA_NPEBU_s_FuncInfo@@@Z 000000018001eab0 f i libvcruntimed:frame.obj
 0001:0001daf0       ?isEHs@__FrameHandler4@@SA_NPEAUFuncInfo4@FH4@@@Z 000000018001eaf0 f i libvcruntimed:frame.obj
 0001:0001db10       ?isNoExcept@__FrameHandler3@@SA_NPEBU_s_FuncInfo@@@Z 000000018001eb10 f i libvcruntimed:frame.obj
 0001:0001db50       ?isNoExcept@__FrameHandler4@@SA_NPEAUFuncInfo4@FH4@@@Z 000000018001eb50 f i libvcruntimed:frame.obj
 0001:0001db70       ?reset@HandlerType4@FH4@@QEAAXXZ 000000018001eb70 f i libvcruntimed:frame.obj
 0001:0001dbd0       ?resetBuffer@HandlerMap4@FH4@@QEAAXXZ 000000018001ebd0 f i libvcruntimed:frame.obj
 0001:0001dbf0       ?setBuffer@HandlerMap4@FH4@@QEAAXI@Z 000000018001ebf0 f i libvcruntimed:frame.obj
 0001:0001dc50       ?what@exception@std@@UEBAPEBDXZ 000000018001ec50 f i libvcruntimed:frame.obj
 0001:0001dc90       __BuildCatchObject         000000018001ec90 f   libvcruntimed:frame.obj
 0001:0001dcd0       __BuildCatchObjectHelper   000000018001ecd0 f   libvcruntimed:frame.obj
 0001:0001dd10       __TypeMatch                000000018001ed10 f   libvcruntimed:frame.obj
 0001:0001dd40       __vcrt_EncodePointer       000000018001ed40 f i libvcruntimed:frame.obj
 0001:0001dda0       _CallSettingFrame          000000018001eda0 f   libvcruntimed:handlers.obj
 0001:0001dde0       _CallSettingFrame_LookupContinuationIndex 000000018001ede0 f   libvcruntimed:handlers.obj
 0001:0001de10       _CallSettingFrame_NotifyContinuationAddr 000000018001ee10 f   libvcruntimed:handlers.obj
 0001:0001de40       _CallSettingFrameEncoded   000000018001ee40 f   libvcruntimed:handlers.obj
 0001:0001de90       ??$?RD@__crt_public_free_policy@@QEBAXQEBD@Z 000000018001ee90 f i libvcruntimed:std_exception.obj
 0001:0001deb0       ??0?$__crt_unique_heap_ptr@DU__crt_public_free_policy@@@@QEAA@QEAD@Z 000000018001eeb0 f i libvcruntimed:std_exception.obj
 0001:0001ded0       ??1?$__crt_unique_heap_ptr@DU__crt_public_free_policy@@@@QEAA@XZ 000000018001eed0 f i libvcruntimed:std_exception.obj
 0001:0001def0       ??B?$__crt_unique_heap_ptr@DU__crt_public_free_policy@@@@QEBA_NXZ 000000018001eef0 f i libvcruntimed:std_exception.obj
 0001:0001df10       ?detach@?$__crt_unique_heap_ptr@DU__crt_public_free_policy@@@@QEAAPEADXZ 000000018001ef10 f i libvcruntimed:std_exception.obj
 0001:0001df40       ?get@?$__crt_unique_heap_ptr@DU__crt_public_free_policy@@@@QEBAPEADXZ 000000018001ef40 f i libvcruntimed:std_exception.obj
 0001:0001df50       ?is_valid@?$__crt_unique_heap_ptr@DU__crt_public_free_policy@@@@QEBA_NXZ 000000018001ef50 f i libvcruntimed:std_exception.obj
 0001:0001df80       ?release@?$__crt_unique_heap_ptr@DU__crt_public_free_policy@@@@QEAAXXZ 000000018001ef80 f i libvcruntimed:std_exception.obj
 0001:0001dfb0       __std_exception_copy       000000018001efb0 f   libvcruntimed:std_exception.obj
 0001:0001e0f0       __std_exception_destroy    000000018001f0f0 f   libvcruntimed:std_exception.obj
 0001:0001e130       _CxxThrowException         000000018001f130 f   libvcruntimed:throw.obj
 0001:0001e270       _initterm                  000000018001f270 f   libucrtd:initterm.obj
 0001:0001e2d0       _initterm_e                000000018001f2d0 f   libucrtd:initterm.obj
 0001:0001e3c0       _seh_filter_dll            000000018001f3c0 f   libucrtd:exception_filter.obj
 0001:0001e3f0       _seh_filter_exe            000000018001f3f0 f   libucrtd:exception_filter.obj
 0001:0001e6b0       ??$?B$$A6AXPEAXK0@Z@__crt_fast_encoded_nullptr_t@@QEBAP6AXPEAXK0@ZXZ 000000018001f6b0 f i libucrtd:exit.obj
 0001:0001e770       ??$__crt_fast_decode_pointer@P6AXPEAXK0@Z@@YAP6AXPEAXK0@ZQ6AX0K0@Z@Z 000000018001f770 f i libucrtd:exit.obj
 0001:0001e7b0       ??$__crt_fast_encode_pointer@P6AXPEAXK0@Z@@YAP6AXPEAXK0@ZQ6AX0K0@Z@Z 000000018001f7b0 f i libucrtd:exit.obj
 0001:0001e7f0       ??$__crt_get_proc_address@P6AXI@Z@@YAP6AXI@ZQEAUHINSTANCE__@@QEBD@Z 000000018001f7f0 f i libucrtd:exit.obj
 0001:0001e820       ??$__crt_interlocked_read@J@@YAJPEDJ@Z 000000018001f820 f i libucrtd:exit.obj
 0001:0001e8d0       ??0?$__crt_unique_handle_t@U__crt_hmodule_traits@@@@QEAA@QEAUHINSTANCE__@@@Z 000000018001f8d0 f i libucrtd:exit.obj
 0001:0001e8f0       ??1?$__crt_unique_handle_t@U__crt_hmodule_traits@@@@QEAA@XZ 000000018001f8f0 f i libucrtd:exit.obj
 0001:0001ea60       ?__acrt_select_exit_lock@@YA?AW4__acrt_lock_id@@XZ 000000018001fa60 f i libucrtd:exit.obj
 0001:0001ea70       ?__crt_fast_encode_pointer@@YA?AU__crt_fast_encoded_nullptr_t@@$$T@Z 000000018001fa70 f i libucrtd:exit.obj
 0001:0001ea90       ?__crt_interlocked_read_32@@YAHPEDH@Z 000000018001fa90 f i libucrtd:exit.obj
 0001:0001eab0       ?__crt_rotate_pointer_value@@YA_K_KH@Z 000000018001fab0 f i libucrtd:exit.obj
 0001:0001eaf0       ?close@?$__crt_unique_handle_t@U__crt_hmodule_traits@@@@QEAAXXZ 000000018001faf0 f i libucrtd:exit.obj
 0001:0001eb30       ?close@__crt_hmodule_traits@@SA_NPEAUHINSTANCE__@@@Z 000000018001fb30 f i libucrtd:exit.obj
 0001:0001ec70       ?get@?$__crt_unique_handle_t@U__crt_hmodule_traits@@@@QEBAPEAUHINSTANCE__@@XZ 000000018001fc70 f i libucrtd:exit.obj
 0001:0001ec80       ?get_address_of@?$__crt_unique_handle_t@U__crt_hmodule_traits@@@@QEAAPEAPEAUHINSTANCE__@@XZ 000000018001fc80 f i libucrtd:exit.obj
 0001:0001ec90       ?get_invalid_value@__crt_hmodule_traits@@SAPEAUHINSTANCE__@@XZ 000000018001fc90 f i libucrtd:exit.obj
 0001:0001ee40       _Exit                      000000018001fe40 f   libucrtd:exit.obj
 0001:0001ee60       __acrt_initialize_thread_local_exit_callback 000000018001fe60 f   libucrtd:exit.obj
 0001:0001ee80       _c_exit                    000000018001fe80 f   libucrtd:exit.obj
 0001:0001eea0       _cexit                     000000018001fea0 f   libucrtd:exit.obj
 0001:0001eec0       _exit                      000000018001fec0 f   libucrtd:exit.obj
 0001:0001eee0       _is_c_termination_complete 000000018001fee0 f   libucrtd:exit.obj
 0001:0001ef00       _register_thread_local_exe_atexit_callback 000000018001ff00 f   libucrtd:exit.obj
 0001:0001ef50       exit                       000000018001ff50 f   libucrtd:exit.obj
 0001:0001ef70       quick_exit                 000000018001ff70 f   libucrtd:exit.obj
 0001:0001ef90       ??$?RE@__crt_internal_free_policy@@QEBAXQEBE@Z 000000018001ff90 f i libucrtd:argv_parsing.obj
 0001:0001efc0       ??$?RPEAD@__crt_internal_free_policy@@QEBAXQEBQEAD@Z 000000018001ffc0 f i libucrtd:argv_parsing.obj
 0001:0001eff0       ??$?RPEA_W@__crt_internal_free_policy@@QEBAXQEBQEA_W@Z 000000018001fff0 f i libucrtd:argv_parsing.obj
 0001:0001f740       ??$get_module_file_name@$$TAEAY0BAF@DH@?$__crt_char_traits@D@@SAK$$QEA$$TAEAY0BAF@D$$QEAH@Z 0000000180020740 f i libucrtd:argv_parsing.obj
 0001:0001f780       ??$get_module_file_name@$$TAEAY0BAF@_WH@?$__crt_char_traits@_W@@SAK$$QEA$$TAEAY0BAF@_W$$QEAH@Z 0000000180020780 f i libucrtd:argv_parsing.obj
 0001:000201a0       ??$set_program_name@PEAD@?$__crt_char_traits@D@@SAX$$QEAPEAD@Z 00000001800211a0 f i libucrtd:argv_parsing.obj
 0001:000201c0       ??$set_program_name@PEA_W@?$__crt_char_traits@_W@@SAX$$QEAPEA_W@Z 00000001800211c0 f i libucrtd:argv_parsing.obj
 0001:00020220       ??0?$__crt_unique_heap_ptr@EU__crt_internal_free_policy@@@@QEAA@QEAE@Z 0000000180021220 f i libucrtd:argv_parsing.obj
 0001:00020240       ??0?$__crt_unique_heap_ptr@PEADU__crt_internal_free_policy@@@@QEAA@QEAPEAD@Z 0000000180021240 f i libucrtd:argv_parsing.obj
 0001:00020260       ??0?$__crt_unique_heap_ptr@PEA_WU__crt_internal_free_policy@@@@QEAA@QEAPEA_W@Z 0000000180021260 f i libucrtd:argv_parsing.obj
 0001:00020280       ??1?$__crt_unique_heap_ptr@EU__crt_internal_free_policy@@@@QEAA@XZ 0000000180021280 f i libucrtd:argv_parsing.obj
 0001:000202a0       ??1?$__crt_unique_heap_ptr@PEADU__crt_internal_free_policy@@@@QEAA@XZ 00000001800212a0 f i libucrtd:argv_parsing.obj
 0001:000202c0       ??1?$__crt_unique_heap_ptr@PEA_WU__crt_internal_free_policy@@@@QEAA@XZ 00000001800212c0 f i libucrtd:argv_parsing.obj
 0001:000202e0       ??B?$__crt_unique_heap_ptr@EU__crt_internal_free_policy@@@@QEBA_NXZ 00000001800212e0 f i libucrtd:argv_parsing.obj
 0001:000203c0       ?detach@?$__crt_unique_heap_ptr@EU__crt_internal_free_policy@@@@QEAAPEAEXZ 00000001800213c0 f i libucrtd:argv_parsing.obj
 0001:000203f0       ?detach@?$__crt_unique_heap_ptr@PEADU__crt_internal_free_policy@@@@QEAAPEAPEADXZ 00000001800213f0 f i libucrtd:argv_parsing.obj
 0001:00020420       ?detach@?$__crt_unique_heap_ptr@PEA_WU__crt_internal_free_policy@@@@QEAAPEAPEA_WXZ 0000000180021420 f i libucrtd:argv_parsing.obj
 0001:000204e0       ?get@?$__crt_unique_heap_ptr@EU__crt_internal_free_policy@@@@QEBAPEAEXZ 00000001800214e0 f i libucrtd:argv_parsing.obj
 0001:000204f0       ?get@?$__crt_unique_heap_ptr@PEADU__crt_internal_free_policy@@@@QEBAPEAPEADXZ 00000001800214f0 f i libucrtd:argv_parsing.obj
 0001:00020500       ?get@?$__crt_unique_heap_ptr@PEA_WU__crt_internal_free_policy@@@@QEBAPEAPEA_WXZ 0000000180021500 f i libucrtd:argv_parsing.obj
 0001:00020510       ?get_address_of@?$__crt_unique_heap_ptr@PEADU__crt_internal_free_policy@@@@QEAAPEAPEAPEADXZ 0000000180021510 f i libucrtd:argv_parsing.obj
 0001:00020520       ?get_address_of@?$__crt_unique_heap_ptr@PEA_WU__crt_internal_free_policy@@@@QEAAPEAPEAPEA_WXZ 0000000180021520 f i libucrtd:argv_parsing.obj
 0001:00020570       ?is_valid@?$__crt_unique_heap_ptr@EU__crt_internal_free_policy@@@@QEBA_NXZ 0000000180021570 f i libucrtd:argv_parsing.obj
 0001:000205a0       ?release@?$__crt_unique_heap_ptr@EU__crt_internal_free_policy@@@@QEAAXXZ 00000001800215a0 f i libucrtd:argv_parsing.obj
 0001:000205d0       ?release@?$__crt_unique_heap_ptr@PEADU__crt_internal_free_policy@@@@QEAAXXZ 00000001800215d0 f i libucrtd:argv_parsing.obj
 0001:00020600       ?release@?$__crt_unique_heap_ptr@PEA_WU__crt_internal_free_policy@@@@QEAAXXZ 0000000180021600 f i libucrtd:argv_parsing.obj
 0001:00020680       __acrt_allocate_buffer_for_argv 0000000180021680 f   libucrtd:argv_parsing.obj
 0001:000207a0       _configure_narrow_argv     00000001800217a0 f   libucrtd:argv_parsing.obj
 0001:000207c0       _configure_wide_argv       00000001800217c0 f   libucrtd:argv_parsing.obj
 0001:000207e0       _set_pgmptr                00000001800217e0 f i libucrtd:argv_parsing.obj
 0001:00020800       _set_wpgmptr               0000000180021800 f i libucrtd:argv_parsing.obj
 0001:00020820       ??$?R_W@__crt_internal_free_policy@@QEBAXQEB_W@Z 0000000180021820 f i libucrtd:environment_initialization.obj
 0001:000211e0       ??$get_environment_from_os@$$V@?$__crt_char_traits@D@@SAPEADXZ 00000001800221e0 f i libucrtd:environment_initialization.obj
 0001:000211f0       ??$get_environment_from_os@$$V@?$__crt_char_traits@_W@@SAPEA_WXZ 00000001800221f0 f i libucrtd:environment_initialization.obj
 0001:00021500       ??$set_variable_in_environment_nolock@PEADH@?$__crt_char_traits@D@@SAH$$QEAPEAD$$QEAH@Z 0000000180022500 f i libucrtd:environment_initialization.obj
 0001:00021530       ??$set_variable_in_environment_nolock@PEA_WH@?$__crt_char_traits@_W@@SAH$$QEAPEA_W$$QEAH@Z 0000000180022530 f i libucrtd:environment_initialization.obj
 0001:00021560       ??$tcscpy_s@PEADAEB_KAEAPEAD@?$__crt_char_traits@D@@SAH$$QEAPEADAEB_KAEAPEAD@Z 0000000180022560 f i libucrtd:environment_initialization.obj
 0001:000215a0       ??$tcscpy_s@PEA_WAEB_KAEAPEA_W@?$__crt_char_traits@_W@@SAH$$QEAPEA_WAEB_KAEAPEA_W@Z 00000001800225a0 f i libucrtd:environment_initialization.obj
 0001:000215e0       ??$tcslen@AEAPEAD@?$__crt_char_traits@D@@SA_KAEAPEAD@Z 00000001800225e0 f i libucrtd:environment_initialization.obj
 0001:00021600       ??$tcslen@AEAPEA_W@?$__crt_char_traits@_W@@SA_KAEAPEA_W@Z 0000000180022600 f i libucrtd:environment_initialization.obj
 0001:00021620       ??$uninitialize@A6AXAEAPEAPEAD@_E@?$dual_state_global@PEAPEAD@__crt_state_management@@QEAAXA6AXAEAPEAPEAD@_E@Z 0000000180022620 f i libucrtd:environment_initialization.obj
 0001:00021690       ??$uninitialize@A6AXAEAPEAPEA_W@_E@?$dual_state_global@PEAPEA_W@__crt_state_management@@QEAAXA6AXAEAPEAPEA_W@_E@Z 0000000180022690 f i libucrtd:environment_initialization.obj
 0001:00021780       ??0?$__crt_unique_heap_ptr@_WU__crt_internal_free_policy@@@@QEAA@QEA_W@Z 0000000180022780 f i libucrtd:environment_initialization.obj
 0001:000217a0       ??1?$__crt_unique_heap_ptr@_WU__crt_internal_free_policy@@@@QEAA@XZ 00000001800227a0 f i libucrtd:environment_initialization.obj
 0001:000217c0       ??B?$__crt_unique_heap_ptr@PEADU__crt_internal_free_policy@@@@QEBA_NXZ 00000001800227c0 f i libucrtd:environment_initialization.obj
 0001:000217e0       ??B?$__crt_unique_heap_ptr@PEA_WU__crt_internal_free_policy@@@@QEBA_NXZ 00000001800227e0 f i libucrtd:environment_initialization.obj
 0001:00021800       ??B?$__crt_unique_heap_ptr@_WU__crt_internal_free_policy@@@@QEBA_NXZ 0000000180022800 f i libucrtd:environment_initialization.obj
 0001:00021820       ?__crt_compute_required_transform_buffer_count@@YA_KIQEBD@Z 0000000180022820 f i libucrtd:environment_initialization.obj
 0001:00021860       ?__crt_compute_required_transform_buffer_count@@YA_KIQEB_W@Z 0000000180022860 f i libucrtd:environment_initialization.obj
 0001:000218b0       ?__crt_transform_string@@YA_KIQEBDQEA_W_K@Z 00000001800228b0 f i libucrtd:environment_initialization.obj
 0001:00021900       ?__crt_transform_string@@YA_KIQEB_WQEAD_K@Z 0000000180022900 f i libucrtd:environment_initialization.obj
 0001:00021960       ?detach@?$__crt_unique_heap_ptr@DU__crt_internal_free_policy@@@@QEAAPEADXZ 0000000180022960 f i libucrtd:environment_initialization.obj
 0001:00021990       ?detach@?$__crt_unique_heap_ptr@_WU__crt_internal_free_policy@@@@QEAAPEA_WXZ 0000000180022990 f i libucrtd:environment_initialization.obj
 0001:000219c0       ?get@?$__crt_unique_heap_ptr@_WU__crt_internal_free_policy@@@@QEBAPEA_WXZ 00000001800229c0 f i libucrtd:environment_initialization.obj
 0001:000219d0       ?get_current_state_index@__crt_state_management@@YA_KXZ 00000001800229d0 f i libucrtd:environment_initialization.obj
 0001:00021a60       ?initialize@?$dual_state_global@PEAPEAD@__crt_state_management@@QEAAXQEAPEAD@Z 0000000180022a60 f i libucrtd:environment_initialization.obj
 0001:00021ab0       ?initialize@?$dual_state_global@PEAPEA_W@__crt_state_management@@QEAAXQEAPEA_W@Z 0000000180022ab0 f i libucrtd:environment_initialization.obj
 0001:00021b00       ?is_valid@?$__crt_unique_heap_ptr@PEADU__crt_internal_free_policy@@@@QEBA_NXZ 0000000180022b00 f i libucrtd:environment_initialization.obj
 0001:00021b30       ?is_valid@?$__crt_unique_heap_ptr@PEA_WU__crt_internal_free_policy@@@@QEBA_NXZ 0000000180022b30 f i libucrtd:environment_initialization.obj
 0001:00021b60       ?is_valid@?$__crt_unique_heap_ptr@_WU__crt_internal_free_policy@@@@QEBA_NXZ 0000000180022b60 f i libucrtd:environment_initialization.obj
 0001:00021bc0       ?release@?$__crt_unique_heap_ptr@_WU__crt_internal_free_policy@@@@QEAAXXZ 0000000180022bc0 f i libucrtd:environment_initialization.obj
 0001:00021bf0       ?value@?$dual_state_global@PEAPEAD@__crt_state_management@@QEAAAEAPEAPEADXZ 0000000180022bf0 f i libucrtd:environment_initialization.obj
 0001:00021c10       ?value@?$dual_state_global@PEAPEA_W@__crt_state_management@@QEAAAEAPEAPEA_WXZ 0000000180022c10 f i libucrtd:environment_initialization.obj
 0001:00021c30       __dcrt_get_or_create_narrow_environment_nolock 0000000180022c30 f   libucrtd:environment_initialization.obj
 0001:00021c40       __dcrt_get_or_create_wide_environment_nolock 0000000180022c40 f   libucrtd:environment_initialization.obj
 0001:00021c50       __dcrt_uninitialize_environments_nolock 0000000180022c50 f   libucrtd:environment_initialization.obj
 0001:00021ca0       __p__environ               0000000180022ca0 f   libucrtd:environment_initialization.obj
 0001:00021cc0       __p__wenviron              0000000180022cc0 f   libucrtd:environment_initialization.obj
 0001:00021ce0       _get_initial_narrow_environment 0000000180022ce0 f   libucrtd:environment_initialization.obj
 0001:00021cf0       _get_initial_wide_environment 0000000180022cf0 f   libucrtd:environment_initialization.obj
 0001:00021d00       _initialize_narrow_environment 0000000180022d00 f   libucrtd:environment_initialization.obj
 0001:00021d10       _initialize_wide_environment 0000000180022d10 f   libucrtd:environment_initialization.obj
 0001:00021d20       _invoke_watson_if_error    0000000180022d20 f i libucrtd:environment_initialization.obj
 0001:00021d70       ??$?B$$A6AXXZ@__crt_fast_encoded_nullptr_t@@QEBAP6AXXZXZ 0000000180022d70 f i libucrtd:onexit.obj
 0001:00021d90       ??$?BP6AXXZ@__crt_fast_encoded_nullptr_t@@QEBAPEAP6AXXZXZ 0000000180022d90 f i libucrtd:onexit.obj
 0001:00021db0       ??$?RP6AXXZ@__crt_internal_free_policy@@QEBAXQEBQ6AXXZ@Z 0000000180022db0 f i libucrtd:onexit.obj
 0001:00021f40       ??$__crt_fast_decode_pointer@P6AXXZ@@YAP6AXXZQ6AXXZ@Z 0000000180022f40 f i libucrtd:onexit.obj
 0001:00021f80       ??$__crt_fast_decode_pointer@PEAP6AXXZ@@YAPEAP6AXXZQEAP6AXXZ@Z 0000000180022f80 f i libucrtd:onexit.obj
 0001:00021fc0       ??$__crt_fast_encode_pointer@P6AHXZ@@YAP6AHXZQ6AHXZ@Z 0000000180022fc0 f i libucrtd:onexit.obj
 0001:00022000       ??$__crt_fast_encode_pointer@P6AXXZ@@YAP6AXXZQ6AXXZ@Z 0000000180023000 f i libucrtd:onexit.obj
 0001:00022040       ??$__crt_fast_encode_pointer@PEAP6AXXZ@@YAPEAP6AXXZQEAP6AXXZ@Z 0000000180023040 f i libucrtd:onexit.obj
 0001:00022150       ??0?$__crt_unique_heap_ptr@P6AXXZU__crt_internal_free_policy@@@@QEAA@QEAP6AXXZ@Z 0000000180023150 f i libucrtd:onexit.obj
 0001:00022170       ??1?$__crt_unique_heap_ptr@P6AXXZU__crt_internal_free_policy@@@@QEAA@XZ 0000000180023170 f i libucrtd:onexit.obj
 0001:00022190       ??1scoped_global_state_reset@__crt_state_management@@QEAA@XZ 0000000180023190 f i libucrtd:onexit.obj
 0001:00022790       ?detach@?$__crt_unique_heap_ptr@P6AXXZU__crt_internal_free_policy@@@@QEAAPEAP6AXXZXZ 0000000180023790 f i libucrtd:onexit.obj
 0001:000227c0       ?release@?$__crt_unique_heap_ptr@P6AXXZU__crt_internal_free_policy@@@@QEAAXXZ 00000001800237c0 f i libucrtd:onexit.obj
 0001:000227f0       _crt_at_quick_exit         00000001800237f0 f   libucrtd:onexit.obj
 0001:00022810       _crt_atexit                0000000180023810 f   libucrtd:onexit.obj
 0001:00022830       _execute_onexit_table      0000000180023830 f   libucrtd:onexit.obj
 0001:00022870       _initialize_onexit_table   0000000180023870 f   libucrtd:onexit.obj
 0001:000228f0       _register_onexit_function  00000001800238f0 f   libucrtd:onexit.obj
 0001:00022b70       ??$?BX@__crt_fast_encoded_nullptr_t@@QEBAPEAXXZ 0000000180023b70 f i libucrtd:initialization.obj
 0001:00022b90       ??$__crt_fast_encode_pointer@PEAX@@YAPEAXQEAX@Z 0000000180023b90 f i libucrtd:initialization.obj
 0001:00022c90       ?initialize@?$dual_state_global@PEAU__crt_locale_data@@@__crt_state_management@@QEAAXQEAU__crt_locale_data@@@Z 0000000180023c90 f i libucrtd:initialization.obj
 0001:00022ce0       __acrt_initialize          0000000180023ce0 f   libucrtd:initialization.obj
 0001:00022d10       __acrt_thread_attach       0000000180023d10 f   libucrtd:initialization.obj
 0001:00022d30       __acrt_thread_detach       0000000180023d30 f   libucrtd:initialization.obj
 0001:00022d40       __acrt_uninitialize        0000000180023d40 f   libucrtd:initialization.obj
 0001:00022d70       __acrt_uninitialize_critical 0000000180023d70 f   libucrtd:initialization.obj
 0001:00022dd0       _get_terminate             0000000180023dd0 f   libucrtd:terminate.obj
 0001:00022df0       set_terminate              0000000180023df0 f   libucrtd:terminate.obj
 0001:00022e30       terminate                  0000000180023e30 f   libucrtd:terminate.obj
 0001:00022e70       __p__crtDbgFlag            0000000180023e70 f   libucrtd:debug_heap.obj
 0001:00022e80       __p__crtBreakAlloc         0000000180023e80 f   libucrtd:debug_heap.obj
 0001:00022e90       _CrtGetAllocHook           0000000180023e90 f   libucrtd:debug_heap.obj
 0001:00022ea0       _CrtSetAllocHook           0000000180023ea0 f   libucrtd:debug_heap.obj
 0001:00022ed0       _CrtGetDumpClient          0000000180023ed0 f   libucrtd:debug_heap.obj
 0001:00022ee0       _CrtSetDumpClient          0000000180023ee0 f   libucrtd:debug_heap.obj
 0001:00022f10       _CrtCheckMemory            0000000180023f10 f   libucrtd:debug_heap.obj
 0001:000230b0       _CrtDoForAllClientObjects  00000001800240b0 f   libucrtd:debug_heap.obj
 0001:00023200       _CrtDumpMemoryLeaks        0000000180024200 f   libucrtd:debug_heap.obj
 0001:000232e0       _CrtIsMemoryBlock          00000001800242e0 f   libucrtd:debug_heap.obj
 0001:00023420       _CrtIsValidHeapPointer     0000000180024420 f   libucrtd:debug_heap.obj
 0001:00023470       _CrtIsValidPointer         0000000180024470 f   libucrtd:debug_heap.obj
 0001:000234b0       _CrtMemCheckpoint          00000001800244b0 f   libucrtd:debug_heap.obj
 0001:00023740       _CrtMemDifference          0000000180024740 f   libucrtd:debug_heap.obj
 0001:00023aa0       _CrtMemDumpAllObjectsSince 0000000180024aa0 f   libucrtd:debug_heap.obj
 0001:00023b00       _CrtMemDumpStatistics      0000000180024b00 f   libucrtd:debug_heap.obj
 0001:00023ca0       _CrtReportBlockType        0000000180024ca0 f   libucrtd:debug_heap.obj
 0001:00023ce0       _CrtSetBreakAlloc          0000000180024ce0 f   libucrtd:debug_heap.obj
 0001:00023d10       _CrtSetDbgFlag             0000000180024d10 f   libucrtd:debug_heap.obj
 0001:00023e70       _aligned_free_dbg          0000000180024e70 f   libucrtd:debug_heap.obj
 0001:00023f60       _aligned_malloc_dbg        0000000180024f60 f   libucrtd:debug_heap.obj
 0001:00023fb0       _aligned_msize_dbg         0000000180024fb0 f   libucrtd:debug_heap.obj
 0001:00024180       _aligned_offset_malloc_dbg 0000000180025180 f   libucrtd:debug_heap.obj
 0001:00024470       _aligned_offset_realloc_dbg 0000000180025470 f   libucrtd:debug_heap.obj
 0001:00024970       _aligned_offset_recalloc_dbg 0000000180025970 f   libucrtd:debug_heap.obj
 0001:00024a90       _aligned_realloc_dbg       0000000180025a90 f   libucrtd:debug_heap.obj
 0001:00024ae0       _aligned_recalloc_dbg      0000000180025ae0 f   libucrtd:debug_heap.obj
 0001:00024b40       _calloc_dbg                0000000180025b40 f   libucrtd:debug_heap.obj
 0001:00024be0       _expand_dbg                0000000180025be0 f   libucrtd:debug_heap.obj
 0001:00024d20       _free_dbg                  0000000180025d20 f   libucrtd:debug_heap.obj
 0001:00024d90       _malloc_dbg                0000000180025d90 f   libucrtd:debug_heap.obj
 0001:00024dd0       _msize_dbg                 0000000180025dd0 f   libucrtd:debug_heap.obj
 0001:00024f70       _realloc_dbg               0000000180025f70 f   libucrtd:debug_heap.obj
 0001:00024ff0       _recalloc_dbg              0000000180025ff0 f   libucrtd:debug_heap.obj
 0001:000268d0       _CrtSetDbgBlockType        00000001800278d0 f   libucrtd:debug_heap.obj
 0001:00027590       ??0_LocaleUpdate@@QEAA@QEAU__crt_locale_pointers@@@Z 0000000180028590 f i libucrtd:debug_heap.obj
 0001:000276b0       ??1_LocaleUpdate@@QEAA@XZ  00000001800286b0 f i libucrtd:debug_heap.obj
 0001:000276e0       ?GetLocaleT@_LocaleUpdate@@QEAAPEAU__crt_locale_pointers@@XZ 00000001800286e0 f i libucrtd:debug_heap.obj
 0001:000276f0       __acrt_disable_global_locale_sync 00000001800286f0 f i libucrtd:debug_heap.obj
 0001:00027720       __acrt_enable_global_locale_sync 0000000180028720 f i libucrtd:debug_heap.obj
 0001:00027750       __acrt_get_locale_data_prefix 0000000180028750 f i libucrtd:debug_heap.obj
 0001:00027770       __acrt_locale_changed      0000000180028770 f i libucrtd:debug_heap.obj
 0001:000277a0       _chvalidchk_l              00000001800287a0 f i libucrtd:debug_heap.obj
 0001:000277d0       _invoke_watson_if_oneof    00000001800287d0 f i libucrtd:debug_heap.obj
 0001:00027830       _ischartype_l              0000000180028830 f i libucrtd:debug_heap.obj
 0001:00027da0       strcpy_s                   0000000180028da0 f   libucrtd:strcpy_s.obj
 0001:00027dd0       _set_abort_behavior        0000000180028dd0 f   libucrtd:abort.obj
 0001:00027e10       abort                      0000000180028e10 f   libucrtd:abort.obj
 0001:00027e90       ??$__crt_fast_decode_pointer@P6AXPEB_W00I_K@Z@@YAP6AXPEB_W00I_K@ZQ6AX000I1@Z@Z 0000000180028e90 f i libucrtd:invalid_parameter.obj
 0001:00027ed0       ??$__crt_fast_encode_pointer@P6AXPEB_W00I_K@Z@@YAP6AXPEB_W00I_K@ZQ6AX000I1@Z@Z 0000000180028ed0 f i libucrtd:invalid_parameter.obj
 0001:00027f10       ??$initialize_from_array@$$BY00Q6AXPEB_W00I_K@Z@?$dual_state_global@P6AXPEB_W00I_K@Z@__crt_state_management@@QEAAXAEAY00Q6AXPEB_W00I_K@Z@Z 0000000180028f10 f i libucrtd:invalid_parameter.obj
 0001:00027f70       ??0?$cached@H@__crt_cached_ptd_host@@QEAA@XZ 0000000180028f70 f i libucrtd:invalid_parameter.obj
 0001:00027f90       ??0?$cached@K@__crt_cached_ptd_host@@QEAA@XZ 0000000180028f90 f i libucrtd:invalid_parameter.obj
 0001:00027fb0       ??0__crt_cached_ptd_host@@QEAA@QEAU__crt_locale_pointers@@@Z 0000000180028fb0 f i libucrtd:invalid_parameter.obj
 0001:00028070       ??0__crt_scoped_get_last_error_reset@@QEAA@XZ 0000000180029070 f i libucrtd:invalid_parameter.obj
 0001:00028090       ??1__crt_cached_ptd_host@@QEAA@XZ 0000000180029090 f i libucrtd:invalid_parameter.obj
 0001:00028140       ??1__crt_scoped_get_last_error_reset@@QEAA@XZ 0000000180029140 f i libucrtd:invalid_parameter.obj
 0001:00028220       ?check_synchronize_global_state_index@__crt_cached_ptd_host@@AEAA_KAEBV__crt_scoped_get_last_error_reset@@@Z 0000000180029220 f i libucrtd:invalid_parameter.obj
 0001:00028260       ?check_synchronize_global_state_index@__crt_cached_ptd_host@@AEAA_KXZ 0000000180029260 f i libucrtd:invalid_parameter.obj
 0001:000282c0       ?check_synchronize_per_thread_data@__crt_cached_ptd_host@@AEAAPEAU__acrt_ptd@@XZ 00000001800292c0 f i libucrtd:invalid_parameter.obj
 0001:00028300       ?dangerous_get_state_array@?$dual_state_global@P6AXPEB_W00I_K@Z@__crt_state_management@@QEAAPEAP6AXPEB_W00I_K@ZXZ 0000000180029300 f i libucrtd:invalid_parameter.obj
 0001:00028310       ?force_synchronize_global_state_index@__crt_cached_ptd_host@@AEAA_KAEBV__crt_scoped_get_last_error_reset@@@Z 0000000180029310 f i libucrtd:invalid_parameter.obj
 0001:00028350       ?force_synchronize_per_thread_data@__crt_cached_ptd_host@@AEAAPEAU__acrt_ptd@@XZ 0000000180029350 f i libucrtd:invalid_parameter.obj
 0001:000283b0       ?get_current_global_state_index@__crt_cached_ptd_host@@QEAA_KXZ 00000001800293b0 f i libucrtd:invalid_parameter.obj
 0001:000283d0       ?get_current_state_index@__crt_state_management@@YA_KAEBV__crt_scoped_get_last_error_reset@@@Z 00000001800293d0 f i libucrtd:invalid_parameter.obj
 0001:000283e0       ?get_raw_ptd@__crt_cached_ptd_host@@QEAAPEAU__acrt_ptd@@XZ 00000001800293e0 f i libucrtd:invalid_parameter.obj
 0001:00028400       ?get_raw_ptd_noexit@__crt_cached_ptd_host@@QEAAPEAU__acrt_ptd@@XZ 0000000180029400 f i libucrtd:invalid_parameter.obj
 0001:00028420       ?try_synchronize_per_thread_data@__crt_cached_ptd_host@@AEAAPEAU__acrt_ptd@@XZ 0000000180029420 f i libucrtd:invalid_parameter.obj
 0001:00028450       ?unsafe_value@?$cached@H@__crt_cached_ptd_host@@QEAAHXZ 0000000180029450 f i libucrtd:invalid_parameter.obj
 0001:00028460       ?unsafe_value@?$cached@K@__crt_cached_ptd_host@@QEAAKXZ 0000000180029460 f i libucrtd:invalid_parameter.obj
 0001:00028470       ?valid@?$cached@H@__crt_cached_ptd_host@@QEBA_NXZ 0000000180029470 f i libucrtd:invalid_parameter.obj
 0001:00028480       ?valid@?$cached@K@__crt_cached_ptd_host@@QEBA_NXZ 0000000180029480 f i libucrtd:invalid_parameter.obj
 0001:00028490       ?value@?$dual_state_global@P6AXPEB_W00I_K@Z@__crt_state_management@@QEAAAEAP6AXPEB_W00I_K@ZAEAV__crt_cached_ptd_host@@@Z 0000000180029490 f i libucrtd:invalid_parameter.obj
 0001:000284c0       ?value@?$dual_state_global@P6AXPEB_W00I_K@Z@__crt_state_management@@QEAAAEAP6AXPEB_W00I_K@ZXZ 00000001800294c0 f i libucrtd:invalid_parameter.obj
 0001:000284e0       __acrt_call_reportfault    00000001800294e0 f   libucrtd:invalid_parameter.obj
 0001:00028610       __acrt_initialize_invalid_parameter_handler 0000000180029610 f   libucrtd:invalid_parameter.obj
 0001:00028640       _get_invalid_parameter_handler 0000000180029640 f   libucrtd:invalid_parameter.obj
 0001:00028660       _get_thread_local_invalid_parameter_handler 0000000180029660 f   libucrtd:invalid_parameter.obj
 0001:00028690       _invalid_parameter         0000000180029690 f   libucrtd:invalid_parameter.obj
 0001:00028700       _invalid_parameter_internal 0000000180029700 f   libucrtd:invalid_parameter.obj
 0001:00028840       _invalid_parameter_noinfo  0000000180029840 f   libucrtd:invalid_parameter.obj
 0001:00028870       _invalid_parameter_noinfo_noreturn 0000000180029870 f   libucrtd:invalid_parameter.obj
 0001:000288b0       _invoke_watson             00000001800298b0 f   libucrtd:invalid_parameter.obj
 0001:00028910       _set_invalid_parameter_handler 0000000180029910 f   libucrtd:invalid_parameter.obj
 0001:00028960       _set_thread_local_invalid_parameter_handler 0000000180029960 f   libucrtd:invalid_parameter.obj
 0001:000289a0       ??$?0AEBV?$stream_output_adapter@D@__crt_stdio_output@@AEB_KAEBQEBDAEAV__crt_cached_ptd_host@@AEBQEAD@?$format_validation_base@DV?$stream_output_adapter@D@__crt_stdio_output@@@__crt_stdio_output@@IEAA@AEBV?$stream_output_adapter@D@1@AEB_KAEBQEBDAEAV__crt_cached_ptd_host@@AEBQEAD@Z 00000001800299a0 f i libucrtd:output.obj
 0001:000289f0       ??$?0AEBV?$stream_output_adapter@D@__crt_stdio_output@@AEB_KAEBQEBDAEAV__crt_cached_ptd_host@@AEBQEAD@?$positional_parameter_base@DV?$stream_output_adapter@D@__crt_stdio_output@@@__crt_stdio_output@@IEAA@AEBV?$stream_output_adapter@D@1@AEB_KAEBQEBDAEAV__crt_cached_ptd_host@@AEBQEAD@Z 00000001800299f0 f i libucrtd:output.obj
 0001:00028a90       ??$?0AEBV?$stream_output_adapter@D@__crt_stdio_output@@AEB_KAEBQEBDAEAV__crt_cached_ptd_host@@AEBQEAD@?$standard_base@DV?$stream_output_adapter@D@__crt_stdio_output@@@__crt_stdio_output@@IEAA@AEBV?$stream_output_adapter@D@1@AEB_KAEBQEBDAEAV__crt_cached_ptd_host@@AEBQEAD@Z 0000000180029a90 f i libucrtd:output.obj
 0001:00028b00       ??$?0AEBV?$stream_output_adapter@_W@__crt_stdio_output@@AEB_KAEBQEB_WAEAV__crt_cached_ptd_host@@AEBQEAD@?$format_validation_base@_WV?$stream_output_adapter@_W@__crt_stdio_output@@@__crt_stdio_output@@IEAA@AEBV?$stream_output_adapter@_W@1@AEB_KAEBQEB_WAEAV__crt_cached_ptd_host@@AEBQEAD@Z 0000000180029b00 f i libucrtd:output.obj
 0001:00028b50       ??$?0AEBV?$stream_output_adapter@_W@__crt_stdio_output@@AEB_KAEBQEB_WAEAV__crt_cached_ptd_host@@AEBQEAD@?$positional_parameter_base@_WV?$stream_output_adapter@_W@__crt_stdio_output@@@__crt_stdio_output@@IEAA@AEBV?$stream_output_adapter@_W@1@AEB_KAEBQEB_WAEAV__crt_cached_ptd_host@@AEBQEAD@Z 0000000180029b50 f i libucrtd:output.obj
 0001:00028bf0       ??$?0AEBV?$stream_output_adapter@_W@__crt_stdio_output@@AEB_KAEBQEB_WAEAV__crt_cached_ptd_host@@AEBQEAD@?$standard_base@_WV?$stream_output_adapter@_W@__crt_stdio_output@@@__crt_stdio_output@@IEAA@AEBV?$stream_output_adapter@_W@1@AEB_KAEBQEB_WAEAV__crt_cached_ptd_host@@AEBQEAD@Z 0000000180029bf0 f i libucrtd:output.obj
 0001:00028c60       ??$?0AEBV?$string_output_adapter@D@__crt_stdio_output@@AEB_KAEBQEBDAEAV__crt_cached_ptd_host@@AEBQEAD@?$format_validation_base@DV?$string_output_adapter@D@__crt_stdio_output@@@__crt_stdio_output@@IEAA@AEBV?$string_output_adapter@D@1@AEB_KAEBQEBDAEAV__crt_cached_ptd_host@@AEBQEAD@Z 0000000180029c60 f i libucrtd:output.obj
 0001:00028cb0       ??$?0AEBV?$string_output_adapter@D@__crt_stdio_output@@AEB_KAEBQEBDAEAV__crt_cached_ptd_host@@AEBQEAD@?$positional_parameter_base@DV?$string_output_adapter@D@__crt_stdio_output@@@__crt_stdio_output@@IEAA@AEBV?$string_output_adapter@D@1@AEB_KAEBQEBDAEAV__crt_cached_ptd_host@@AEBQEAD@Z 0000000180029cb0 f i libucrtd:output.obj
 0001:00028d50       ??$?0AEBV?$string_output_adapter@D@__crt_stdio_output@@AEB_KAEBQEBDAEAV__crt_cached_ptd_host@@AEBQEAD@?$standard_base@DV?$string_output_adapter@D@__crt_stdio_output@@@__crt_stdio_output@@IEAA@AEBV?$string_output_adapter@D@1@AEB_KAEBQEBDAEAV__crt_cached_ptd_host@@AEBQEAD@Z 0000000180029d50 f i libucrtd:output.obj
 0001:00028dc0       ??$?0AEBV?$string_output_adapter@_W@__crt_stdio_output@@AEB_KAEBQEB_WAEAV__crt_cached_ptd_host@@AEBQEAD@?$format_validation_base@_WV?$string_output_adapter@_W@__crt_stdio_output@@@__crt_stdio_output@@IEAA@AEBV?$string_output_adapter@_W@1@AEB_KAEBQEB_WAEAV__crt_cached_ptd_host@@AEBQEAD@Z 0000000180029dc0 f i libucrtd:output.obj
 0001:00028e10       ??$?0AEBV?$string_output_adapter@_W@__crt_stdio_output@@AEB_KAEBQEB_WAEAV__crt_cached_ptd_host@@AEBQEAD@?$positional_parameter_base@_WV?$string_output_adapter@_W@__crt_stdio_output@@@__crt_stdio_output@@IEAA@AEBV?$string_output_adapter@_W@1@AEB_KAEBQEB_WAEAV__crt_cached_ptd_host@@AEBQEAD@Z 0000000180029e10 f i libucrtd:output.obj
 0001:00028eb0       ??$?0AEBV?$string_output_adapter@_W@__crt_stdio_output@@AEB_KAEBQEB_WAEAV__crt_cached_ptd_host@@AEBQEAD@?$standard_base@_WV?$string_output_adapter@_W@__crt_stdio_output@@@__crt_stdio_output@@IEAA@AEBV?$string_output_adapter@_W@1@AEB_KAEBQEB_WAEAV__crt_cached_ptd_host@@AEBQEAD@Z 0000000180029eb0 f i libucrtd:output.obj
 0001:00029340       ??$_tcstol_internal@DPEAPEAD$0A@@@YAJAEAV__crt_cached_ptd_host@@QEBDQEAPEADH@Z 000000018002a340 f i libucrtd:output.obj
 0001:00029390       ??$_tcstol_internal@_WPEAPEA_W$0A@@@YAJAEAV__crt_cached_ptd_host@@QEB_WQEAPEA_WH@Z 000000018002a390 f i libucrtd:output.obj
 0001:0002d3b0       ??$count@D@formatting_buffer@__crt_stdio_output@@QEBA_KXZ 000000018002e3b0 f i libucrtd:output.obj
 0001:0002d400       ??$count@_W@formatting_buffer@__crt_stdio_output@@QEBA_KXZ 000000018002e400 f i libucrtd:output.obj
 0001:0002d450       ??$data@D@formatting_buffer@__crt_stdio_output@@QEAAPEADXZ 000000018002e450 f i libucrtd:output.obj
 0001:0002d4a0       ??$data@_W@formatting_buffer@__crt_stdio_output@@QEAAPEA_WXZ 000000018002e4a0 f i libucrtd:output.obj
 0001:0002d4f0       ??$ensure_buffer_is_big_enough@D@formatting_buffer@__crt_stdio_output@@QEAA_N_KAEAV__crt_cached_ptd_host@@@Z 000000018002e4f0 f i libucrtd:output.obj
 0001:0002d630       ??$ensure_buffer_is_big_enough@_W@formatting_buffer@__crt_stdio_output@@QEAA_N_KAEAV__crt_cached_ptd_host@@@Z 000000018002e630 f i libucrtd:output.obj
 0001:0002d770       ??$extract_argument_from_va_list@C_J@?$positional_parameter_base@DV?$stream_output_adapter@D@__crt_stdio_output@@@__crt_stdio_output@@IEAA_NAEA_J@Z 000000018002e770 f i libucrtd:output.obj
 0001:0002d930       ??$extract_argument_from_va_list@C_J@?$positional_parameter_base@DV?$string_output_adapter@D@__crt_stdio_output@@@__crt_stdio_output@@IEAA_NAEA_J@Z 000000018002e930 f i libucrtd:output.obj
 0001:0002daf0       ??$extract_argument_from_va_list@C_J@?$positional_parameter_base@_WV?$stream_output_adapter@_W@__crt_stdio_output@@@__crt_stdio_output@@IEAA_NAEA_J@Z 000000018002eaf0 f i libucrtd:output.obj
 0001:0002dcb0       ??$extract_argument_from_va_list@C_J@?$positional_parameter_base@_WV?$string_output_adapter@_W@__crt_stdio_output@@@__crt_stdio_output@@IEAA_NAEA_J@Z 000000018002ecb0 f i libucrtd:output.obj
 0001:0002de70       ??$extract_argument_from_va_list@C_J@?$standard_base@DV?$stream_output_adapter@D@__crt_stdio_output@@@__crt_stdio_output@@IEAA_NAEA_J@Z 000000018002ee70 f i libucrtd:output.obj
 0001:0002deb0       ??$extract_argument_from_va_list@C_J@?$standard_base@DV?$string_output_adapter@D@__crt_stdio_output@@@__crt_stdio_output@@IEAA_NAEA_J@Z 000000018002eeb0 f i libucrtd:output.obj
 0001:0002def0       ??$extract_argument_from_va_list@C_J@?$standard_base@_WV?$stream_output_adapter@_W@__crt_stdio_output@@@__crt_stdio_output@@IEAA_NAEA_J@Z 000000018002eef0 f i libucrtd:output.obj
 0001:0002df30       ??$extract_argument_from_va_list@C_J@?$standard_base@_WV?$string_output_adapter@_W@__crt_stdio_output@@@__crt_stdio_output@@IEAA_NAEA_J@Z 000000018002ef30 f i libucrtd:output.obj
 0001:0002df70       ??$extract_argument_from_va_list@E_J@?$positional_parameter_base@DV?$stream_output_adapter@D@__crt_stdio_output@@@__crt_stdio_output@@IEAA_NAEA_J@Z 000000018002ef70 f i libucrtd:output.obj
 0001:0002e130       ??$extract_argument_from_va_list@E_J@?$positional_parameter_base@DV?$string_output_adapter@D@__crt_stdio_output@@@__crt_stdio_output@@IEAA_NAEA_J@Z 000000018002f130 f i libucrtd:output.obj
 0001:0002e2f0       ??$extract_argument_from_va_list@E_J@?$positional_parameter_base@_WV?$stream_output_adapter@_W@__crt_stdio_output@@@__crt_stdio_output@@IEAA_NAEA_J@Z 000000018002f2f0 f i libucrtd:output.obj
 0001:0002e4b0       ??$extract_argument_from_va_list@E_J@?$positional_parameter_base@_WV?$string_output_adapter@_W@__crt_stdio_output@@@__crt_stdio_output@@IEAA_NAEA_J@Z 000000018002f4b0 f i libucrtd:output.obj
 0001:0002e670       ??$extract_argument_from_va_list@E_J@?$standard_base@DV?$stream_output_adapter@D@__crt_stdio_output@@@__crt_stdio_output@@IEAA_NAEA_J@Z 000000018002f670 f i libucrtd:output.obj
 0001:0002e6b0       ??$extract_argument_from_va_list@E_J@?$standard_base@DV?$string_output_adapter@D@__crt_stdio_output@@@__crt_stdio_output@@IEAA_NAEA_J@Z 000000018002f6b0 f i libucrtd:output.obj
 0001:0002e6f0       ??$extract_argument_from_va_list@E_J@?$standard_base@_WV?$stream_output_adapter@_W@__crt_stdio_output@@@__crt_stdio_output@@IEAA_NAEA_J@Z 000000018002f6f0 f i libucrtd:output.obj
 0001:0002e730       ??$extract_argument_from_va_list@E_J@?$standard_base@_WV?$string_output_adapter@_W@__crt_stdio_output@@@__crt_stdio_output@@IEAA_NAEA_J@Z 000000018002f730 f i libucrtd:output.obj
 0001:0002e770       ??$extract_argument_from_va_list@F_J@?$positional_parameter_base@DV?$stream_output_adapter@D@__crt_stdio_output@@@__crt_stdio_output@@IEAA_NAEA_J@Z 000000018002f770 f i libucrtd:output.obj
 0001:0002e930       ??$extract_argument_from_va_list@F_J@?$positional_parameter_base@DV?$string_output_adapter@D@__crt_stdio_output@@@__crt_stdio_output@@IEAA_NAEA_J@Z 000000018002f930 f i libucrtd:output.obj
 0001:0002eaf0       ??$extract_argument_from_va_list@F_J@?$positional_parameter_base@_WV?$stream_output_adapter@_W@__crt_stdio_output@@@__crt_stdio_output@@IEAA_NAEA_J@Z 000000018002faf0 f i libucrtd:output.obj
 0001:0002ecb0       ??$extract_argument_from_va_list@F_J@?$positional_parameter_base@_WV?$string_output_adapter@_W@__crt_stdio_output@@@__crt_stdio_output@@IEAA_NAEA_J@Z 000000018002fcb0 f i libucrtd:output.obj
 0001:0002ee70       ??$extract_argument_from_va_list@F_J@?$standard_base@DV?$stream_output_adapter@D@__crt_stdio_output@@@__crt_stdio_output@@IEAA_NAEA_J@Z 000000018002fe70 f i libucrtd:output.obj
 0001:0002eeb0       ??$extract_argument_from_va_list@F_J@?$standard_base@DV?$string_output_adapter@D@__crt_stdio_output@@@__crt_stdio_output@@IEAA_NAEA_J@Z 000000018002feb0 f i libucrtd:output.obj
 0001:0002eef0       ??$extract_argument_from_va_list@F_J@?$standard_base@_WV?$stream_output_adapter@_W@__crt_stdio_output@@@__crt_stdio_output@@IEAA_NAEA_J@Z 000000018002fef0 f i libucrtd:output.obj
 0001:0002ef30       ??$extract_argument_from_va_list@F_J@?$standard_base@_WV?$string_output_adapter@_W@__crt_stdio_output@@@__crt_stdio_output@@IEAA_NAEA_J@Z 000000018002ff30 f i libucrtd:output.obj
 0001:0002ef70       ??$extract_argument_from_va_list@GD@?$positional_parameter_base@DV?$stream_output_adapter@D@__crt_stdio_output@@@__crt_stdio_output@@IEAA_NAEAD@Z 000000018002ff70 f i libucrtd:output.obj
 0001:0002f130       ??$extract_argument_from_va_list@GD@?$positional_parameter_base@DV?$string_output_adapter@D@__crt_stdio_output@@@__crt_stdio_output@@IEAA_NAEAD@Z 0000000180030130 f i libucrtd:output.obj
 0001:0002f2f0       ??$extract_argument_from_va_list@GD@?$standard_base@DV?$stream_output_adapter@D@__crt_stdio_output@@@__crt_stdio_output@@IEAA_NAEAD@Z 00000001800302f0 f i libucrtd:output.obj
 0001:0002f320       ??$extract_argument_from_va_list@GD@?$standard_base@DV?$string_output_adapter@D@__crt_stdio_output@@@__crt_stdio_output@@IEAA_NAEAD@Z 0000000180030320 f i libucrtd:output.obj
 0001:0002f350       ??$extract_argument_from_va_list@G_J@?$positional_parameter_base@DV?$stream_output_adapter@D@__crt_stdio_output@@@__crt_stdio_output@@IEAA_NAEA_J@Z 0000000180030350 f i libucrtd:output.obj
 0001:0002f510       ??$extract_argument_from_va_list@G_J@?$positional_parameter_base@DV?$string_output_adapter@D@__crt_stdio_output@@@__crt_stdio_output@@IEAA_NAEA_J@Z 0000000180030510 f i libucrtd:output.obj
 0001:0002f6d0       ??$extract_argument_from_va_list@G_J@?$positional_parameter_base@_WV?$stream_output_adapter@_W@__crt_stdio_output@@@__crt_stdio_output@@IEAA_NAEA_J@Z 00000001800306d0 f i libucrtd:output.obj
 0001:0002f890       ??$extract_argument_from_va_list@G_J@?$positional_parameter_base@_WV?$string_output_adapter@_W@__crt_stdio_output@@@__crt_stdio_output@@IEAA_NAEA_J@Z 0000000180030890 f i libucrtd:output.obj
 0001:0002fa50       ??$extract_argument_from_va_list@G_J@?$standard_base@DV?$stream_output_adapter@D@__crt_stdio_output@@@__crt_stdio_output@@IEAA_NAEA_J@Z 0000000180030a50 f i libucrtd:output.obj
 0001:0002fa90       ??$extract_argument_from_va_list@G_J@?$standard_base@DV?$string_output_adapter@D@__crt_stdio_output@@@__crt_stdio_output@@IEAA_NAEA_J@Z 0000000180030a90 f i libucrtd:output.obj
 0001:0002fad0       ??$extract_argument_from_va_list@G_J@?$standard_base@_WV?$stream_output_adapter@_W@__crt_stdio_output@@@__crt_stdio_output@@IEAA_NAEA_J@Z 0000000180030ad0 f i libucrtd:output.obj
 0001:0002fb10       ??$extract_argument_from_va_list@G_J@?$standard_base@_WV?$string_output_adapter@_W@__crt_stdio_output@@@__crt_stdio_output@@IEAA_NAEA_J@Z 0000000180030b10 f i libucrtd:output.obj
 0001:0002fb50       ??$extract_argument_from_va_list@H_J@?$positional_parameter_base@DV?$stream_output_adapter@D@__crt_stdio_output@@@__crt_stdio_output@@IEAA_NAEA_J@Z 0000000180030b50 f i libucrtd:output.obj
 0001:0002fd10       ??$extract_argument_from_va_list@H_J@?$positional_parameter_base@DV?$string_output_adapter@D@__crt_stdio_output@@@__crt_stdio_output@@IEAA_NAEA_J@Z 0000000180030d10 f i libucrtd:output.obj
 0001:0002fed0       ??$extract_argument_from_va_list@H_J@?$positional_parameter_base@_WV?$stream_output_adapter@_W@__crt_stdio_output@@@__crt_stdio_output@@IEAA_NAEA_J@Z 0000000180030ed0 f i libucrtd:output.obj
 0001:00030090       ??$extract_argument_from_va_list@H_J@?$positional_parameter_base@_WV?$string_output_adapter@_W@__crt_stdio_output@@@__crt_stdio_output@@IEAA_NAEA_J@Z 0000000180031090 f i libucrtd:output.obj
 0001:00030250       ??$extract_argument_from_va_list@H_J@?$standard_base@DV?$stream_output_adapter@D@__crt_stdio_output@@@__crt_stdio_output@@IEAA_NAEA_J@Z 0000000180031250 f i libucrtd:output.obj
 0001:00030280       ??$extract_argument_from_va_list@H_J@?$standard_base@DV?$string_output_adapter@D@__crt_stdio_output@@@__crt_stdio_output@@IEAA_NAEA_J@Z 0000000180031280 f i libucrtd:output.obj
 0001:000302b0       ??$extract_argument_from_va_list@H_J@?$standard_base@_WV?$stream_output_adapter@_W@__crt_stdio_output@@@__crt_stdio_output@@IEAA_NAEA_J@Z 00000001800312b0 f i libucrtd:output.obj
 0001:000302e0       ??$extract_argument_from_va_list@H_J@?$standard_base@_WV?$string_output_adapter@_W@__crt_stdio_output@@@__crt_stdio_output@@IEAA_NAEA_J@Z 00000001800312e0 f i libucrtd:output.obj
 0001:00030310       ??$extract_argument_from_va_list@I_J@?$positional_parameter_base@DV?$stream_output_adapter@D@__crt_stdio_output@@@__crt_stdio_output@@IEAA_NAEA_J@Z 0000000180031310 f i libucrtd:output.obj
 0001:000304d0       ??$extract_argument_from_va_list@I_J@?$positional_parameter_base@DV?$string_output_adapter@D@__crt_stdio_output@@@__crt_stdio_output@@IEAA_NAEA_J@Z 00000001800314d0 f i libucrtd:output.obj
 0001:00030690       ??$extract_argument_from_va_list@I_J@?$positional_parameter_base@_WV?$stream_output_adapter@_W@__crt_stdio_output@@@__crt_stdio_output@@IEAA_NAEA_J@Z 0000000180031690 f i libucrtd:output.obj
 0001:00030850       ??$extract_argument_from_va_list@I_J@?$positional_parameter_base@_WV?$string_output_adapter@_W@__crt_stdio_output@@@__crt_stdio_output@@IEAA_NAEA_J@Z 0000000180031850 f i libucrtd:output.obj
 0001:00030a10       ??$extract_argument_from_va_list@I_J@?$standard_base@DV?$stream_output_adapter@D@__crt_stdio_output@@@__crt_stdio_output@@IEAA_NAEA_J@Z 0000000180031a10 f i libucrtd:output.obj
 0001:00030a40       ??$extract_argument_from_va_list@I_J@?$standard_base@DV?$string_output_adapter@D@__crt_stdio_output@@@__crt_stdio_output@@IEAA_NAEA_J@Z 0000000180031a40 f i libucrtd:output.obj
 0001:00030a70       ??$extract_argument_from_va_list@I_J@?$standard_base@_WV?$stream_output_adapter@_W@__crt_stdio_output@@@__crt_stdio_output@@IEAA_NAEA_J@Z 0000000180031a70 f i libucrtd:output.obj
 0001:00030aa0       ??$extract_argument_from_va_list@I_J@?$standard_base@_WV?$string_output_adapter@_W@__crt_stdio_output@@@__crt_stdio_output@@IEAA_NAEA_J@Z 0000000180031aa0 f i libucrtd:output.obj
 0001:00030ad0       ??$extract_argument_from_va_list@PEADPEAD@?$positional_parameter_base@DV?$stream_output_adapter@D@__crt_stdio_output@@@__crt_stdio_output@@IEAA_NAEAPEAD@Z 0000000180031ad0 f i libucrtd:output.obj
 0001:00030c90       ??$extract_argument_from_va_list@PEADPEAD@?$positional_parameter_base@DV?$string_output_adapter@D@__crt_stdio_output@@@__crt_stdio_output@@IEAA_NAEAPEAD@Z 0000000180031c90 f i libucrtd:output.obj
 0001:00030e50       ??$extract_argument_from_va_list@PEADPEAD@?$positional_parameter_base@_WV?$stream_output_adapter@_W@__crt_stdio_output@@@__crt_stdio_output@@IEAA_NAEAPEAD@Z 0000000180031e50 f i libucrtd:output.obj
 0001:00031010       ??$extract_argument_from_va_list@PEADPEAD@?$positional_parameter_base@_WV?$string_output_adapter@_W@__crt_stdio_output@@@__crt_stdio_output@@IEAA_NAEAPEAD@Z 0000000180032010 f i libucrtd:output.obj
 0001:000311d0       ??$extract_argument_from_va_list@PEADPEAD@?$standard_base@DV?$stream_output_adapter@D@__crt_stdio_output@@@__crt_stdio_output@@IEAA_NAEAPEAD@Z 00000001800321d0 f i libucrtd:output.obj
 0001:00031200       ??$extract_argument_from_va_list@PEADPEAD@?$standard_base@DV?$string_output_adapter@D@__crt_stdio_output@@@__crt_stdio_output@@IEAA_NAEAPEAD@Z 0000000180032200 f i libucrtd:output.obj
 0001:00031230       ??$extract_argument_from_va_list@PEADPEAD@?$standard_base@_WV?$stream_output_adapter@_W@__crt_stdio_output@@@__crt_stdio_output@@IEAA_NAEAPEAD@Z 0000000180032230 f i libucrtd:output.obj
 0001:00031260       ??$extract_argument_from_va_list@PEADPEAD@?$standard_base@_WV?$string_output_adapter@_W@__crt_stdio_output@@@__crt_stdio_output@@IEAA_NAEAPEAD@Z 0000000180032260 f i libucrtd:output.obj
 0001:00031290       ??$extract_argument_from_va_list@PEAUansi_string@?1??type_case_Z@?$output_processor@DV?$stream_output_adapter@D@__crt_stdio_output@@V?$format_validation_base@DV?$stream_output_adapter@D@__crt_stdio_output@@@2@@__crt_stdio_output@@AEAA_NXZ@PEAU1?1??234@AEAA_NXZ@@?$standard_base@DV?$stream_output_adapter@D@__crt_stdio_output@@@__crt_stdio_output@@IEAA_NAEAPEAUansi_string@?1??type_case_Z@?$output_processor@DV?$stream_output_adapter@D@__crt_stdio_output@@V?$format_validation_base@DV?$stream_output_adapter@D@__crt_stdio_output@@@2@@1@AEAA_NXZ@@Z 0000000180032290 f i libucrtd:output.obj
 0001:000312c0       ??$extract_argument_from_va_list@PEAUansi_string@?1??type_case_Z@?$output_processor@DV?$stream_output_adapter@D@__crt_stdio_output@@V?$positional_parameter_base@DV?$stream_output_adapter@D@__crt_stdio_output@@@2@@__crt_stdio_output@@AEAA_NXZ@PEAU1?1??234@AEAA_NXZ@@?$positional_parameter_base@DV?$stream_output_adapter@D@__crt_stdio_output@@@__crt_stdio_output@@IEAA_NAEAPEAUansi_string@?1??type_case_Z@?$output_processor@DV?$stream_output_adapter@D@__crt_stdio_output@@V?$positional_parameter_base@DV?$stream_output_adapter@D@__crt_stdio_output@@@2@@1@AEAA_NXZ@@Z 00000001800322c0 f i libucrtd:output.obj
 0001:00031480       ??$extract_argument_from_va_list@PEAUansi_string@?1??type_case_Z@?$output_processor@DV?$stream_output_adapter@D@__crt_stdio_output@@V?$positional_parameter_base@DV?$stream_output_adapter@D@__crt_stdio_output@@@2@@__crt_stdio_output@@AEAA_NXZ@PEAU1?1??234@AEAA_NXZ@@?$standard_base@DV?$stream_output_adapter@D@__crt_stdio_output@@@__crt_stdio_output@@IEAA_NAEAPEAUansi_string@?1??type_case_Z@?$output_processor@DV?$stream_output_adapter@D@__crt_stdio_output@@V?$positional_parameter_base@DV?$stream_output_adapter@D@__crt_stdio_output@@@2@@1@AEAA_NXZ@@Z 0000000180032480 f i libucrtd:output.obj
 0001:000314b0       ??$extract_argument_from_va_list@PEAUansi_string@?1??type_case_Z@?$output_processor@DV?$stream_output_adapter@D@__crt_stdio_output@@V?$standard_base@DV?$stream_output_adapter@D@__crt_stdio_output@@@2@@__crt_stdio_output@@AEAA_NXZ@PEAU1?1??234@AEAA_NXZ@@?$standard_base@DV?$stream_output_adapter@D@__crt_stdio_output@@@__crt_stdio_output@@IEAA_NAEAPEAUansi_string@?1??type_case_Z@?$output_processor@DV?$stream_output_adapter@D@__crt_stdio_output@@V?$standard_base@DV?$stream_output_adapter@D@__crt_stdio_output@@@2@@1@AEAA_NXZ@@Z 00000001800324b0 f i libucrtd:output.obj
 0001:000314e0       ??$extract_argument_from_va_list@PEAUansi_string@?1??type_case_Z@?$output_processor@DV?$string_output_adapter@D@__crt_stdio_output@@V?$format_validation_base@DV?$string_output_adapter@D@__crt_stdio_output@@@2@@__crt_stdio_output@@AEAA_NXZ@PEAU1?1??234@AEAA_NXZ@@?$standard_base@DV?$string_output_adapter@D@__crt_stdio_output@@@__crt_stdio_output@@IEAA_NAEAPEAUansi_string@?1??type_case_Z@?$output_processor@DV?$string_output_adapter@D@__crt_stdio_output@@V?$format_validation_base@DV?$string_output_adapter@D@__crt_stdio_output@@@2@@1@AEAA_NXZ@@Z 00000001800324e0 f i libucrtd:output.obj
 0001:00031510       ??$extract_argument_from_va_list@PEAUansi_string@?1??type_case_Z@?$output_processor@DV?$string_output_adapter@D@__crt_stdio_output@@V?$positional_parameter_base@DV?$string_output_adapter@D@__crt_stdio_output@@@2@@__crt_stdio_output@@AEAA_NXZ@PEAU1?1??234@AEAA_NXZ@@?$positional_parameter_base@DV?$string_output_adapter@D@__crt_stdio_output@@@__crt_stdio_output@@IEAA_NAEAPEAUansi_string@?1??type_case_Z@?$output_processor@DV?$string_output_adapter@D@__crt_stdio_output@@V?$positional_parameter_base@DV?$string_output_adapter@D@__crt_stdio_output@@@2@@1@AEAA_NXZ@@Z 0000000180032510 f i libucrtd:output.obj
 0001:000316d0       ??$extract_argument_from_va_list@PEAUansi_string@?1??type_case_Z@?$output_processor@DV?$string_output_adapter@D@__crt_stdio_output@@V?$positional_parameter_base@DV?$string_output_adapter@D@__crt_stdio_output@@@2@@__crt_stdio_output@@AEAA_NXZ@PEAU1?1??234@AEAA_NXZ@@?$standard_base@DV?$string_output_adapter@D@__crt_stdio_output@@@__crt_stdio_output@@IEAA_NAEAPEAUansi_string@?1??type_case_Z@?$output_processor@DV?$string_output_adapter@D@__crt_stdio_output@@V?$positional_parameter_base@DV?$string_output_adapter@D@__crt_stdio_output@@@2@@1@AEAA_NXZ@@Z 00000001800326d0 f i libucrtd:output.obj
 0001:00031700       ??$extract_argument_from_va_list@PEAUansi_string@?1??type_case_Z@?$output_processor@DV?$string_output_adapter@D@__crt_stdio_output@@V?$standard_base@DV?$string_output_adapter@D@__crt_stdio_output@@@2@@__crt_stdio_output@@AEAA_NXZ@PEAU1?1??234@AEAA_NXZ@@?$standard_base@DV?$string_output_adapter@D@__crt_stdio_output@@@__crt_stdio_output@@IEAA_NAEAPEAUansi_string@?1??type_case_Z@?$output_processor@DV?$string_output_adapter@D@__crt_stdio_output@@V?$standard_base@DV?$string_output_adapter@D@__crt_stdio_output@@@2@@1@AEAA_NXZ@@Z 0000000180032700 f i libucrtd:output.obj
 0001:00031730       ??$extract_argument_from_va_list@PEAUansi_string@?1??type_case_Z@?$output_processor@_WV?$stream_output_adapter@_W@__crt_stdio_output@@V?$format_validation_base@_WV?$stream_output_adapter@_W@__crt_stdio_output@@@2@@__crt_stdio_output@@AEAA_NXZ@PEAU1?1??234@AEAA_NXZ@@?$standard_base@_WV?$stream_output_adapter@_W@__crt_stdio_output@@@__crt_stdio_output@@IEAA_NAEAPEAUansi_string@?1??type_case_Z@?$output_processor@_WV?$stream_output_adapter@_W@__crt_stdio_output@@V?$format_validation_base@_WV?$stream_output_adapter@_W@__crt_stdio_output@@@2@@1@AEAA_NXZ@@Z 0000000180032730 f i libucrtd:output.obj
 0001:00031760       ??$extract_argument_from_va_list@PEAUansi_string@?1??type_case_Z@?$output_processor@_WV?$stream_output_adapter@_W@__crt_stdio_output@@V?$positional_parameter_base@_WV?$stream_output_adapter@_W@__crt_stdio_output@@@2@@__crt_stdio_output@@AEAA_NXZ@PEAU1?1??234@AEAA_NXZ@@?$positional_parameter_base@_WV?$stream_output_adapter@_W@__crt_stdio_output@@@__crt_stdio_output@@IEAA_NAEAPEAUansi_string@?1??type_case_Z@?$output_processor@_WV?$stream_output_adapter@_W@__crt_stdio_output@@V?$positional_parameter_base@_WV?$stream_output_adapter@_W@__crt_stdio_output@@@2@@1@AEAA_NXZ@@Z 0000000180032760 f i libucrtd:output.obj
 0001:00031920       ??$extract_argument_from_va_list@PEAUansi_string@?1??type_case_Z@?$output_processor@_WV?$stream_output_adapter@_W@__crt_stdio_output@@V?$positional_parameter_base@_WV?$stream_output_adapter@_W@__crt_stdio_output@@@2@@__crt_stdio_output@@AEAA_NXZ@PEAU1?1??234@AEAA_NXZ@@?$standard_base@_WV?$stream_output_adapter@_W@__crt_stdio_output@@@__crt_stdio_output@@IEAA_NAEAPEAUansi_string@?1??type_case_Z@?$output_processor@_WV?$stream_output_adapter@_W@__crt_stdio_output@@V?$positional_parameter_base@_WV?$stream_output_adapter@_W@__crt_stdio_output@@@2@@1@AEAA_NXZ@@Z 0000000180032920 f i libucrtd:output.obj
 0001:00031950       ??$extract_argument_from_va_list@PEAUansi_string@?1??type_case_Z@?$output_processor@_WV?$stream_output_adapter@_W@__crt_stdio_output@@V?$standard_base@_WV?$stream_output_adapter@_W@__crt_stdio_output@@@2@@__crt_stdio_output@@AEAA_NXZ@PEAU1?1??234@AEAA_NXZ@@?$standard_base@_WV?$stream_output_adapter@_W@__crt_stdio_output@@@__crt_stdio_output@@IEAA_NAEAPEAUansi_string@?1??type_case_Z@?$output_processor@_WV?$stream_output_adapter@_W@__crt_stdio_output@@V?$standard_base@_WV?$stream_output_adapter@_W@__crt_stdio_output@@@2@@1@AEAA_NXZ@@Z 0000000180032950 f i libucrtd:output.obj
 0001:00031980       ??$extract_argument_from_va_list@PEAUansi_string@?1??type_case_Z@?$output_processor@_WV?$string_output_adapter@_W@__crt_stdio_output@@V?$format_validation_base@_WV?$string_output_adapter@_W@__crt_stdio_output@@@2@@__crt_stdio_output@@AEAA_NXZ@PEAU1?1??234@AEAA_NXZ@@?$standard_base@_WV?$string_output_adapter@_W@__crt_stdio_output@@@__crt_stdio_output@@IEAA_NAEAPEAUansi_string@?1??type_case_Z@?$output_processor@_WV?$string_output_adapter@_W@__crt_stdio_output@@V?$format_validation_base@_WV?$string_output_adapter@_W@__crt_stdio_output@@@2@@1@AEAA_NXZ@@Z 0000000180032980 f i libucrtd:output.obj
 0001:000319b0       ??$extract_argument_from_va_list@PEAUansi_string@?1??type_case_Z@?$output_processor@_WV?$string_output_adapter@_W@__crt_stdio_output@@V?$positional_parameter_base@_WV?$string_output_adapter@_W@__crt_stdio_output@@@2@@__crt_stdio_output@@AEAA_NXZ@PEAU1?1??234@AEAA_NXZ@@?$positional_parameter_base@_WV?$string_output_adapter@_W@__crt_stdio_output@@@__crt_stdio_output@@IEAA_NAEAPEAUansi_string@?1??type_case_Z@?$output_processor@_WV?$string_output_adapter@_W@__crt_stdio_output@@V?$positional_parameter_base@_WV?$string_output_adapter@_W@__crt_stdio_output@@@2@@1@AEAA_NXZ@@Z 00000001800329b0 f i libucrtd:output.obj
 0001:00031b70       ??$extract_argument_from_va_list@PEAUansi_string@?1??type_case_Z@?$output_processor@_WV?$string_output_adapter@_W@__crt_stdio_output@@V?$positional_parameter_base@_WV?$string_output_adapter@_W@__crt_stdio_output@@@2@@__crt_stdio_output@@AEAA_NXZ@PEAU1?1??234@AEAA_NXZ@@?$standard_base@_WV?$string_output_adapter@_W@__crt_stdio_output@@@__crt_stdio_output@@IEAA_NAEAPEAUansi_string@?1??type_case_Z@?$output_processor@_WV?$string_output_adapter@_W@__crt_stdio_output@@V?$positional_parameter_base@_WV?$string_output_adapter@_W@__crt_stdio_output@@@2@@1@AEAA_NXZ@@Z 0000000180032b70 f i libucrtd:output.obj
 0001:00031ba0       ??$extract_argument_from_va_list@PEAUansi_string@?1??type_case_Z@?$output_processor@_WV?$string_output_adapter@_W@__crt_stdio_output@@V?$standard_base@_WV?$string_output_adapter@_W@__crt_stdio_output@@@2@@__crt_stdio_output@@AEAA_NXZ@PEAU1?1??234@AEAA_NXZ@@?$standard_base@_WV?$string_output_adapter@_W@__crt_stdio_output@@@__crt_stdio_output@@IEAA_NAEAPEAUansi_string@?1??type_case_Z@?$output_processor@_WV?$string_output_adapter@_W@__crt_stdio_output@@V?$standard_base@_WV?$string_output_adapter@_W@__crt_stdio_output@@@2@@1@AEAA_NXZ@@Z 0000000180032ba0 f i libucrtd:output.obj
 0001:00031bd0       ??$extract_argument_from_va_list@PEAXPEAX@?$positional_parameter_base@DV?$stream_output_adapter@D@__crt_stdio_output@@@__crt_stdio_output@@IEAA_NAEAPEAX@Z 0000000180032bd0 f i libucrtd:output.obj
 0001:00031d90       ??$extract_argument_from_va_list@PEAXPEAX@?$positional_parameter_base@DV?$string_output_adapter@D@__crt_stdio_output@@@__crt_stdio_output@@IEAA_NAEAPEAX@Z 0000000180032d90 f i libucrtd:output.obj
 0001:00031f50       ??$extract_argument_from_va_list@PEAXPEAX@?$positional_parameter_base@_WV?$stream_output_adapter@_W@__crt_stdio_output@@@__crt_stdio_output@@IEAA_NAEAPEAX@Z 0000000180032f50 f i libucrtd:output.obj
 0001:00032110       ??$extract_argument_from_va_list@PEAXPEAX@?$positional_parameter_base@_WV?$string_output_adapter@_W@__crt_stdio_output@@@__crt_stdio_output@@IEAA_NAEAPEAX@Z 0000000180033110 f i libucrtd:output.obj
 0001:000322d0       ??$extract_argument_from_va_list@PEAXPEAX@?$standard_base@DV?$stream_output_adapter@D@__crt_stdio_output@@@__crt_stdio_output@@IEAA_NAEAPEAX@Z 00000001800332d0 f i libucrtd:output.obj
 0001:00032300       ??$extract_argument_from_va_list@PEAXPEAX@?$standard_base@DV?$string_output_adapter@D@__crt_stdio_output@@@__crt_stdio_output@@IEAA_NAEAPEAX@Z 0000000180033300 f i libucrtd:output.obj
 0001:00032330       ??$extract_argument_from_va_list@PEAXPEAX@?$standard_base@_WV?$stream_output_adapter@_W@__crt_stdio_output@@@__crt_stdio_output@@IEAA_NAEAPEAX@Z 0000000180033330 f i libucrtd:output.obj
 0001:00032360       ??$extract_argument_from_va_list@PEAXPEAX@?$standard_base@_WV?$string_output_adapter@_W@__crt_stdio_output@@@__crt_stdio_output@@IEAA_NAEAPEAX@Z 0000000180033360 f i libucrtd:output.obj
 0001:00032390       ??$extract_argument_from_va_list@U_CRT_DOUBLE@@U1@@?$positional_parameter_base@DV?$stream_output_adapter@D@__crt_stdio_output@@@__crt_stdio_output@@IEAA_NAEAU_CRT_DOUBLE@@@Z 0000000180033390 f i libucrtd:output.obj
 0001:000325a0       ??$extract_argument_from_va_list@U_CRT_DOUBLE@@U1@@?$positional_parameter_base@DV?$string_output_adapter@D@__crt_stdio_output@@@__crt_stdio_output@@IEAA_NAEAU_CRT_DOUBLE@@@Z 00000001800335a0 f i libucrtd:output.obj
 0001:000327b0       ??$extract_argument_from_va_list@U_CRT_DOUBLE@@U1@@?$positional_parameter_base@_WV?$stream_output_adapter@_W@__crt_stdio_output@@@__crt_stdio_output@@IEAA_NAEAU_CRT_DOUBLE@@@Z 00000001800337b0 f i libucrtd:output.obj
 0001:000329c0       ??$extract_argument_from_va_list@U_CRT_DOUBLE@@U1@@?$positional_parameter_base@_WV?$string_output_adapter@_W@__crt_stdio_output@@@__crt_stdio_output@@IEAA_NAEAU_CRT_DOUBLE@@@Z 00000001800339c0 f i libucrtd:output.obj
 0001:00032bd0       ??$extract_argument_from_va_list@U_CRT_DOUBLE@@U1@@?$standard_base@DV?$stream_output_adapter@D@__crt_stdio_output@@@__crt_stdio_output@@IEAA_NAEAU_CRT_DOUBLE@@@Z 0000000180033bd0 f i libucrtd:output.obj
 0001:00032c10       ??$extract_argument_from_va_list@U_CRT_DOUBLE@@U1@@?$standard_base@DV?$string_output_adapter@D@__crt_stdio_output@@@__crt_stdio_output@@IEAA_NAEAU_CRT_DOUBLE@@@Z 0000000180033c10 f i libucrtd:output.obj
 0001:00032c50       ??$extract_argument_from_va_list@U_CRT_DOUBLE@@U1@@?$standard_base@_WV?$stream_output_adapter@_W@__crt_stdio_output@@@__crt_stdio_output@@IEAA_NAEAU_CRT_DOUBLE@@@Z 0000000180033c50 f i libucrtd:output.obj
 0001:00032c90       ??$extract_argument_from_va_list@U_CRT_DOUBLE@@U1@@?$standard_base@_WV?$string_output_adapter@_W@__crt_stdio_output@@@__crt_stdio_output@@IEAA_NAEAU_CRT_DOUBLE@@@Z 0000000180033c90 f i libucrtd:output.obj
 0001:00032cd0       ??$extract_argument_from_va_list@_J_J@?$positional_parameter_base@DV?$stream_output_adapter@D@__crt_stdio_output@@@__crt_stdio_output@@IEAA_NAEA_J@Z 0000000180033cd0 f i libucrtd:output.obj
 0001:00032e90       ??$extract_argument_from_va_list@_J_J@?$positional_parameter_base@DV?$string_output_adapter@D@__crt_stdio_output@@@__crt_stdio_output@@IEAA_NAEA_J@Z 0000000180033e90 f i libucrtd:output.obj
 0001:00033050       ??$extract_argument_from_va_list@_J_J@?$positional_parameter_base@_WV?$stream_output_adapter@_W@__crt_stdio_output@@@__crt_stdio_output@@IEAA_NAEA_J@Z 0000000180034050 f i libucrtd:output.obj
 0001:00033210       ??$extract_argument_from_va_list@_J_J@?$positional_parameter_base@_WV?$string_output_adapter@_W@__crt_stdio_output@@@__crt_stdio_output@@IEAA_NAEA_J@Z 0000000180034210 f i libucrtd:output.obj
 0001:000333d0       ??$extract_argument_from_va_list@_J_J@?$standard_base@DV?$stream_output_adapter@D@__crt_stdio_output@@@__crt_stdio_output@@IEAA_NAEA_J@Z 00000001800343d0 f i libucrtd:output.obj
 0001:00033400       ??$extract_argument_from_va_list@_J_J@?$standard_base@DV?$string_output_adapter@D@__crt_stdio_output@@@__crt_stdio_output@@IEAA_NAEA_J@Z 0000000180034400 f i libucrtd:output.obj
 0001:00033430       ??$extract_argument_from_va_list@_J_J@?$standard_base@_WV?$stream_output_adapter@_W@__crt_stdio_output@@@__crt_stdio_output@@IEAA_NAEA_J@Z 0000000180034430 f i libucrtd:output.obj
 0001:00033460       ??$extract_argument_from_va_list@_J_J@?$standard_base@_WV?$string_output_adapter@_W@__crt_stdio_output@@@__crt_stdio_output@@IEAA_NAEA_J@Z 0000000180034460 f i libucrtd:output.obj
 0001:00033490       ??$extract_argument_from_va_list@_K_J@?$positional_parameter_base@DV?$stream_output_adapter@D@__crt_stdio_output@@@__crt_stdio_output@@IEAA_NAEA_J@Z 0000000180034490 f i libucrtd:output.obj
 0001:00033650       ??$extract_argument_from_va_list@_K_J@?$positional_parameter_base@DV?$string_output_adapter@D@__crt_stdio_output@@@__crt_stdio_output@@IEAA_NAEA_J@Z 0000000180034650 f i libucrtd:output.obj
 0001:00033810       ??$extract_argument_from_va_list@_K_J@?$positional_parameter_base@_WV?$stream_output_adapter@_W@__crt_stdio_output@@@__crt_stdio_output@@IEAA_NAEA_J@Z 0000000180034810 f i libucrtd:output.obj
 0001:000339d0       ??$extract_argument_from_va_list@_K_J@?$positional_parameter_base@_WV?$string_output_adapter@_W@__crt_stdio_output@@@__crt_stdio_output@@IEAA_NAEA_J@Z 00000001800349d0 f i libucrtd:output.obj
 0001:00033b90       ??$extract_argument_from_va_list@_K_J@?$standard_base@DV?$stream_output_adapter@D@__crt_stdio_output@@@__crt_stdio_output@@IEAA_NAEA_J@Z 0000000180034b90 f i libucrtd:output.obj
 0001:00033bc0       ??$extract_argument_from_va_list@_K_J@?$standard_base@DV?$string_output_adapter@D@__crt_stdio_output@@@__crt_stdio_output@@IEAA_NAEA_J@Z 0000000180034bc0 f i libucrtd:output.obj
 0001:00033bf0       ??$extract_argument_from_va_list@_K_J@?$standard_base@_WV?$stream_output_adapter@_W@__crt_stdio_output@@@__crt_stdio_output@@IEAA_NAEA_J@Z 0000000180034bf0 f i libucrtd:output.obj
 0001:00033c20       ??$extract_argument_from_va_list@_K_J@?$standard_base@_WV?$string_output_adapter@_W@__crt_stdio_output@@@__crt_stdio_output@@IEAA_NAEA_J@Z 0000000180034c20 f i libucrtd:output.obj
 0001:00033c50       ??$extract_argument_from_va_list@_W_W@?$positional_parameter_base@DV?$stream_output_adapter@D@__crt_stdio_output@@@__crt_stdio_output@@IEAA_NAEA_W@Z 0000000180034c50 f i libucrtd:output.obj
 0001:00033e10       ??$extract_argument_from_va_list@_W_W@?$positional_parameter_base@DV?$string_output_adapter@D@__crt_stdio_output@@@__crt_stdio_output@@IEAA_NAEA_W@Z 0000000180034e10 f i libucrtd:output.obj
 0001:00033fd0       ??$extract_argument_from_va_list@_W_W@?$positional_parameter_base@_WV?$stream_output_adapter@_W@__crt_stdio_output@@@__crt_stdio_output@@IEAA_NAEA_W@Z 0000000180034fd0 f i libucrtd:output.obj
 0001:00034190       ??$extract_argument_from_va_list@_W_W@?$positional_parameter_base@_WV?$string_output_adapter@_W@__crt_stdio_output@@@__crt_stdio_output@@IEAA_NAEA_W@Z 0000000180035190 f i libucrtd:output.obj
 0001:00034350       ??$extract_argument_from_va_list@_W_W@?$standard_base@DV?$stream_output_adapter@D@__crt_stdio_output@@@__crt_stdio_output@@IEAA_NAEA_W@Z 0000000180035350 f i libucrtd:output.obj
 0001:00034380       ??$extract_argument_from_va_list@_W_W@?$standard_base@DV?$string_output_adapter@D@__crt_stdio_output@@@__crt_stdio_output@@IEAA_NAEA_W@Z 0000000180035380 f i libucrtd:output.obj
 0001:000343b0       ??$extract_argument_from_va_list@_W_W@?$standard_base@_WV?$stream_output_adapter@_W@__crt_stdio_output@@@__crt_stdio_output@@IEAA_NAEA_W@Z 00000001800353b0 f i libucrtd:output.obj
 0001:000343e0       ??$extract_argument_from_va_list@_W_W@?$standard_base@_WV?$string_output_adapter@_W@__crt_stdio_output@@@__crt_stdio_output@@IEAA_NAEA_W@Z 00000001800353e0 f i libucrtd:output.obj
 0001:00034410       ??$get_parameter_type@D@?$positional_parameter_base@DV?$stream_output_adapter@D@__crt_stdio_output@@@__crt_stdio_output@@CA?AW4parameter_type@01@PEAD@Z 0000000180035410 f i libucrtd:output.obj
 0001:00034420       ??$get_parameter_type@D@?$positional_parameter_base@DV?$string_output_adapter@D@__crt_stdio_output@@@__crt_stdio_output@@CA?AW4parameter_type@01@PEAD@Z 0000000180035420 f i libucrtd:output.obj
 0001:00034430       ??$get_parameter_type@D@?$positional_parameter_base@_WV?$stream_output_adapter@_W@__crt_stdio_output@@@__crt_stdio_output@@CA?AW4parameter_type@01@PEAD@Z 0000000180035430 f i libucrtd:output.obj
 0001:00034440       ??$get_parameter_type@D@?$positional_parameter_base@_WV?$string_output_adapter@_W@__crt_stdio_output@@@__crt_stdio_output@@CA?AW4parameter_type@01@PEAD@Z 0000000180035440 f i libucrtd:output.obj
 0001:00034450       ??$get_parameter_type@Uansi_string@?1??type_case_Z@?$output_processor@DV?$stream_output_adapter@D@__crt_stdio_output@@V?$positional_parameter_base@DV?$stream_output_adapter@D@__crt_stdio_output@@@2@@__crt_stdio_output@@AEAA_NXZ@@?$positional_parameter_base@DV?$stream_output_adapter@D@__crt_stdio_output@@@__crt_stdio_output@@CA?AW4parameter_type@01@PEAUansi_string@?1??type_case_Z@?$output_processor@DV?$stream_output_adapter@D@__crt_stdio_output@@V?$positional_parameter_base@DV?$stream_output_adapter@D@__crt_stdio_output@@@2@@1@AEAA_NXZ@@Z 0000000180035450 f i libucrtd:output.obj
 0001:00034460       ??$get_parameter_type@Uansi_string@?1??type_case_Z@?$output_processor@DV?$string_output_adapter@D@__crt_stdio_output@@V?$positional_parameter_base@DV?$string_output_adapter@D@__crt_stdio_output@@@2@@__crt_stdio_output@@AEAA_NXZ@@?$positional_parameter_base@DV?$string_output_adapter@D@__crt_stdio_output@@@__crt_stdio_output@@CA?AW4parameter_type@01@PEAUansi_string@?1??type_case_Z@?$output_processor@DV?$string_output_adapter@D@__crt_stdio_output@@V?$positional_parameter_base@DV?$string_output_adapter@D@__crt_stdio_output@@@2@@1@AEAA_NXZ@@Z 0000000180035460 f i libucrtd:output.obj
 0001:00034470       ??$get_parameter_type@Uansi_string@?1??type_case_Z@?$output_processor@_WV?$stream_output_adapter@_W@__crt_stdio_output@@V?$positional_parameter_base@_WV?$stream_output_adapter@_W@__crt_stdio_output@@@2@@__crt_stdio_output@@AEAA_NXZ@@?$positional_parameter_base@_WV?$stream_output_adapter@_W@__crt_stdio_output@@@__crt_stdio_output@@CA?AW4parameter_type@01@PEAUansi_string@?1??type_case_Z@?$output_processor@_WV?$stream_output_adapter@_W@__crt_stdio_output@@V?$positional_parameter_base@_WV?$stream_output_adapter@_W@__crt_stdio_output@@@2@@1@AEAA_NXZ@@Z 0000000180035470 f i libucrtd:output.obj
 0001:00034480       ??$get_parameter_type@Uansi_string@?1??type_case_Z@?$output_processor@_WV?$string_output_adapter@_W@__crt_stdio_output@@V?$positional_parameter_base@_WV?$string_output_adapter@_W@__crt_stdio_output@@@2@@__crt_stdio_output@@AEAA_NXZ@@?$positional_parameter_base@_WV?$string_output_adapter@_W@__crt_stdio_output@@@__crt_stdio_output@@CA?AW4parameter_type@01@PEAUansi_string@?1??type_case_Z@?$output_processor@_WV?$string_output_adapter@_W@__crt_stdio_output@@V?$positional_parameter_base@_WV?$string_output_adapter@_W@__crt_stdio_output@@@2@@1@AEAA_NXZ@@Z 0000000180035480 f i libucrtd:output.obj
 0001:00034490       ??$get_parameter_type@X@?$positional_parameter_base@DV?$stream_output_adapter@D@__crt_stdio_output@@@__crt_stdio_output@@CA?AW4parameter_type@01@PEAX@Z 0000000180035490 f i libucrtd:output.obj
 0001:000344a0       ??$get_parameter_type@X@?$positional_parameter_base@DV?$string_output_adapter@D@__crt_stdio_output@@@__crt_stdio_output@@CA?AW4parameter_type@01@PEAX@Z 00000001800354a0 f i libucrtd:output.obj
 0001:000344b0       ??$get_parameter_type@X@?$positional_parameter_base@_WV?$stream_output_adapter@_W@__crt_stdio_output@@@__crt_stdio_output@@CA?AW4parameter_type@01@PEAX@Z 00000001800354b0 f i libucrtd:output.obj
 0001:000344c0       ??$get_parameter_type@X@?$positional_parameter_base@_WV?$string_output_adapter@_W@__crt_stdio_output@@@__crt_stdio_output@@CA?AW4parameter_type@01@PEAX@Z 00000001800354c0 f i libucrtd:output.obj
 0001:000344d0       ??$is_character_specifier@D@?$positional_parameter_base@DV?$stream_output_adapter@D@__crt_stdio_output@@@__crt_stdio_output@@CA_ND@Z 00000001800354d0 f i libucrtd:output.obj
 0001:00034510       ??$is_character_specifier@D@?$positional_parameter_base@DV?$string_output_adapter@D@__crt_stdio_output@@@__crt_stdio_output@@CA_ND@Z 0000000180035510 f i libucrtd:output.obj
 0001:00034550       ??$is_character_specifier@_W@?$positional_parameter_base@_WV?$stream_output_adapter@_W@__crt_stdio_output@@@__crt_stdio_output@@CA_N_W@Z 0000000180035550 f i libucrtd:output.obj
 0001:00034590       ??$is_character_specifier@_W@?$positional_parameter_base@_WV?$string_output_adapter@_W@__crt_stdio_output@@@__crt_stdio_output@@CA_N_W@Z 0000000180035590 f i libucrtd:output.obj
 0001:000345d0       ??$is_integral_specifier@D@?$positional_parameter_base@DV?$stream_output_adapter@D@__crt_stdio_output@@@__crt_stdio_output@@CA_ND@Z 00000001800355d0 f i libucrtd:output.obj
 0001:00034640       ??$is_integral_specifier@D@?$positional_parameter_base@DV?$string_output_adapter@D@__crt_stdio_output@@@__crt_stdio_output@@CA_ND@Z 0000000180035640 f i libucrtd:output.obj
 0001:000346b0       ??$is_integral_specifier@_W@?$positional_parameter_base@_WV?$stream_output_adapter@_W@__crt_stdio_output@@@__crt_stdio_output@@CA_N_W@Z 00000001800356b0 f i libucrtd:output.obj
 0001:00034720       ??$is_integral_specifier@_W@?$positional_parameter_base@_WV?$string_output_adapter@_W@__crt_stdio_output@@@__crt_stdio_output@@CA_N_W@Z 0000000180035720 f i libucrtd:output.obj
 0001:00034790       ??$is_overflow_condition@K@__crt_strtox@@YA_NIK@Z 0000000180035790 f i libucrtd:output.obj
 0001:00034800       ??$is_pointer_specifier@D@?$positional_parameter_base@DV?$stream_output_adapter@D@__crt_stdio_output@@@__crt_stdio_output@@CA_ND@Z 0000000180035800 f i libucrtd:output.obj
 0001:00034830       ??$is_pointer_specifier@D@?$positional_parameter_base@DV?$string_output_adapter@D@__crt_stdio_output@@@__crt_stdio_output@@CA_ND@Z 0000000180035830 f i libucrtd:output.obj
 0001:00034860       ??$is_pointer_specifier@_W@?$positional_parameter_base@_WV?$stream_output_adapter@_W@__crt_stdio_output@@@__crt_stdio_output@@CA_N_W@Z 0000000180035860 f i libucrtd:output.obj
 0001:00034890       ??$is_pointer_specifier@_W@?$positional_parameter_base@_WV?$string_output_adapter@_W@__crt_stdio_output@@@__crt_stdio_output@@CA_N_W@Z 0000000180035890 f i libucrtd:output.obj
 0001:000348c0       ??$is_string_specifier@D@?$positional_parameter_base@DV?$stream_output_adapter@D@__crt_stdio_output@@@__crt_stdio_output@@CA_ND@Z 00000001800358c0 f i libucrtd:output.obj
 0001:00034900       ??$is_string_specifier@D@?$positional_parameter_base@DV?$string_output_adapter@D@__crt_stdio_output@@@__crt_stdio_output@@CA_ND@Z 0000000180035900 f i libucrtd:output.obj
 0001:00034940       ??$is_string_specifier@_W@?$positional_parameter_base@_WV?$stream_output_adapter@_W@__crt_stdio_output@@@__crt_stdio_output@@CA_N_W@Z 0000000180035940 f i libucrtd:output.obj
 0001:00034980       ??$is_string_specifier@_W@?$positional_parameter_base@_WV?$string_output_adapter@_W@__crt_stdio_output@@@__crt_stdio_output@@CA_N_W@Z 0000000180035980 f i libucrtd:output.obj
 0001:000349c0       ??$is_wide_character_specifier@D@__crt_stdio_output@@YA_N_KDW4length_modifier@0@@Z 00000001800359c0 f i libucrtd:output.obj
 0001:00034a60       ??$is_wide_character_specifier@_W@__crt_stdio_output@@YA_N_K_WW4length_modifier@0@@Z 0000000180035a60 f i libucrtd:output.obj
 0001:00034b30       ??$make_c_string_character_source@DPEAPEAD@__crt_strtox@@YA?AV?$c_string_character_source@D@0@QEBDQEAPEAD@Z 0000000180035b30 f i libucrtd:output.obj
 0001:00034b70       ??$make_c_string_character_source@_WPEAPEA_W@__crt_strtox@@YA?AV?$c_string_character_source@_W@0@QEB_WQEAPEA_W@Z 0000000180035b70 f i libucrtd:output.obj
 0001:00034bb0       ??$parse_integer@KV?$c_string_character_source@D@__crt_strtox@@$0A@@__crt_strtox@@YAKAEAV__crt_cached_ptd_host@@V?$c_string_character_source@D@0@H_N@Z 0000000180035bb0 f i libucrtd:output.obj
 0001:00035030       ??$parse_integer@KV?$c_string_character_source@_W@__crt_strtox@@$0A@@__crt_strtox@@YAKAEAV__crt_cached_ptd_host@@V?$c_string_character_source@_W@0@H_N@Z 0000000180036030 f i libucrtd:output.obj
 0001:000354b0       ??$peek_va_arg@C@__crt_stdio_output@@YACPEAD@Z 00000001800364b0 f i libucrtd:output.obj
 0001:00035510       ??$peek_va_arg@E@__crt_stdio_output@@YAEPEAD@Z 0000000180036510 f i libucrtd:output.obj
 0001:00035570       ??$peek_va_arg@F@__crt_stdio_output@@YAFPEAD@Z 0000000180036570 f i libucrtd:output.obj
 0001:000355d0       ??$peek_va_arg@G@__crt_stdio_output@@YAGPEAD@Z 00000001800365d0 f i libucrtd:output.obj
 0001:00035630       ??$peek_va_arg@H@__crt_stdio_output@@YAHPEAD@Z 0000000180036630 f i libucrtd:output.obj
 0001:00035680       ??$peek_va_arg@I@__crt_stdio_output@@YAIPEAD@Z 0000000180036680 f i libucrtd:output.obj
 0001:000356d0       ??$peek_va_arg@PEAD@__crt_stdio_output@@YAPEADPEAD@Z 00000001800366d0 f i libucrtd:output.obj
 0001:00035730       ??$peek_va_arg@PEAUansi_string@?1??type_case_Z@?$output_processor@DV?$stream_output_adapter@D@__crt_stdio_output@@V?$positional_parameter_base@DV?$stream_output_adapter@D@__crt_stdio_output@@@2@@__crt_stdio_output@@AEAA_NXZ@@__crt_stdio_output@@YAPEAUansi_string@?1??type_case_Z@?$output_processor@DV?$stream_output_adapter@D@__crt_stdio_output@@V?$positional_parameter_base@DV?$stream_output_adapter@D@__crt_stdio_output@@@2@@0@AEAA_NXZ@PEAD@Z 0000000180036730 f i libucrtd:output.obj
 0001:00035790       ??$peek_va_arg@PEAUansi_string@?1??type_case_Z@?$output_processor@DV?$string_output_adapter@D@__crt_stdio_output@@V?$positional_parameter_base@DV?$string_output_adapter@D@__crt_stdio_output@@@2@@__crt_stdio_output@@AEAA_NXZ@@__crt_stdio_output@@YAPEAUansi_string@?1??type_case_Z@?$output_processor@DV?$string_output_adapter@D@__crt_stdio_output@@V?$positional_parameter_base@DV?$string_output_adapter@D@__crt_stdio_output@@@2@@0@AEAA_NXZ@PEAD@Z 0000000180036790 f i libucrtd:output.obj
 0001:000357f0       ??$peek_va_arg@PEAUansi_string@?1??type_case_Z@?$output_processor@_WV?$stream_output_adapter@_W@__crt_stdio_output@@V?$positional_parameter_base@_WV?$stream_output_adapter@_W@__crt_stdio_output@@@2@@__crt_stdio_output@@AEAA_NXZ@@__crt_stdio_output@@YAPEAUansi_string@?1??type_case_Z@?$output_processor@_WV?$stream_output_adapter@_W@__crt_stdio_output@@V?$positional_parameter_base@_WV?$stream_output_adapter@_W@__crt_stdio_output@@@2@@0@AEAA_NXZ@PEAD@Z 00000001800367f0 f i libucrtd:output.obj
 0001:00035850       ??$peek_va_arg@PEAUansi_string@?1??type_case_Z@?$output_processor@_WV?$string_output_adapter@_W@__crt_stdio_output@@V?$positional_parameter_base@_WV?$string_output_adapter@_W@__crt_stdio_output@@@2@@__crt_stdio_output@@AEAA_NXZ@@__crt_stdio_output@@YAPEAUansi_string@?1??type_case_Z@?$output_processor@_WV?$string_output_adapter@_W@__crt_stdio_output@@V?$positional_parameter_base@_WV?$string_output_adapter@_W@__crt_stdio_output@@@2@@0@AEAA_NXZ@PEAD@Z 0000000180036850 f i libucrtd:output.obj
 0001:000358b0       ??$peek_va_arg@PEAX@__crt_stdio_output@@YAPEAXPEAD@Z 00000001800368b0 f i libucrtd:output.obj
 0001:00035910       ??$peek_va_arg@U_CRT_DOUBLE@@@__crt_stdio_output@@YA?AU_CRT_DOUBLE@@PEAD@Z 0000000180036910 f i libucrtd:output.obj
 0001:00035970       ??$peek_va_arg@_J@__crt_stdio_output@@YA_JPEAD@Z 0000000180036970 f i libucrtd:output.obj
 0001:000359d0       ??$peek_va_arg@_K@__crt_stdio_output@@YA_KPEAD@Z 00000001800369d0 f i libucrtd:output.obj
 0001:00035a30       ??$peek_va_arg@_W@__crt_stdio_output@@YA_WPEAD@Z 0000000180036a30 f i libucrtd:output.obj
 0001:00035a90       ??$puttc_nolock_internal@AEBDPEAU_iobuf@@AEAV__crt_cached_ptd_host@@@?$__crt_char_traits@D@@SAHAEBD$$QEAPEAU_iobuf@@AEAV__crt_cached_ptd_host@@@Z 0000000180036a90 f i libucrtd:output.obj
 0001:00035ad0       ??$puttc_nolock_internal@AEB_WPEAU_iobuf@@AEAV__crt_cached_ptd_host@@@?$__crt_char_traits@_W@@SAGAEB_W$$QEAPEAU_iobuf@@AEAV__crt_cached_ptd_host@@@Z 0000000180036ad0 f i libucrtd:output.obj
 0001:00035b10       ??$read_va_arg@C@__crt_stdio_output@@YACAEAPEAD@Z 0000000180036b10 f i libucrtd:output.obj
 0001:00035b80       ??$read_va_arg@E@__crt_stdio_output@@YAEAEAPEAD@Z 0000000180036b80 f i libucrtd:output.obj
 0001:00035bf0       ??$read_va_arg@F@__crt_stdio_output@@YAFAEAPEAD@Z 0000000180036bf0 f i libucrtd:output.obj
 0001:00035c60       ??$read_va_arg@G@__crt_stdio_output@@YAGAEAPEAD@Z 0000000180036c60 f i libucrtd:output.obj
 0001:00035cd0       ??$read_va_arg@H@__crt_stdio_output@@YAHAEAPEAD@Z 0000000180036cd0 f i libucrtd:output.obj
 0001:00035d30       ??$read_va_arg@I@__crt_stdio_output@@YAIAEAPEAD@Z 0000000180036d30 f i libucrtd:output.obj
 0001:00035d90       ??$read_va_arg@PEAD@__crt_stdio_output@@YAPEADAEAPEAD@Z 0000000180036d90 f i libucrtd:output.obj
 0001:00035e00       ??$read_va_arg@PEAUansi_string@?1??type_case_Z@?$output_processor@DV?$stream_output_adapter@D@__crt_stdio_output@@V?$format_validation_base@DV?$stream_output_adapter@D@__crt_stdio_output@@@2@@__crt_stdio_output@@AEAA_NXZ@@__crt_stdio_output@@YAPEAUansi_string@?1??type_case_Z@?$output_processor@DV?$stream_output_adapter@D@__crt_stdio_output@@V?$format_validation_base@DV?$stream_output_adapter@D@__crt_stdio_output@@@2@@0@AEAA_NXZ@AEAPEAD@Z 0000000180036e00 f i libucrtd:output.obj
 0001:00035e70       ??$read_va_arg@PEAUansi_string@?1??type_case_Z@?$output_processor@DV?$stream_output_adapter@D@__crt_stdio_output@@V?$positional_parameter_base@DV?$stream_output_adapter@D@__crt_stdio_output@@@2@@__crt_stdio_output@@AEAA_NXZ@@__crt_stdio_output@@YAPEAUansi_string@?1??type_case_Z@?$output_processor@DV?$stream_output_adapter@D@__crt_stdio_output@@V?$positional_parameter_base@DV?$stream_output_adapter@D@__crt_stdio_output@@@2@@0@AEAA_NXZ@AEAPEAD@Z 0000000180036e70 f i libucrtd:output.obj
 0001:00035ee0       ??$read_va_arg@PEAUansi_string@?1??type_case_Z@?$output_processor@DV?$stream_output_adapter@D@__crt_stdio_output@@V?$standard_base@DV?$stream_output_adapter@D@__crt_stdio_output@@@2@@__crt_stdio_output@@AEAA_NXZ@@__crt_stdio_output@@YAPEAUansi_string@?1??type_case_Z@?$output_processor@DV?$stream_output_adapter@D@__crt_stdio_output@@V?$standard_base@DV?$stream_output_adapter@D@__crt_stdio_output@@@2@@0@AEAA_NXZ@AEAPEAD@Z 0000000180036ee0 f i libucrtd:output.obj
 0001:00035f50       ??$read_va_arg@PEAUansi_string@?1??type_case_Z@?$output_processor@DV?$string_output_adapter@D@__crt_stdio_output@@V?$format_validation_base@DV?$string_output_adapter@D@__crt_stdio_output@@@2@@__crt_stdio_output@@AEAA_NXZ@@__crt_stdio_output@@YAPEAUansi_string@?1??type_case_Z@?$output_processor@DV?$string_output_adapter@D@__crt_stdio_output@@V?$format_validation_base@DV?$string_output_adapter@D@__crt_stdio_output@@@2@@0@AEAA_NXZ@AEAPEAD@Z 0000000180036f50 f i libucrtd:output.obj
 0001:00035fc0       ??$read_va_arg@PEAUansi_string@?1??type_case_Z@?$output_processor@DV?$string_output_adapter@D@__crt_stdio_output@@V?$positional_parameter_base@DV?$string_output_adapter@D@__crt_stdio_output@@@2@@__crt_stdio_output@@AEAA_NXZ@@__crt_stdio_output@@YAPEAUansi_string@?1??type_case_Z@?$output_processor@DV?$string_output_adapter@D@__crt_stdio_output@@V?$positional_parameter_base@DV?$string_output_adapter@D@__crt_stdio_output@@@2@@0@AEAA_NXZ@AEAPEAD@Z 0000000180036fc0 f i libucrtd:output.obj
 0001:00036030       ??$read_va_arg@PEAUansi_string@?1??type_case_Z@?$output_processor@DV?$string_output_adapter@D@__crt_stdio_output@@V?$standard_base@DV?$string_output_adapter@D@__crt_stdio_output@@@2@@__crt_stdio_output@@AEAA_NXZ@@__crt_stdio_output@@YAPEAUansi_string@?1??type_case_Z@?$output_processor@DV?$string_output_adapter@D@__crt_stdio_output@@V?$standard_base@DV?$string_output_adapter@D@__crt_stdio_output@@@2@@0@AEAA_NXZ@AEAPEAD@Z 0000000180037030 f i libucrtd:output.obj
 0001:000360a0       ??$read_va_arg@PEAUansi_string@?1??type_case_Z@?$output_processor@_WV?$stream_output_adapter@_W@__crt_stdio_output@@V?$format_validation_base@_WV?$stream_output_adapter@_W@__crt_stdio_output@@@2@@__crt_stdio_output@@AEAA_NXZ@@__crt_stdio_output@@YAPEAUansi_string@?1??type_case_Z@?$output_processor@_WV?$stream_output_adapter@_W@__crt_stdio_output@@V?$format_validation_base@_WV?$stream_output_adapter@_W@__crt_stdio_output@@@2@@0@AEAA_NXZ@AEAPEAD@Z 00000001800370a0 f i libucrtd:output.obj
 0001:00036110       ??$read_va_arg@PEAUansi_string@?1??type_case_Z@?$output_processor@_WV?$stream_output_adapter@_W@__crt_stdio_output@@V?$positional_parameter_base@_WV?$stream_output_adapter@_W@__crt_stdio_output@@@2@@__crt_stdio_output@@AEAA_NXZ@@__crt_stdio_output@@YAPEAUansi_string@?1??type_case_Z@?$output_processor@_WV?$stream_output_adapter@_W@__crt_stdio_output@@V?$positional_parameter_base@_WV?$stream_output_adapter@_W@__crt_stdio_output@@@2@@0@AEAA_NXZ@AEAPEAD@Z 0000000180037110 f i libucrtd:output.obj
 0001:00036180       ??$read_va_arg@PEAUansi_string@?1??type_case_Z@?$output_processor@_WV?$stream_output_adapter@_W@__crt_stdio_output@@V?$standard_base@_WV?$stream_output_adapter@_W@__crt_stdio_output@@@2@@__crt_stdio_output@@AEAA_NXZ@@__crt_stdio_output@@YAPEAUansi_string@?1??type_case_Z@?$output_processor@_WV?$stream_output_adapter@_W@__crt_stdio_output@@V?$standard_base@_WV?$stream_output_adapter@_W@__crt_stdio_output@@@2@@0@AEAA_NXZ@AEAPEAD@Z 0000000180037180 f i libucrtd:output.obj
 0001:000361f0       ??$read_va_arg@PEAUansi_string@?1??type_case_Z@?$output_processor@_WV?$string_output_adapter@_W@__crt_stdio_output@@V?$format_validation_base@_WV?$string_output_adapter@_W@__crt_stdio_output@@@2@@__crt_stdio_output@@AEAA_NXZ@@__crt_stdio_output@@YAPEAUansi_string@?1??type_case_Z@?$output_processor@_WV?$string_output_adapter@_W@__crt_stdio_output@@V?$format_validation_base@_WV?$string_output_adapter@_W@__crt_stdio_output@@@2@@0@AEAA_NXZ@AEAPEAD@Z 00000001800371f0 f i libucrtd:output.obj
 0001:00036260       ??$read_va_arg@PEAUansi_string@?1??type_case_Z@?$output_processor@_WV?$string_output_adapter@_W@__crt_stdio_output@@V?$positional_parameter_base@_WV?$string_output_adapter@_W@__crt_stdio_output@@@2@@__crt_stdio_output@@AEAA_NXZ@@__crt_stdio_output@@YAPEAUansi_string@?1??type_case_Z@?$output_processor@_WV?$string_output_adapter@_W@__crt_stdio_output@@V?$positional_parameter_base@_WV?$string_output_adapter@_W@__crt_stdio_output@@@2@@0@AEAA_NXZ@AEAPEAD@Z 0000000180037260 f i libucrtd:output.obj
 0001:000362d0       ??$read_va_arg@PEAUansi_string@?1??type_case_Z@?$output_processor@_WV?$string_output_adapter@_W@__crt_stdio_output@@V?$standard_base@_WV?$string_output_adapter@_W@__crt_stdio_output@@@2@@__crt_stdio_output@@AEAA_NXZ@@__crt_stdio_output@@YAPEAUansi_string@?1??type_case_Z@?$output_processor@_WV?$string_output_adapter@_W@__crt_stdio_output@@V?$standard_base@_WV?$string_output_adapter@_W@__crt_stdio_output@@@2@@0@AEAA_NXZ@AEAPEAD@Z 00000001800372d0 f i libucrtd:output.obj
 0001:00036340       ??$read_va_arg@PEAX@__crt_stdio_output@@YAPEAXAEAPEAD@Z 0000000180037340 f i libucrtd:output.obj
 0001:000363b0       ??$read_va_arg@U_CRT_DOUBLE@@@__crt_stdio_output@@YA?AU_CRT_DOUBLE@@AEAPEAD@Z 00000001800373b0 f i libucrtd:output.obj
 0001:00036420       ??$read_va_arg@_J@__crt_stdio_output@@YA_JAEAPEAD@Z 0000000180037420 f i libucrtd:output.obj
 0001:00036490       ??$read_va_arg@_K@__crt_stdio_output@@YA_KAEAPEAD@Z 0000000180037490 f i libucrtd:output.obj
 0001:00036500       ??$read_va_arg@_W@__crt_stdio_output@@YA_WAEAPEAD@Z 0000000180037500 f i libucrtd:output.obj
 0001:00036570       ??$scratch_count@D@formatting_buffer@__crt_stdio_output@@QEBA_KXZ 0000000180037570 f i libucrtd:output.obj
 0001:00036590       ??$scratch_data@D@formatting_buffer@__crt_stdio_output@@QEAAPEADXZ 0000000180037590 f i libucrtd:output.obj
 0001:00036600       ??$type_case_integer@$07@?$output_processor@DV?$stream_output_adapter@D@__crt_stdio_output@@V?$format_validation_base@DV?$stream_output_adapter@D@__crt_stdio_output@@@2@@__crt_stdio_output@@AEAA_N_N@Z 0000000180037600 f i libucrtd:output.obj
 0001:00036a80       ??$type_case_integer@$07@?$output_processor@DV?$stream_output_adapter@D@__crt_stdio_output@@V?$positional_parameter_base@DV?$stream_output_adapter@D@__crt_stdio_output@@@2@@__crt_stdio_output@@AEAA_N_N@Z 0000000180037a80 f i libucrtd:output.obj
 0001:00036f00       ??$type_case_integer@$07@?$output_processor@DV?$stream_output_adapter@D@__crt_stdio_output@@V?$standard_base@DV?$stream_output_adapter@D@__crt_stdio_output@@@2@@__crt_stdio_output@@AEAA_N_N@Z 0000000180037f00 f i libucrtd:output.obj
 0001:00037380       ??$type_case_integer@$07@?$output_processor@DV?$string_output_adapter@D@__crt_stdio_output@@V?$format_validation_base@DV?$string_output_adapter@D@__crt_stdio_output@@@2@@__crt_stdio_output@@AEAA_N_N@Z 0000000180038380 f i libucrtd:output.obj
 0001:00037800       ??$type_case_integer@$07@?$output_processor@DV?$string_output_adapter@D@__crt_stdio_output@@V?$positional_parameter_base@DV?$string_output_adapter@D@__crt_stdio_output@@@2@@__crt_stdio_output@@AEAA_N_N@Z 0000000180038800 f i libucrtd:output.obj
 0001:00037c80       ??$type_case_integer@$07@?$output_processor@DV?$string_output_adapter@D@__crt_stdio_output@@V?$standard_base@DV?$string_output_adapter@D@__crt_stdio_output@@@2@@__crt_stdio_output@@AEAA_N_N@Z 0000000180038c80 f i libucrtd:output.obj
 0001:00038100       ??$type_case_integer@$07@?$output_processor@_WV?$stream_output_adapter@_W@__crt_stdio_output@@V?$format_validation_base@_WV?$stream_output_adapter@_W@__crt_stdio_output@@@2@@__crt_stdio_output@@AEAA_N_N@Z 0000000180039100 f i libucrtd:output.obj
 0001:00038580       ??$type_case_integer@$07@?$output_processor@_WV?$stream_output_adapter@_W@__crt_stdio_output@@V?$positional_parameter_base@_WV?$stream_output_adapter@_W@__crt_stdio_output@@@2@@__crt_stdio_output@@AEAA_N_N@Z 0000000180039580 f i libucrtd:output.obj
 0001:00038a00       ??$type_case_integer@$07@?$output_processor@_WV?$stream_output_adapter@_W@__crt_stdio_output@@V?$standard_base@_WV?$stream_output_adapter@_W@__crt_stdio_output@@@2@@__crt_stdio_output@@AEAA_N_N@Z 0000000180039a00 f i libucrtd:output.obj
 0001:00038e80       ??$type_case_integer@$07@?$output_processor@_WV?$string_output_adapter@_W@__crt_stdio_output@@V?$format_validation_base@_WV?$string_output_adapter@_W@__crt_stdio_output@@@2@@__crt_stdio_output@@AEAA_N_N@Z 0000000180039e80 f i libucrtd:output.obj
 0001:00039300       ??$type_case_integer@$07@?$output_processor@_WV?$string_output_adapter@_W@__crt_stdio_output@@V?$positional_parameter_base@_WV?$string_output_adapter@_W@__crt_stdio_output@@@2@@__crt_stdio_output@@AEAA_N_N@Z 000000018003a300 f i libucrtd:output.obj
 0001:00039780       ??$type_case_integer@$07@?$output_processor@_WV?$string_output_adapter@_W@__crt_stdio_output@@V?$standard_base@_WV?$string_output_adapter@_W@__crt_stdio_output@@@2@@__crt_stdio_output@@AEAA_N_N@Z 000000018003a780 f i libucrtd:output.obj
 0001:00039c00       ??$type_case_integer@$09@?$output_processor@DV?$stream_output_adapter@D@__crt_stdio_output@@V?$format_validation_base@DV?$stream_output_adapter@D@__crt_stdio_output@@@2@@__crt_stdio_output@@AEAA_N_N@Z 000000018003ac00 f i libucrtd:output.obj
 0001:0003a080       ??$type_case_integer@$09@?$output_processor@DV?$stream_output_adapter@D@__crt_stdio_output@@V?$positional_parameter_base@DV?$stream_output_adapter@D@__crt_stdio_output@@@2@@__crt_stdio_output@@AEAA_N_N@Z 000000018003b080 f i libucrtd:output.obj
 0001:0003a500       ??$type_case_integer@$09@?$output_processor@DV?$stream_output_adapter@D@__crt_stdio_output@@V?$standard_base@DV?$stream_output_adapter@D@__crt_stdio_output@@@2@@__crt_stdio_output@@AEAA_N_N@Z 000000018003b500 f i libucrtd:output.obj
 0001:0003a980       ??$type_case_integer@$09@?$output_processor@DV?$string_output_adapter@D@__crt_stdio_output@@V?$format_validation_base@DV?$string_output_adapter@D@__crt_stdio_output@@@2@@__crt_stdio_output@@AEAA_N_N@Z 000000018003b980 f i libucrtd:output.obj
 0001:0003ae00       ??$type_case_integer@$09@?$output_processor@DV?$string_output_adapter@D@__crt_stdio_output@@V?$positional_parameter_base@DV?$string_output_adapter@D@__crt_stdio_output@@@2@@__crt_stdio_output@@AEAA_N_N@Z 000000018003be00 f i libucrtd:output.obj
 0001:0003b280       ??$type_case_integer@$09@?$output_processor@DV?$string_output_adapter@D@__crt_stdio_output@@V?$standard_base@DV?$string_output_adapter@D@__crt_stdio_output@@@2@@__crt_stdio_output@@AEAA_N_N@Z 000000018003c280 f i libucrtd:output.obj
 0001:0003b700       ??$type_case_integer@$09@?$output_processor@_WV?$stream_output_adapter@_W@__crt_stdio_output@@V?$format_validation_base@_WV?$stream_output_adapter@_W@__crt_stdio_output@@@2@@__crt_stdio_output@@AEAA_N_N@Z 000000018003c700 f i libucrtd:output.obj
 0001:0003bb80       ??$type_case_integer@$09@?$output_processor@_WV?$stream_output_adapter@_W@__crt_stdio_output@@V?$positional_parameter_base@_WV?$stream_output_adapter@_W@__crt_stdio_output@@@2@@__crt_stdio_output@@AEAA_N_N@Z 000000018003cb80 f i libucrtd:output.obj
 0001:0003c000       ??$type_case_integer@$09@?$output_processor@_WV?$stream_output_adapter@_W@__crt_stdio_output@@V?$standard_base@_WV?$stream_output_adapter@_W@__crt_stdio_output@@@2@@__crt_stdio_output@@AEAA_N_N@Z 000000018003d000 f i libucrtd:output.obj
 0001:0003c480       ??$type_case_integer@$09@?$output_processor@_WV?$string_output_adapter@_W@__crt_stdio_output@@V?$format_validation_base@_WV?$string_output_adapter@_W@__crt_stdio_output@@@2@@__crt_stdio_output@@AEAA_N_N@Z 000000018003d480 f i libucrtd:output.obj
 0001:0003c900       ??$type_case_integer@$09@?$output_processor@_WV?$string_output_adapter@_W@__crt_stdio_output@@V?$positional_parameter_base@_WV?$string_output_adapter@_W@__crt_stdio_output@@@2@@__crt_stdio_output@@AEAA_N_N@Z 000000018003d900 f i libucrtd:output.obj
 0001:0003cd80       ??$type_case_integer@$09@?$output_processor@_WV?$string_output_adapter@_W@__crt_stdio_output@@V?$standard_base@_WV?$string_output_adapter@_W@__crt_stdio_output@@@2@@__crt_stdio_output@@AEAA_N_N@Z 000000018003dd80 f i libucrtd:output.obj
 0001:0003d200       ??$type_case_integer@$0BA@@?$output_processor@DV?$stream_output_adapter@D@__crt_stdio_output@@V?$format_validation_base@DV?$stream_output_adapter@D@__crt_stdio_output@@@2@@__crt_stdio_output@@AEAA_N_N@Z 000000018003e200 f i libucrtd:output.obj
 0001:0003d680       ??$type_case_integer@$0BA@@?$output_processor@DV?$stream_output_adapter@D@__crt_stdio_output@@V?$positional_parameter_base@DV?$stream_output_adapter@D@__crt_stdio_output@@@2@@__crt_stdio_output@@AEAA_N_N@Z 000000018003e680 f i libucrtd:output.obj
 0001:0003db00       ??$type_case_integer@$0BA@@?$output_processor@DV?$stream_output_adapter@D@__crt_stdio_output@@V?$standard_base@DV?$stream_output_adapter@D@__crt_stdio_output@@@2@@__crt_stdio_output@@AEAA_N_N@Z 000000018003eb00 f i libucrtd:output.obj
 0001:0003df80       ??$type_case_integer@$0BA@@?$output_processor@DV?$string_output_adapter@D@__crt_stdio_output@@V?$format_validation_base@DV?$string_output_adapter@D@__crt_stdio_output@@@2@@__crt_stdio_output@@AEAA_N_N@Z 000000018003ef80 f i libucrtd:output.obj
 0001:0003e400       ??$type_case_integer@$0BA@@?$output_processor@DV?$string_output_adapter@D@__crt_stdio_output@@V?$positional_parameter_base@DV?$string_output_adapter@D@__crt_stdio_output@@@2@@__crt_stdio_output@@AEAA_N_N@Z 000000018003f400 f i libucrtd:output.obj
 0001:0003e880       ??$type_case_integer@$0BA@@?$output_processor@DV?$string_output_adapter@D@__crt_stdio_output@@V?$standard_base@DV?$string_output_adapter@D@__crt_stdio_output@@@2@@__crt_stdio_output@@AEAA_N_N@Z 000000018003f880 f i libucrtd:output.obj
 0001:0003ed00       ??$type_case_integer@$0BA@@?$output_processor@_WV?$stream_output_adapter@_W@__crt_stdio_output@@V?$format_validation_base@_WV?$stream_output_adapter@_W@__crt_stdio_output@@@2@@__crt_stdio_output@@AEAA_N_N@Z 000000018003fd00 f i libucrtd:output.obj
 0001:0003f180       ??$type_case_integer@$0BA@@?$output_processor@_WV?$stream_output_adapter@_W@__crt_stdio_output@@V?$positional_parameter_base@_WV?$stream_output_adapter@_W@__crt_stdio_output@@@2@@__crt_stdio_output@@AEAA_N_N@Z 0000000180040180 f i libucrtd:output.obj
 0001:0003f600       ??$type_case_integer@$0BA@@?$output_processor@_WV?$stream_output_adapter@_W@__crt_stdio_output@@V?$standard_base@_WV?$stream_output_adapter@_W@__crt_stdio_output@@@2@@__crt_stdio_output@@AEAA_N_N@Z 0000000180040600 f i libucrtd:output.obj
 0001:0003fa80       ??$type_case_integer@$0BA@@?$output_processor@_WV?$string_output_adapter@_W@__crt_stdio_output@@V?$format_validation_base@_WV?$string_output_adapter@_W@__crt_stdio_output@@@2@@__crt_stdio_output@@AEAA_N_N@Z 0000000180040a80 f i libucrtd:output.obj
 0001:0003ff00       ??$type_case_integer@$0BA@@?$output_processor@_WV?$string_output_adapter@_W@__crt_stdio_output@@V?$positional_parameter_base@_WV?$string_output_adapter@_W@__crt_stdio_output@@@2@@__crt_stdio_output@@AEAA_N_N@Z 0000000180040f00 f i libucrtd:output.obj
 0001:00040380       ??$type_case_integer@$0BA@@?$output_processor@_WV?$string_output_adapter@_W@__crt_stdio_output@@V?$standard_base@_WV?$string_output_adapter@_W@__crt_stdio_output@@@2@@__crt_stdio_output@@AEAA_N_N@Z 0000000180041380 f i libucrtd:output.obj
 0001:00040800       ??$type_case_integer_parse_into_buffer@I$07@?$output_processor@DV?$stream_output_adapter@D@__crt_stdio_output@@V?$format_validation_base@DV?$stream_output_adapter@D@__crt_stdio_output@@@2@@__crt_stdio_output@@AEAAXI_N@Z 0000000180041800 f i libucrtd:output.obj
 0001:00040930       ??$type_case_integer_parse_into_buffer@I$07@?$output_processor@DV?$stream_output_adapter@D@__crt_stdio_output@@V?$positional_parameter_base@DV?$stream_output_adapter@D@__crt_stdio_output@@@2@@__crt_stdio_output@@AEAAXI_N@Z 0000000180041930 f i libucrtd:output.obj
 0001:00040a60       ??$type_case_integer_parse_into_buffer@I$07@?$output_processor@DV?$stream_output_adapter@D@__crt_stdio_output@@V?$standard_base@DV?$stream_output_adapter@D@__crt_stdio_output@@@2@@__crt_stdio_output@@AEAAXI_N@Z 0000000180041a60 f i libucrtd:output.obj
 0001:00040b90       ??$type_case_integer_parse_into_buffer@I$07@?$output_processor@DV?$string_output_adapter@D@__crt_stdio_output@@V?$format_validation_base@DV?$string_output_adapter@D@__crt_stdio_output@@@2@@__crt_stdio_output@@AEAAXI_N@Z 0000000180041b90 f i libucrtd:output.obj
 0001:00040cc0       ??$type_case_integer_parse_into_buffer@I$07@?$output_processor@DV?$string_output_adapter@D@__crt_stdio_output@@V?$positional_parameter_base@DV?$string_output_adapter@D@__crt_stdio_output@@@2@@__crt_stdio_output@@AEAAXI_N@Z 0000000180041cc0 f i libucrtd:output.obj
 0001:00040df0       ??$type_case_integer_parse_into_buffer@I$07@?$output_processor@DV?$string_output_adapter@D@__crt_stdio_output@@V?$standard_base@DV?$string_output_adapter@D@__crt_stdio_output@@@2@@__crt_stdio_output@@AEAAXI_N@Z 0000000180041df0 f i libucrtd:output.obj
 0001:00040f20       ??$type_case_integer_parse_into_buffer@I$07@?$output_processor@_WV?$stream_output_adapter@_W@__crt_stdio_output@@V?$format_validation_base@_WV?$stream_output_adapter@_W@__crt_stdio_output@@@2@@__crt_stdio_output@@AEAAXI_N@Z 0000000180041f20 f i libucrtd:output.obj
 0001:00041060       ??$type_case_integer_parse_into_buffer@I$07@?$output_processor@_WV?$stream_output_adapter@_W@__crt_stdio_output@@V?$positional_parameter_base@_WV?$stream_output_adapter@_W@__crt_stdio_output@@@2@@__crt_stdio_output@@AEAAXI_N@Z 0000000180042060 f i libucrtd:output.obj
 0001:000411a0       ??$type_case_integer_parse_into_buffer@I$07@?$output_processor@_WV?$stream_output_adapter@_W@__crt_stdio_output@@V?$standard_base@_WV?$stream_output_adapter@_W@__crt_stdio_output@@@2@@__crt_stdio_output@@AEAAXI_N@Z 00000001800421a0 f i libucrtd:output.obj
 0001:000412e0       ??$type_case_integer_parse_into_buffer@I$07@?$output_processor@_WV?$string_output_adapter@_W@__crt_stdio_output@@V?$format_validation_base@_WV?$string_output_adapter@_W@__crt_stdio_output@@@2@@__crt_stdio_output@@AEAAXI_N@Z 00000001800422e0 f i libucrtd:output.obj
 0001:00041420       ??$type_case_integer_parse_into_buffer@I$07@?$output_processor@_WV?$string_output_adapter@_W@__crt_stdio_output@@V?$positional_parameter_base@_WV?$string_output_adapter@_W@__crt_stdio_output@@@2@@__crt_stdio_output@@AEAAXI_N@Z 0000000180042420 f i libucrtd:output.obj
 0001:00041560       ??$type_case_integer_parse_into_buffer@I$07@?$output_processor@_WV?$string_output_adapter@_W@__crt_stdio_output@@V?$standard_base@_WV?$string_output_adapter@_W@__crt_stdio_output@@@2@@__crt_stdio_output@@AEAAXI_N@Z 0000000180042560 f i libucrtd:output.obj
 0001:000416a0       ??$type_case_integer_parse_into_buffer@I$09@?$output_processor@DV?$stream_output_adapter@D@__crt_stdio_output@@V?$format_validation_base@DV?$stream_output_adapter@D@__crt_stdio_output@@@2@@__crt_stdio_output@@AEAAXI_N@Z 00000001800426a0 f i libucrtd:output.obj
 0001:000417d0       ??$type_case_integer_parse_into_buffer@I$09@?$output_processor@DV?$stream_output_adapter@D@__crt_stdio_output@@V?$positional_parameter_base@DV?$stream_output_adapter@D@__crt_stdio_output@@@2@@__crt_stdio_output@@AEAAXI_N@Z 00000001800427d0 f i libucrtd:output.obj
 0001:00041900       ??$type_case_integer_parse_into_buffer@I$09@?$output_processor@DV?$stream_output_adapter@D@__crt_stdio_output@@V?$standard_base@DV?$stream_output_adapter@D@__crt_stdio_output@@@2@@__crt_stdio_output@@AEAAXI_N@Z 0000000180042900 f i libucrtd:output.obj
 0001:00041a30       ??$type_case_integer_parse_into_buffer@I$09@?$output_processor@DV?$string_output_adapter@D@__crt_stdio_output@@V?$format_validation_base@DV?$string_output_adapter@D@__crt_stdio_output@@@2@@__crt_stdio_output@@AEAAXI_N@Z 0000000180042a30 f i libucrtd:output.obj
 0001:00041b60       ??$type_case_integer_parse_into_buffer@I$09@?$output_processor@DV?$string_output_adapter@D@__crt_stdio_output@@V?$positional_parameter_base@DV?$string_output_adapter@D@__crt_stdio_output@@@2@@__crt_stdio_output@@AEAAXI_N@Z 0000000180042b60 f i libucrtd:output.obj
 0001:00041c90       ??$type_case_integer_parse_into_buffer@I$09@?$output_processor@DV?$string_output_adapter@D@__crt_stdio_output@@V?$standard_base@DV?$string_output_adapter@D@__crt_stdio_output@@@2@@__crt_stdio_output@@AEAAXI_N@Z 0000000180042c90 f i libucrtd:output.obj
 0001:00041dc0       ??$type_case_integer_parse_into_buffer@I$09@?$output_processor@_WV?$stream_output_adapter@_W@__crt_stdio_output@@V?$format_validation_base@_WV?$stream_output_adapter@_W@__crt_stdio_output@@@2@@__crt_stdio_output@@AEAAXI_N@Z 0000000180042dc0 f i libucrtd:output.obj
 0001:00041f00       ??$type_case_integer_parse_into_buffer@I$09@?$output_processor@_WV?$stream_output_adapter@_W@__crt_stdio_output@@V?$positional_parameter_base@_WV?$stream_output_adapter@_W@__crt_stdio_output@@@2@@__crt_stdio_output@@AEAAXI_N@Z 0000000180042f00 f i libucrtd:output.obj
 0001:00042040       ??$type_case_integer_parse_into_buffer@I$09@?$output_processor@_WV?$stream_output_adapter@_W@__crt_stdio_output@@V?$standard_base@_WV?$stream_output_adapter@_W@__crt_stdio_output@@@2@@__crt_stdio_output@@AEAAXI_N@Z 0000000180043040 f i libucrtd:output.obj
 0001:00042180       ??$type_case_integer_parse_into_buffer@I$09@?$output_processor@_WV?$string_output_adapter@_W@__crt_stdio_output@@V?$format_validation_base@_WV?$string_output_adapter@_W@__crt_stdio_output@@@2@@__crt_stdio_output@@AEAAXI_N@Z 0000000180043180 f i libucrtd:output.obj
 0001:000422c0       ??$type_case_integer_parse_into_buffer@I$09@?$output_processor@_WV?$string_output_adapter@_W@__crt_stdio_output@@V?$positional_parameter_base@_WV?$string_output_adapter@_W@__crt_stdio_output@@@2@@__crt_stdio_output@@AEAAXI_N@Z 00000001800432c0 f i libucrtd:output.obj
 0001:00042400       ??$type_case_integer_parse_into_buffer@I$09@?$output_processor@_WV?$string_output_adapter@_W@__crt_stdio_output@@V?$standard_base@_WV?$string_output_adapter@_W@__crt_stdio_output@@@2@@__crt_stdio_output@@AEAAXI_N@Z 0000000180043400 f i libucrtd:output.obj
 0001:00042540       ??$type_case_integer_parse_into_buffer@I$0BA@@?$output_processor@DV?$stream_output_adapter@D@__crt_stdio_output@@V?$format_validation_base@DV?$stream_output_adapter@D@__crt_stdio_output@@@2@@__crt_stdio_output@@AEAAXI_N@Z 0000000180043540 f i libucrtd:output.obj
 0001:00042670       ??$type_case_integer_parse_into_buffer@I$0BA@@?$output_processor@DV?$stream_output_adapter@D@__crt_stdio_output@@V?$positional_parameter_base@DV?$stream_output_adapter@D@__crt_stdio_output@@@2@@__crt_stdio_output@@AEAAXI_N@Z 0000000180043670 f i libucrtd:output.obj
 0001:000427a0       ??$type_case_integer_parse_into_buffer@I$0BA@@?$output_processor@DV?$stream_output_adapter@D@__crt_stdio_output@@V?$standard_base@DV?$stream_output_adapter@D@__crt_stdio_output@@@2@@__crt_stdio_output@@AEAAXI_N@Z 00000001800437a0 f i libucrtd:output.obj
 0001:000428d0       ??$type_case_integer_parse_into_buffer@I$0BA@@?$output_processor@DV?$string_output_adapter@D@__crt_stdio_output@@V?$format_validation_base@DV?$string_output_adapter@D@__crt_stdio_output@@@2@@__crt_stdio_output@@AEAAXI_N@Z 00000001800438d0 f i libucrtd:output.obj
 0001:00042a00       ??$type_case_integer_parse_into_buffer@I$0BA@@?$output_processor@DV?$string_output_adapter@D@__crt_stdio_output@@V?$positional_parameter_base@DV?$string_output_adapter@D@__crt_stdio_output@@@2@@__crt_stdio_output@@AEAAXI_N@Z 0000000180043a00 f i libucrtd:output.obj
 0001:00042b30       ??$type_case_integer_parse_into_buffer@I$0BA@@?$output_processor@DV?$string_output_adapter@D@__crt_stdio_output@@V?$standard_base@DV?$string_output_adapter@D@__crt_stdio_output@@@2@@__crt_stdio_output@@AEAAXI_N@Z 0000000180043b30 f i libucrtd:output.obj
 0001:00042c60       ??$type_case_integer_parse_into_buffer@I$0BA@@?$output_processor@_WV?$stream_output_adapter@_W@__crt_stdio_output@@V?$format_validation_base@_WV?$stream_output_adapter@_W@__crt_stdio_output@@@2@@__crt_stdio_output@@AEAAXI_N@Z 0000000180043c60 f i libucrtd:output.obj
 0001:00042da0       ??$type_case_integer_parse_into_buffer@I$0BA@@?$output_processor@_WV?$stream_output_adapter@_W@__crt_stdio_output@@V?$positional_parameter_base@_WV?$stream_output_adapter@_W@__crt_stdio_output@@@2@@__crt_stdio_output@@AEAAXI_N@Z 0000000180043da0 f i libucrtd:output.obj
 0001:00042ee0       ??$type_case_integer_parse_into_buffer@I$0BA@@?$output_processor@_WV?$stream_output_adapter@_W@__crt_stdio_output@@V?$standard_base@_WV?$stream_output_adapter@_W@__crt_stdio_output@@@2@@__crt_stdio_output@@AEAAXI_N@Z 0000000180043ee0 f i libucrtd:output.obj
 0001:00043020       ??$type_case_integer_parse_into_buffer@I$0BA@@?$output_processor@_WV?$string_output_adapter@_W@__crt_stdio_output@@V?$format_validation_base@_WV?$string_output_adapter@_W@__crt_stdio_output@@@2@@__crt_stdio_output@@AEAAXI_N@Z 0000000180044020 f i libucrtd:output.obj
 0001:00043160       ??$type_case_integer_parse_into_buffer@I$0BA@@?$output_processor@_WV?$string_output_adapter@_W@__crt_stdio_output@@V?$positional_parameter_base@_WV?$string_output_adapter@_W@__crt_stdio_output@@@2@@__crt_stdio_output@@AEAAXI_N@Z 0000000180044160 f i libucrtd:output.obj
 0001:000432a0       ??$type_case_integer_parse_into_buffer@I$0BA@@?$output_processor@_WV?$string_output_adapter@_W@__crt_stdio_output@@V?$standard_base@_WV?$string_output_adapter@_W@__crt_stdio_output@@@2@@__crt_stdio_output@@AEAAXI_N@Z 00000001800442a0 f i libucrtd:output.obj
 0001:000433e0       ??$type_case_integer_parse_into_buffer@_K$07@?$output_processor@DV?$stream_output_adapter@D@__crt_stdio_output@@V?$format_validation_base@DV?$stream_output_adapter@D@__crt_stdio_output@@@2@@__crt_stdio_output@@AEAAX_K_N@Z 00000001800443e0 f i libucrtd:output.obj
 0001:00043520       ??$type_case_integer_parse_into_buffer@_K$07@?$output_processor@DV?$stream_output_adapter@D@__crt_stdio_output@@V?$positional_parameter_base@DV?$stream_output_adapter@D@__crt_stdio_output@@@2@@__crt_stdio_output@@AEAAX_K_N@Z 0000000180044520 f i libucrtd:output.obj
 0001:00043660       ??$type_case_integer_parse_into_buffer@_K$07@?$output_processor@DV?$stream_output_adapter@D@__crt_stdio_output@@V?$standard_base@DV?$stream_output_adapter@D@__crt_stdio_output@@@2@@__crt_stdio_output@@AEAAX_K_N@Z 0000000180044660 f i libucrtd:output.obj
 0001:000437a0       ??$type_case_integer_parse_into_buffer@_K$07@?$output_processor@DV?$string_output_adapter@D@__crt_stdio_output@@V?$format_validation_base@DV?$string_output_adapter@D@__crt_stdio_output@@@2@@__crt_stdio_output@@AEAAX_K_N@Z 00000001800447a0 f i libucrtd:output.obj
 0001:000438e0       ??$type_case_integer_parse_into_buffer@_K$07@?$output_processor@DV?$string_output_adapter@D@__crt_stdio_output@@V?$positional_parameter_base@DV?$string_output_adapter@D@__crt_stdio_output@@@2@@__crt_stdio_output@@AEAAX_K_N@Z 00000001800448e0 f i libucrtd:output.obj
 0001:00043a20       ??$type_case_integer_parse_into_buffer@_K$07@?$output_processor@DV?$string_output_adapter@D@__crt_stdio_output@@V?$standard_base@DV?$string_output_adapter@D@__crt_stdio_output@@@2@@__crt_stdio_output@@AEAAX_K_N@Z 0000000180044a20 f i libucrtd:output.obj
 0001:00043b60       ??$type_case_integer_parse_into_buffer@_K$07@?$output_processor@_WV?$stream_output_adapter@_W@__crt_stdio_output@@V?$format_validation_base@_WV?$stream_output_adapter@_W@__crt_stdio_output@@@2@@__crt_stdio_output@@AEAAX_K_N@Z 0000000180044b60 f i libucrtd:output.obj
 0001:00043ca0       ??$type_case_integer_parse_into_buffer@_K$07@?$output_processor@_WV?$stream_output_adapter@_W@__crt_stdio_output@@V?$positional_parameter_base@_WV?$stream_output_adapter@_W@__crt_stdio_output@@@2@@__crt_stdio_output@@AEAAX_K_N@Z 0000000180044ca0 f i libucrtd:output.obj
 0001:00043de0       ??$type_case_integer_parse_into_buffer@_K$07@?$output_processor@_WV?$stream_output_adapter@_W@__crt_stdio_output@@V?$standard_base@_WV?$stream_output_adapter@_W@__crt_stdio_output@@@2@@__crt_stdio_output@@AEAAX_K_N@Z 0000000180044de0 f i libucrtd:output.obj
 0001:00043f20       ??$type_case_integer_parse_into_buffer@_K$07@?$output_processor@_WV?$string_output_adapter@_W@__crt_stdio_output@@V?$format_validation_base@_WV?$string_output_adapter@_W@__crt_stdio_output@@@2@@__crt_stdio_output@@AEAAX_K_N@Z 0000000180044f20 f i libucrtd:output.obj
 0001:00044060       ??$type_case_integer_parse_into_buffer@_K$07@?$output_processor@_WV?$string_output_adapter@_W@__crt_stdio_output@@V?$positional_parameter_base@_WV?$string_output_adapter@_W@__crt_stdio_output@@@2@@__crt_stdio_output@@AEAAX_K_N@Z 0000000180045060 f i libucrtd:output.obj
 0001:000441a0       ??$type_case_integer_parse_into_buffer@_K$07@?$output_processor@_WV?$string_output_adapter@_W@__crt_stdio_output@@V?$standard_base@_WV?$string_output_adapter@_W@__crt_stdio_output@@@2@@__crt_stdio_output@@AEAAX_K_N@Z 00000001800451a0 f i libucrtd:output.obj
 0001:000442e0       ??$type_case_integer_parse_into_buffer@_K$09@?$output_processor@DV?$stream_output_adapter@D@__crt_stdio_output@@V?$format_validation_base@DV?$stream_output_adapter@D@__crt_stdio_output@@@2@@__crt_stdio_output@@AEAAX_K_N@Z 00000001800452e0 f i libucrtd:output.obj
 0001:00044420       ??$type_case_integer_parse_into_buffer@_K$09@?$output_processor@DV?$stream_output_adapter@D@__crt_stdio_output@@V?$positional_parameter_base@DV?$stream_output_adapter@D@__crt_stdio_output@@@2@@__crt_stdio_output@@AEAAX_K_N@Z 0000000180045420 f i libucrtd:output.obj
 0001:00044560       ??$type_case_integer_parse_into_buffer@_K$09@?$output_processor@DV?$stream_output_adapter@D@__crt_stdio_output@@V?$standard_base@DV?$stream_output_adapter@D@__crt_stdio_output@@@2@@__crt_stdio_output@@AEAAX_K_N@Z 0000000180045560 f i libucrtd:output.obj
 0001:000446a0       ??$type_case_integer_parse_into_buffer@_K$09@?$output_processor@DV?$string_output_adapter@D@__crt_stdio_output@@V?$format_validation_base@DV?$string_output_adapter@D@__crt_stdio_output@@@2@@__crt_stdio_output@@AEAAX_K_N@Z 00000001800456a0 f i libucrtd:output.obj
 0001:000447e0       ??$type_case_integer_parse_into_buffer@_K$09@?$output_processor@DV?$string_output_adapter@D@__crt_stdio_output@@V?$positional_parameter_base@DV?$string_output_adapter@D@__crt_stdio_output@@@2@@__crt_stdio_output@@AEAAX_K_N@Z 00000001800457e0 f i libucrtd:output.obj
 0001:00044920       ??$type_case_integer_parse_into_buffer@_K$09@?$output_processor@DV?$string_output_adapter@D@__crt_stdio_output@@V?$standard_base@DV?$string_output_adapter@D@__crt_stdio_output@@@2@@__crt_stdio_output@@AEAAX_K_N@Z 0000000180045920 f i libucrtd:output.obj
 0001:00044a60       ??$type_case_integer_parse_into_buffer@_K$09@?$output_processor@_WV?$stream_output_adapter@_W@__crt_stdio_output@@V?$format_validation_base@_WV?$stream_output_adapter@_W@__crt_stdio_output@@@2@@__crt_stdio_output@@AEAAX_K_N@Z 0000000180045a60 f i libucrtd:output.obj
 0001:00044ba0       ??$type_case_integer_parse_into_buffer@_K$09@?$output_processor@_WV?$stream_output_adapter@_W@__crt_stdio_output@@V?$positional_parameter_base@_WV?$stream_output_adapter@_W@__crt_stdio_output@@@2@@__crt_stdio_output@@AEAAX_K_N@Z 0000000180045ba0 f i libucrtd:output.obj
 0001:00044ce0       ??$type_case_integer_parse_into_buffer@_K$09@?$output_processor@_WV?$stream_output_adapter@_W@__crt_stdio_output@@V?$standard_base@_WV?$stream_output_adapter@_W@__crt_stdio_output@@@2@@__crt_stdio_output@@AEAAX_K_N@Z 0000000180045ce0 f i libucrtd:output.obj
 0001:00044e20       ??$type_case_integer_parse_into_buffer@_K$09@?$output_processor@_WV?$string_output_adapter@_W@__crt_stdio_output@@V?$format_validation_base@_WV?$string_output_adapter@_W@__crt_stdio_output@@@2@@__crt_stdio_output@@AEAAX_K_N@Z 0000000180045e20 f i libucrtd:output.obj
 0001:00044f60       ??$type_case_integer_parse_into_buffer@_K$09@?$output_processor@_WV?$string_output_adapter@_W@__crt_stdio_output@@V?$positional_parameter_base@_WV?$string_output_adapter@_W@__crt_stdio_output@@@2@@__crt_stdio_output@@AEAAX_K_N@Z 0000000180045f60 f i libucrtd:output.obj
 0001:000450a0       ??$type_case_integer_parse_into_buffer@_K$09@?$output_processor@_WV?$string_output_adapter@_W@__crt_stdio_output@@V?$standard_base@_WV?$string_output_adapter@_W@__crt_stdio_output@@@2@@__crt_stdio_output@@AEAAX_K_N@Z 00000001800460a0 f i libucrtd:output.obj
 0001:000451e0       ??$type_case_integer_parse_into_buffer@_K$0BA@@?$output_processor@DV?$stream_output_adapter@D@__crt_stdio_output@@V?$format_validation_base@DV?$stream_output_adapter@D@__crt_stdio_output@@@2@@__crt_stdio_output@@AEAAX_K_N@Z 00000001800461e0 f i libucrtd:output.obj
 0001:00045320       ??$type_case_integer_parse_into_buffer@_K$0BA@@?$output_processor@DV?$stream_output_adapter@D@__crt_stdio_output@@V?$positional_parameter_base@DV?$stream_output_adapter@D@__crt_stdio_output@@@2@@__crt_stdio_output@@AEAAX_K_N@Z 0000000180046320 f i libucrtd:output.obj
 0001:00045460       ??$type_case_integer_parse_into_buffer@_K$0BA@@?$output_processor@DV?$stream_output_adapter@D@__crt_stdio_output@@V?$standard_base@DV?$stream_output_adapter@D@__crt_stdio_output@@@2@@__crt_stdio_output@@AEAAX_K_N@Z 0000000180046460 f i libucrtd:output.obj
 0001:000455a0       ??$type_case_integer_parse_into_buffer@_K$0BA@@?$output_processor@DV?$string_output_adapter@D@__crt_stdio_output@@V?$format_validation_base@DV?$string_output_adapter@D@__crt_stdio_output@@@2@@__crt_stdio_output@@AEAAX_K_N@Z 00000001800465a0 f i libucrtd:output.obj
 0001:000456e0       ??$type_case_integer_parse_into_buffer@_K$0BA@@?$output_processor@DV?$string_output_adapter@D@__crt_stdio_output@@V?$positional_parameter_base@DV?$string_output_adapter@D@__crt_stdio_output@@@2@@__crt_stdio_output@@AEAAX_K_N@Z 00000001800466e0 f i libucrtd:output.obj
 0001:00045820       ??$type_case_integer_parse_into_buffer@_K$0BA@@?$output_processor@DV?$string_output_adapter@D@__crt_stdio_output@@V?$standard_base@DV?$string_output_adapter@D@__crt_stdio_output@@@2@@__crt_stdio_output@@AEAAX_K_N@Z 0000000180046820 f i libucrtd:output.obj
 0001:00045960       ??$type_case_integer_parse_into_buffer@_K$0BA@@?$output_processor@_WV?$stream_output_adapter@_W@__crt_stdio_output@@V?$format_validation_base@_WV?$stream_output_adapter@_W@__crt_stdio_output@@@2@@__crt_stdio_output@@AEAAX_K_N@Z 0000000180046960 f i libucrtd:output.obj
 0001:00045aa0       ??$type_case_integer_parse_into_buffer@_K$0BA@@?$output_processor@_WV?$stream_output_adapter@_W@__crt_stdio_output@@V?$positional_parameter_base@_WV?$stream_output_adapter@_W@__crt_stdio_output@@@2@@__crt_stdio_output@@AEAAX_K_N@Z 0000000180046aa0 f i libucrtd:output.obj
 0001:00045be0       ??$type_case_integer_parse_into_buffer@_K$0BA@@?$output_processor@_WV?$stream_output_adapter@_W@__crt_stdio_output@@V?$standard_base@_WV?$stream_output_adapter@_W@__crt_stdio_output@@@2@@__crt_stdio_output@@AEAAX_K_N@Z 0000000180046be0 f i libucrtd:output.obj
 0001:00045d20       ??$type_case_integer_parse_into_buffer@_K$0BA@@?$output_processor@_WV?$string_output_adapter@_W@__crt_stdio_output@@V?$format_validation_base@_WV?$string_output_adapter@_W@__crt_stdio_output@@@2@@__crt_stdio_output@@AEAAX_K_N@Z 0000000180046d20 f i libucrtd:output.obj
 0001:00045e60       ??$type_case_integer_parse_into_buffer@_K$0BA@@?$output_processor@_WV?$string_output_adapter@_W@__crt_stdio_output@@V?$positional_parameter_base@_WV?$string_output_adapter@_W@__crt_stdio_output@@@2@@__crt_stdio_output@@AEAAX_K_N@Z 0000000180046e60 f i libucrtd:output.obj
 0001:00045fa0       ??$type_case_integer_parse_into_buffer@_K$0BA@@?$output_processor@_WV?$string_output_adapter@_W@__crt_stdio_output@@V?$standard_base@_WV?$string_output_adapter@_W@__crt_stdio_output@@@2@@__crt_stdio_output@@AEAAX_K_N@Z 0000000180046fa0 f i libucrtd:output.obj
 0001:000460e0       ??$write_multiple_characters@V?$stream_output_adapter@D@__crt_stdio_output@@D@__crt_stdio_output@@YAXAEBV?$stream_output_adapter@D@0@DHQEAHAEAV__crt_cached_ptd_host@@@Z 00000001800470e0 f i libucrtd:output.obj
 0001:00046150       ??$write_multiple_characters@V?$stream_output_adapter@_W@__crt_stdio_output@@D@__crt_stdio_output@@YAXAEBV?$stream_output_adapter@_W@0@DHQEAHAEAV__crt_cached_ptd_host@@@Z 0000000180047150 f i libucrtd:output.obj
 0001:000461c0       ??$write_multiple_characters@V?$string_output_adapter@D@__crt_stdio_output@@D@__crt_stdio_output@@YAXAEBV?$string_output_adapter@D@0@DHQEAHAEAV__crt_cached_ptd_host@@@Z 00000001800471c0 f i libucrtd:output.obj
 0001:00046230       ??$write_multiple_characters@V?$string_output_adapter@_W@__crt_stdio_output@@D@__crt_stdio_output@@YAXAEBV?$string_output_adapter@_W@0@DHQEAHAEAV__crt_cached_ptd_host@@@Z 0000000180047230 f i libucrtd:output.obj
 0001:00046660       ??0?$c_string_character_source@D@__crt_strtox@@QEAA@QEBDQEAPEBD@Z 0000000180047660 f i libucrtd:output.obj
 0001:000466b0       ??0?$c_string_character_source@_W@__crt_strtox@@QEAA@QEB_WQEAPEB_W@Z 00000001800476b0 f i libucrtd:output.obj
 0001:00046700       ??0?$common_data@D@__crt_stdio_output@@IEAA@AEAV__crt_cached_ptd_host@@@Z 0000000180047700 f i libucrtd:output.obj
 0001:000467c0       ??0?$common_data@_W@__crt_stdio_output@@IEAA@AEAV__crt_cached_ptd_host@@@Z 00000001800477c0 f i libucrtd:output.obj
 0001:00046880       ??0?$output_adapter_data@DV?$stream_output_adapter@D@__crt_stdio_output@@@__crt_stdio_output@@IEAA@AEBV?$stream_output_adapter@D@1@_KQEBDAEAV__crt_cached_ptd_host@@QEAD@Z 0000000180047880 f i libucrtd:output.obj
 0001:00046900       ??0?$output_adapter_data@DV?$string_output_adapter@D@__crt_stdio_output@@@__crt_stdio_output@@IEAA@AEBV?$string_output_adapter@D@1@_KQEBDAEAV__crt_cached_ptd_host@@QEAD@Z 0000000180047900 f i libucrtd:output.obj
 0001:00046980       ??0?$output_adapter_data@_WV?$stream_output_adapter@_W@__crt_stdio_output@@@__crt_stdio_output@@IEAA@AEBV?$stream_output_adapter@_W@1@_KQEB_WAEAV__crt_cached_ptd_host@@QEAD@Z 0000000180047980 f i libucrtd:output.obj
 0001:00046a00       ??0?$output_adapter_data@_WV?$string_output_adapter@_W@__crt_stdio_output@@@__crt_stdio_output@@IEAA@AEBV?$string_output_adapter@_W@1@_KQEB_WAEAV__crt_cached_ptd_host@@QEAD@Z 0000000180047a00 f i libucrtd:output.obj
 0001:00046a80       ??0?$output_processor@DV?$stream_output_adapter@D@__crt_stdio_output@@V?$format_validation_base@DV?$stream_output_adapter@D@__crt_stdio_output@@@2@@__crt_stdio_output@@QEAA@AEBV?$stream_output_adapter@D@1@_KQEBDAEAV__crt_cached_ptd_host@@QEAD@Z 0000000180047a80 f i libucrtd:output.obj
 0001:00046ad0       ??0?$output_processor@DV?$stream_output_adapter@D@__crt_stdio_output@@V?$positional_parameter_base@DV?$stream_output_adapter@D@__crt_stdio_output@@@2@@__crt_stdio_output@@QEAA@AEBV?$stream_output_adapter@D@1@_KQEBDAEAV__crt_cached_ptd_host@@QEAD@Z 0000000180047ad0 f i libucrtd:output.obj
 0001:00046b20       ??0?$output_processor@DV?$stream_output_adapter@D@__crt_stdio_output@@V?$standard_base@DV?$stream_output_adapter@D@__crt_stdio_output@@@2@@__crt_stdio_output@@QEAA@AEBV?$stream_output_adapter@D@1@_KQEBDAEAV__crt_cached_ptd_host@@QEAD@Z 0000000180047b20 f i libucrtd:output.obj
 0001:00046b70       ??0?$output_processor@DV?$string_output_adapter@D@__crt_stdio_output@@V?$format_validation_base@DV?$string_output_adapter@D@__crt_stdio_output@@@2@@__crt_stdio_output@@QEAA@AEBV?$string_output_adapter@D@1@_KQEBDAEAV__crt_cached_ptd_host@@QEAD@Z 0000000180047b70 f i libucrtd:output.obj
 0001:00046bc0       ??0?$output_processor@DV?$string_output_adapter@D@__crt_stdio_output@@V?$positional_parameter_base@DV?$string_output_adapter@D@__crt_stdio_output@@@2@@__crt_stdio_output@@QEAA@AEBV?$string_output_adapter@D@1@_KQEBDAEAV__crt_cached_ptd_host@@QEAD@Z 0000000180047bc0 f i libucrtd:output.obj
 0001:00046c10       ??0?$output_processor@DV?$string_output_adapter@D@__crt_stdio_output@@V?$standard_base@DV?$string_output_adapter@D@__crt_stdio_output@@@2@@__crt_stdio_output@@QEAA@AEBV?$string_output_adapter@D@1@_KQEBDAEAV__crt_cached_ptd_host@@QEAD@Z 0000000180047c10 f i libucrtd:output.obj
 0001:00046c60       ??0?$output_processor@_WV?$stream_output_adapter@_W@__crt_stdio_output@@V?$format_validation_base@_WV?$stream_output_adapter@_W@__crt_stdio_output@@@2@@__crt_stdio_output@@QEAA@AEBV?$stream_output_adapter@_W@1@_KQEB_WAEAV__crt_cached_ptd_host@@QEAD@Z 0000000180047c60 f i libucrtd:output.obj
 0001:00046cb0       ??0?$output_processor@_WV?$stream_output_adapter@_W@__crt_stdio_output@@V?$positional_parameter_base@_WV?$stream_output_adapter@_W@__crt_stdio_output@@@2@@__crt_stdio_output@@QEAA@AEBV?$stream_output_adapter@_W@1@_KQEB_WAEAV__crt_cached_ptd_host@@QEAD@Z 0000000180047cb0 f i libucrtd:output.obj
 0001:00046d00       ??0?$output_processor@_WV?$stream_output_adapter@_W@__crt_stdio_output@@V?$standard_base@_WV?$stream_output_adapter@_W@__crt_stdio_output@@@2@@__crt_stdio_output@@QEAA@AEBV?$stream_output_adapter@_W@1@_KQEB_WAEAV__crt_cached_ptd_host@@QEAD@Z 0000000180047d00 f i libucrtd:output.obj
 0001:00046d50       ??0?$output_processor@_WV?$string_output_adapter@_W@__crt_stdio_output@@V?$format_validation_base@_WV?$string_output_adapter@_W@__crt_stdio_output@@@2@@__crt_stdio_output@@QEAA@AEBV?$string_output_adapter@_W@1@_KQEB_WAEAV__crt_cached_ptd_host@@QEAD@Z 0000000180047d50 f i libucrtd:output.obj
 0001:00046da0       ??0?$output_processor@_WV?$string_output_adapter@_W@__crt_stdio_output@@V?$positional_parameter_base@_WV?$string_output_adapter@_W@__crt_stdio_output@@@2@@__crt_stdio_output@@QEAA@AEBV?$string_output_adapter@_W@1@_KQEB_WAEAV__crt_cached_ptd_host@@QEAD@Z 0000000180047da0 f i libucrtd:output.obj
 0001:00046df0       ??0?$output_processor@_WV?$string_output_adapter@_W@__crt_stdio_output@@V?$standard_base@_WV?$string_output_adapter@_W@__crt_stdio_output@@@2@@__crt_stdio_output@@QEAA@AEBV?$string_output_adapter@_W@1@_KQEB_WAEAV__crt_cached_ptd_host@@QEAD@Z 0000000180047df0 f i libucrtd:output.obj
 0001:00046e40       ??0?$stream_output_adapter@D@__crt_stdio_output@@QEAA@QEAU_iobuf@@@Z 0000000180047e40 f i libucrtd:output.obj
 0001:00046e80       ??0?$stream_output_adapter@_W@__crt_stdio_output@@QEAA@QEAU_iobuf@@@Z 0000000180047e80 f i libucrtd:output.obj
 0001:00046ec0       ??0?$string_output_adapter@D@__crt_stdio_output@@QEAA@QEAU?$string_output_adapter_context@D@1@@Z 0000000180047ec0 f i libucrtd:output.obj
 0001:00046ee0       ??0?$string_output_adapter@_W@__crt_stdio_output@@QEAA@QEAU?$string_output_adapter_context@_W@1@@Z 0000000180047ee0 f i libucrtd:output.obj
 0001:00046f00       ??0__acrt_stdio_temporary_buffering_guard@@QEAA@QEAU_iobuf@@AEAV__crt_cached_ptd_host@@@Z 0000000180047f00 f i libucrtd:output.obj
 0001:00046f50       ??0__crt_stdio_stream@@QEAA@QEAU_iobuf@@@Z 0000000180047f50 f i libucrtd:output.obj
 0001:00046f70       ??0formatting_buffer@__crt_stdio_output@@QEAA@XZ 0000000180047f70 f i libucrtd:output.obj
 0001:00046fb0       ??0guard@?$cached@H@__crt_cached_ptd_host@@QEAA@AEAU12@@Z 0000000180047fb0 f i libucrtd:output.obj
 0001:00046ff0       ??1?$c_string_character_source@D@__crt_strtox@@QEAA@XZ 0000000180047ff0 f i libucrtd:output.obj
 0001:00047020       ??1?$c_string_character_source@_W@__crt_strtox@@QEAA@XZ 0000000180048020 f i libucrtd:output.obj
 0001:00047050       ??1?$common_data@D@__crt_stdio_output@@QEAA@XZ 0000000180048050 f i libucrtd:output.obj
 0001:00047070       ??1?$common_data@_W@__crt_stdio_output@@QEAA@XZ 0000000180048070 f i libucrtd:output.obj
 0001:00047090       ??1?$format_validation_base@DV?$stream_output_adapter@D@__crt_stdio_output@@@__crt_stdio_output@@QEAA@XZ 0000000180048090 f i libucrtd:output.obj
 0001:000470b0       ??1?$format_validation_base@DV?$string_output_adapter@D@__crt_stdio_output@@@__crt_stdio_output@@QEAA@XZ 00000001800480b0 f i libucrtd:output.obj
 0001:000470d0       ??1?$format_validation_base@_WV?$stream_output_adapter@_W@__crt_stdio_output@@@__crt_stdio_output@@QEAA@XZ 00000001800480d0 f i libucrtd:output.obj
 0001:000470f0       ??1?$format_validation_base@_WV?$string_output_adapter@_W@__crt_stdio_output@@@__crt_stdio_output@@QEAA@XZ 00000001800480f0 f i libucrtd:output.obj
 0001:00047110       ??1?$output_adapter_data@DV?$stream_output_adapter@D@__crt_stdio_output@@@__crt_stdio_output@@QEAA@XZ 0000000180048110 f i libucrtd:output.obj
 0001:00047130       ??1?$output_adapter_data@DV?$string_output_adapter@D@__crt_stdio_output@@@__crt_stdio_output@@QEAA@XZ 0000000180048130 f i libucrtd:output.obj
 0001:00047150       ??1?$output_adapter_data@_WV?$stream_output_adapter@_W@__crt_stdio_output@@@__crt_stdio_output@@QEAA@XZ 0000000180048150 f i libucrtd:output.obj
 0001:00047170       ??1?$output_adapter_data@_WV?$string_output_adapter@_W@__crt_stdio_output@@@__crt_stdio_output@@QEAA@XZ 0000000180048170 f i libucrtd:output.obj
 0001:00047190       ??1?$output_processor@DV?$stream_output_adapter@D@__crt_stdio_output@@V?$format_validation_base@DV?$stream_output_adapter@D@__crt_stdio_output@@@2@@__crt_stdio_output@@QEAA@XZ 0000000180048190 f i libucrtd:output.obj
 0001:000471b0       ??1?$output_processor@DV?$stream_output_adapter@D@__crt_stdio_output@@V?$positional_parameter_base@DV?$stream_output_adapter@D@__crt_stdio_output@@@2@@__crt_stdio_output@@QEAA@XZ 00000001800481b0 f i libucrtd:output.obj
 0001:000471d0       ??1?$output_processor@DV?$stream_output_adapter@D@__crt_stdio_output@@V?$standard_base@DV?$stream_output_adapter@D@__crt_stdio_output@@@2@@__crt_stdio_output@@QEAA@XZ 00000001800481d0 f i libucrtd:output.obj
 0001:000471f0       ??1?$output_processor@DV?$string_output_adapter@D@__crt_stdio_output@@V?$format_validation_base@DV?$string_output_adapter@D@__crt_stdio_output@@@2@@__crt_stdio_output@@QEAA@XZ 00000001800481f0 f i libucrtd:output.obj
 0001:00047210       ??1?$output_processor@DV?$string_output_adapter@D@__crt_stdio_output@@V?$positional_parameter_base@DV?$string_output_adapter@D@__crt_stdio_output@@@2@@__crt_stdio_output@@QEAA@XZ 0000000180048210 f i libucrtd:output.obj
 0001:00047230       ??1?$output_processor@DV?$string_output_adapter@D@__crt_stdio_output@@V?$standard_base@DV?$string_output_adapter@D@__crt_stdio_output@@@2@@__crt_stdio_output@@QEAA@XZ 0000000180048230 f i libucrtd:output.obj
 0001:00047250       ??1?$output_processor@_WV?$stream_output_adapter@_W@__crt_stdio_output@@V?$format_validation_base@_WV?$stream_output_adapter@_W@__crt_stdio_output@@@2@@__crt_stdio_output@@QEAA@XZ 0000000180048250 f i libucrtd:output.obj
 0001:00047270       ??1?$output_processor@_WV?$stream_output_adapter@_W@__crt_stdio_output@@V?$positional_parameter_base@_WV?$stream_output_adapter@_W@__crt_stdio_output@@@2@@__crt_stdio_output@@QEAA@XZ 0000000180048270 f i libucrtd:output.obj
 0001:00047290       ??1?$output_processor@_WV?$stream_output_adapter@_W@__crt_stdio_output@@V?$standard_base@_WV?$stream_output_adapter@_W@__crt_stdio_output@@@2@@__crt_stdio_output@@QEAA@XZ 0000000180048290 f i libucrtd:output.obj
 0001:000472b0       ??1?$output_processor@_WV?$string_output_adapter@_W@__crt_stdio_output@@V?$format_validation_base@_WV?$string_output_adapter@_W@__crt_stdio_output@@@2@@__crt_stdio_output@@QEAA@XZ 00000001800482b0 f i libucrtd:output.obj
 0001:000472d0       ??1?$output_processor@_WV?$string_output_adapter@_W@__crt_stdio_output@@V?$positional_parameter_base@_WV?$string_output_adapter@_W@__crt_stdio_output@@@2@@__crt_stdio_output@@QEAA@XZ 00000001800482d0 f i libucrtd:output.obj
 0001:000472f0       ??1?$output_processor@_WV?$string_output_adapter@_W@__crt_stdio_output@@V?$standard_base@_WV?$string_output_adapter@_W@__crt_stdio_output@@@2@@__crt_stdio_output@@QEAA@XZ 00000001800482f0 f i libucrtd:output.obj
 0001:00047310       ??1?$positional_parameter_base@DV?$stream_output_adapter@D@__crt_stdio_output@@@__crt_stdio_output@@QEAA@XZ 0000000180048310 f i libucrtd:output.obj
 0001:00047330       ??1?$positional_parameter_base@DV?$string_output_adapter@D@__crt_stdio_output@@@__crt_stdio_output@@QEAA@XZ 0000000180048330 f i libucrtd:output.obj
 0001:00047350       ??1?$positional_parameter_base@_WV?$stream_output_adapter@_W@__crt_stdio_output@@@__crt_stdio_output@@QEAA@XZ 0000000180048350 f i libucrtd:output.obj
 0001:00047370       ??1?$positional_parameter_base@_WV?$string_output_adapter@_W@__crt_stdio_output@@@__crt_stdio_output@@QEAA@XZ 0000000180048370 f i libucrtd:output.obj
 0001:00047390       ??1?$standard_base@DV?$stream_output_adapter@D@__crt_stdio_output@@@__crt_stdio_output@@QEAA@XZ 0000000180048390 f i libucrtd:output.obj
 0001:000473b0       ??1?$standard_base@DV?$string_output_adapter@D@__crt_stdio_output@@@__crt_stdio_output@@QEAA@XZ 00000001800483b0 f i libucrtd:output.obj
 0001:000473d0       ??1?$standard_base@_WV?$stream_output_adapter@_W@__crt_stdio_output@@@__crt_stdio_output@@QEAA@XZ 00000001800483d0 f i libucrtd:output.obj
 0001:000473f0       ??1?$standard_base@_WV?$string_output_adapter@_W@__crt_stdio_output@@@__crt_stdio_output@@QEAA@XZ 00000001800483f0 f i libucrtd:output.obj
 0001:00047410       ??1__acrt_stdio_temporary_buffering_guard@@QEAA@XZ 0000000180048410 f i libucrtd:output.obj
 0001:00047440       ??1formatting_buffer@__crt_stdio_output@@QEAA@XZ 0000000180048440 f i libucrtd:output.obj
 0001:00047470       ??1guard@?$cached@H@__crt_cached_ptd_host@@QEAA@XZ 0000000180048470 f i libucrtd:output.obj
 0001:000474a0       ??4?$__crt_unique_heap_ptr@DU__crt_internal_free_policy@@@@QEAAAEAV0@$$QEAV0@@Z 00000001800484a0 f i libucrtd:output.obj
 0001:000474e0       ??A?$spectre_mitigated_lookup_table@Ustate_transition_pair@__crt_stdio_output@@$0IA@@__crt_stdio_output@@QEBAAEBUstate_transition_pair@1@_K@Z 00000001800484e0 f i libucrtd:output.obj
 0001:00047500       ??C__crt_stdio_stream@@QEBAPEAU__crt_stdio_stream_data@@XZ 0000000180048500 f i libucrtd:output.obj
 0001:00047d50       ?adjust_hexit@?$output_processor@DV?$stream_output_adapter@D@__crt_stdio_output@@V?$format_validation_base@DV?$stream_output_adapter@D@__crt_stdio_output@@@2@@__crt_stdio_output@@CADH_N@Z 0000000180048d50 f i libucrtd:output.obj
 0001:00047da0       ?adjust_hexit@?$output_processor@DV?$stream_output_adapter@D@__crt_stdio_output@@V?$positional_parameter_base@DV?$stream_output_adapter@D@__crt_stdio_output@@@2@@__crt_stdio_output@@CADH_N@Z 0000000180048da0 f i libucrtd:output.obj
 0001:00047df0       ?adjust_hexit@?$output_processor@DV?$stream_output_adapter@D@__crt_stdio_output@@V?$standard_base@DV?$stream_output_adapter@D@__crt_stdio_output@@@2@@__crt_stdio_output@@CADH_N@Z 0000000180048df0 f i libucrtd:output.obj
 0001:00047e40       ?adjust_hexit@?$output_processor@DV?$string_output_adapter@D@__crt_stdio_output@@V?$format_validation_base@DV?$string_output_adapter@D@__crt_stdio_output@@@2@@__crt_stdio_output@@CADH_N@Z 0000000180048e40 f i libucrtd:output.obj
 0001:00047e90       ?adjust_hexit@?$output_processor@DV?$string_output_adapter@D@__crt_stdio_output@@V?$positional_parameter_base@DV?$string_output_adapter@D@__crt_stdio_output@@@2@@__crt_stdio_output@@CADH_N@Z 0000000180048e90 f i libucrtd:output.obj
 0001:00047ee0       ?adjust_hexit@?$output_processor@DV?$string_output_adapter@D@__crt_stdio_output@@V?$standard_base@DV?$string_output_adapter@D@__crt_stdio_output@@@2@@__crt_stdio_output@@CADH_N@Z 0000000180048ee0 f i libucrtd:output.obj
 0001:00047f30       ?adjust_hexit@?$output_processor@_WV?$stream_output_adapter@_W@__crt_stdio_output@@V?$format_validation_base@_WV?$stream_output_adapter@_W@__crt_stdio_output@@@2@@__crt_stdio_output@@CADH_N@Z 0000000180048f30 f i libucrtd:output.obj
 0001:00047f80       ?adjust_hexit@?$output_processor@_WV?$stream_output_adapter@_W@__crt_stdio_output@@V?$positional_parameter_base@_WV?$stream_output_adapter@_W@__crt_stdio_output@@@2@@__crt_stdio_output@@CADH_N@Z 0000000180048f80 f i libucrtd:output.obj
 0001:00047fd0       ?adjust_hexit@?$output_processor@_WV?$stream_output_adapter@_W@__crt_stdio_output@@V?$standard_base@_WV?$stream_output_adapter@_W@__crt_stdio_output@@@2@@__crt_stdio_output@@CADH_N@Z 0000000180048fd0 f i libucrtd:output.obj
 0001:00048020       ?adjust_hexit@?$output_processor@_WV?$string_output_adapter@_W@__crt_stdio_output@@V?$format_validation_base@_WV?$string_output_adapter@_W@__crt_stdio_output@@@2@@__crt_stdio_output@@CADH_N@Z 0000000180049020 f i libucrtd:output.obj
 0001:00048070       ?adjust_hexit@?$output_processor@_WV?$string_output_adapter@_W@__crt_stdio_output@@V?$positional_parameter_base@_WV?$string_output_adapter@_W@__crt_stdio_output@@@2@@__crt_stdio_output@@CADH_N@Z 0000000180049070 f i libucrtd:output.obj
 0001:000480c0       ?adjust_hexit@?$output_processor@_WV?$string_output_adapter@_W@__crt_stdio_output@@V?$standard_base@_WV?$string_output_adapter@_W@__crt_stdio_output@@@2@@__crt_stdio_output@@CADH_N@Z 00000001800490c0 f i libucrtd:output.obj
 0001:00048110       ?advance_to_next_pass@?$positional_parameter_base@DV?$stream_output_adapter@D@__crt_stdio_output@@@__crt_stdio_output@@IEAA_NXZ 0000000180049110 f i libucrtd:output.obj
 0001:000481c0       ?advance_to_next_pass@?$positional_parameter_base@DV?$string_output_adapter@D@__crt_stdio_output@@@__crt_stdio_output@@IEAA_NXZ 00000001800491c0 f i libucrtd:output.obj
 0001:00048270       ?advance_to_next_pass@?$positional_parameter_base@_WV?$stream_output_adapter@_W@__crt_stdio_output@@@__crt_stdio_output@@IEAA_NXZ 0000000180049270 f i libucrtd:output.obj
 0001:00048320       ?advance_to_next_pass@?$positional_parameter_base@_WV?$string_output_adapter@_W@__crt_stdio_output@@@__crt_stdio_output@@IEAA_NXZ 0000000180049320 f i libucrtd:output.obj
 0001:000483d0       ?advance_to_next_pass@?$standard_base@DV?$stream_output_adapter@D@__crt_stdio_output@@@__crt_stdio_output@@IEAA_NXZ 00000001800493d0 f i libucrtd:output.obj
 0001:00048420       ?advance_to_next_pass@?$standard_base@DV?$string_output_adapter@D@__crt_stdio_output@@@__crt_stdio_output@@IEAA_NXZ 0000000180049420 f i libucrtd:output.obj
 0001:00048470       ?advance_to_next_pass@?$standard_base@_WV?$stream_output_adapter@_W@__crt_stdio_output@@@__crt_stdio_output@@IEAA_NXZ 0000000180049470 f i libucrtd:output.obj
 0001:000484c0       ?advance_to_next_pass@?$standard_base@_WV?$string_output_adapter@_W@__crt_stdio_output@@@__crt_stdio_output@@IEAA_NXZ 00000001800494c0 f i libucrtd:output.obj
 0001:00048510       ?check@?$cached@H@__crt_cached_ptd_host@@QEBA_NH@Z 0000000180049510 f i libucrtd:output.obj
 0001:00048550       ?create_guard@?$cached@H@__crt_cached_ptd_host@@QEAA?AVguard@12@XZ 0000000180049550 f i libucrtd:output.obj
 0001:00048580       ?crop_zeroes@__crt_stdio_output@@YAXPEADQEAU__crt_locale_pointers@@@Z 0000000180049580 f i libucrtd:output.obj
 0001:000486d0       ?disable@guard@?$cached@H@__crt_cached_ptd_host@@QEAAXXZ 00000001800496d0 f i libucrtd:output.obj
 0001:000486e0       ?enable@guard@?$cached@H@__crt_cached_ptd_host@@QEAAXXZ 00000001800496e0 f i libucrtd:output.obj
 0001:000486f0       ?find_next_state@?$output_processor@DV?$stream_output_adapter@D@__crt_stdio_output@@V?$format_validation_base@DV?$stream_output_adapter@D@__crt_stdio_output@@@2@@__crt_stdio_output@@AEBA?AW4state@2@DW432@@Z 00000001800496f0 f i libucrtd:output.obj
 0001:00048790       ?find_next_state@?$output_processor@DV?$stream_output_adapter@D@__crt_stdio_output@@V?$positional_parameter_base@DV?$stream_output_adapter@D@__crt_stdio_output@@@2@@__crt_stdio_output@@AEBA?AW4state@2@DW432@@Z 0000000180049790 f i libucrtd:output.obj
 0001:00048830       ?find_next_state@?$output_processor@DV?$stream_output_adapter@D@__crt_stdio_output@@V?$standard_base@DV?$stream_output_adapter@D@__crt_stdio_output@@@2@@__crt_stdio_output@@AEBA?AW4state@2@DW432@@Z 0000000180049830 f i libucrtd:output.obj
 0001:000488d0       ?find_next_state@?$output_processor@DV?$string_output_adapter@D@__crt_stdio_output@@V?$format_validation_base@DV?$string_output_adapter@D@__crt_stdio_output@@@2@@__crt_stdio_output@@AEBA?AW4state@2@DW432@@Z 00000001800498d0 f i libucrtd:output.obj
 0001:00048970       ?find_next_state@?$output_processor@DV?$string_output_adapter@D@__crt_stdio_output@@V?$positional_parameter_base@DV?$string_output_adapter@D@__crt_stdio_output@@@2@@__crt_stdio_output@@AEBA?AW4state@2@DW432@@Z 0000000180049970 f i libucrtd:output.obj
 0001:00048a10       ?find_next_state@?$output_processor@DV?$string_output_adapter@D@__crt_stdio_output@@V?$standard_base@DV?$string_output_adapter@D@__crt_stdio_output@@@2@@__crt_stdio_output@@AEBA?AW4state@2@DW432@@Z 0000000180049a10 f i libucrtd:output.obj
 0001:00048ab0       ?find_next_state@?$output_processor@_WV?$stream_output_adapter@_W@__crt_stdio_output@@V?$format_validation_base@_WV?$stream_output_adapter@_W@__crt_stdio_output@@@2@@__crt_stdio_output@@AEBA?AW4state@2@_WW432@@Z 0000000180049ab0 f i libucrtd:output.obj
 0001:00048b50       ?find_next_state@?$output_processor@_WV?$stream_output_adapter@_W@__crt_stdio_output@@V?$positional_parameter_base@_WV?$stream_output_adapter@_W@__crt_stdio_output@@@2@@__crt_stdio_output@@AEBA?AW4state@2@_WW432@@Z 0000000180049b50 f i libucrtd:output.obj
 0001:00048bf0       ?find_next_state@?$output_processor@_WV?$stream_output_adapter@_W@__crt_stdio_output@@V?$standard_base@_WV?$stream_output_adapter@_W@__crt_stdio_output@@@2@@__crt_stdio_output@@AEBA?AW4state@2@_WW432@@Z 0000000180049bf0 f i libucrtd:output.obj
 0001:00048c90       ?find_next_state@?$output_processor@_WV?$string_output_adapter@_W@__crt_stdio_output@@V?$format_validation_base@_WV?$string_output_adapter@_W@__crt_stdio_output@@@2@@__crt_stdio_output@@AEBA?AW4state@2@_WW432@@Z 0000000180049c90 f i libucrtd:output.obj
 0001:00048d30       ?find_next_state@?$output_processor@_WV?$string_output_adapter@_W@__crt_stdio_output@@V?$positional_parameter_base@_WV?$string_output_adapter@_W@__crt_stdio_output@@@2@@__crt_stdio_output@@AEBA?AW4state@2@_WW432@@Z 0000000180049d30 f i libucrtd:output.obj
 0001:00048dd0       ?find_next_state@?$output_processor@_WV?$string_output_adapter@_W@__crt_stdio_output@@V?$standard_base@_WV?$string_output_adapter@_W@__crt_stdio_output@@@2@@__crt_stdio_output@@AEBA?AW4state@2@_WW432@@Z 0000000180049dd0 f i libucrtd:output.obj
 0001:00048e70       ?force_decimal_point@__crt_stdio_output@@YAXPEADQEAU__crt_locale_pointers@@@Z 0000000180049e70 f i libucrtd:output.obj
 0001:00048f70       ?get@?$c_string_character_source@D@__crt_strtox@@QEAADXZ 0000000180049f70 f i libucrtd:output.obj
 0001:00048fb0       ?get@?$c_string_character_source@_W@__crt_strtox@@QEAA_WXZ 0000000180049fb0 f i libucrtd:output.obj
 0001:00048ff0       ?get_errno@__crt_cached_ptd_host@@QEAA@XZ 0000000180049ff0 f i libucrtd:output.obj
 0001:00049000       ?get_flags@__crt_stdio_stream@@QEBAJXZ 000000018004a000 f i libucrtd:output.obj
 0001:00049030       ?get_locale@__crt_cached_ptd_host@@QEAAPEAU__crt_locale_pointers@@XZ 000000018004a030 f i libucrtd:output.obj
 0001:00049060       ?get_parameter_type@?$positional_parameter_base@DV?$stream_output_adapter@D@__crt_stdio_output@@@__crt_stdio_output@@CA?AW4parameter_type@12@F@Z 000000018004a060 f i libucrtd:output.obj
 0001:00049070       ?get_parameter_type@?$positional_parameter_base@DV?$stream_output_adapter@D@__crt_stdio_output@@@__crt_stdio_output@@CA?AW4parameter_type@12@G@Z 000000018004a070 f i libucrtd:output.obj
 0001:00049080       ?get_parameter_type@?$positional_parameter_base@DV?$stream_output_adapter@D@__crt_stdio_output@@@__crt_stdio_output@@CA?AW4parameter_type@12@H@Z 000000018004a080 f i libucrtd:output.obj
 0001:00049090       ?get_parameter_type@?$positional_parameter_base@DV?$stream_output_adapter@D@__crt_stdio_output@@@__crt_stdio_output@@CA?AW4parameter_type@12@I@Z 000000018004a090 f i libucrtd:output.obj
 0001:000490a0       ?get_parameter_type@?$positional_parameter_base@DV?$stream_output_adapter@D@__crt_stdio_output@@@__crt_stdio_output@@CA?AW4parameter_type@12@U_CRT_DOUBLE@@@Z 000000018004a0a0 f i libucrtd:output.obj
 0001:000490b0       ?get_parameter_type@?$positional_parameter_base@DV?$stream_output_adapter@D@__crt_stdio_output@@@__crt_stdio_output@@CA?AW4parameter_type@12@_J@Z 000000018004a0b0 f i libucrtd:output.obj
 0001:000490c0       ?get_parameter_type@?$positional_parameter_base@DV?$stream_output_adapter@D@__crt_stdio_output@@@__crt_stdio_output@@CA?AW4parameter_type@12@_K@Z 000000018004a0c0 f i libucrtd:output.obj
 0001:000490d0       ?get_parameter_type@?$positional_parameter_base@DV?$stream_output_adapter@D@__crt_stdio_output@@@__crt_stdio_output@@CA?AW4parameter_type@12@_W@Z 000000018004a0d0 f i libucrtd:output.obj
 0001:000490e0       ?get_parameter_type@?$positional_parameter_base@DV?$string_output_adapter@D@__crt_stdio_output@@@__crt_stdio_output@@CA?AW4parameter_type@12@F@Z 000000018004a0e0 f i libucrtd:output.obj
 0001:000490f0       ?get_parameter_type@?$positional_parameter_base@DV?$string_output_adapter@D@__crt_stdio_output@@@__crt_stdio_output@@CA?AW4parameter_type@12@G@Z 000000018004a0f0 f i libucrtd:output.obj
 0001:00049100       ?get_parameter_type@?$positional_parameter_base@DV?$string_output_adapter@D@__crt_stdio_output@@@__crt_stdio_output@@CA?AW4parameter_type@12@H@Z 000000018004a100 f i libucrtd:output.obj
 0001:00049110       ?get_parameter_type@?$positional_parameter_base@DV?$string_output_adapter@D@__crt_stdio_output@@@__crt_stdio_output@@CA?AW4parameter_type@12@I@Z 000000018004a110 f i libucrtd:output.obj
 0001:00049120       ?get_parameter_type@?$positional_parameter_base@DV?$string_output_adapter@D@__crt_stdio_output@@@__crt_stdio_output@@CA?AW4parameter_type@12@U_CRT_DOUBLE@@@Z 000000018004a120 f i libucrtd:output.obj
 0001:00049130       ?get_parameter_type@?$positional_parameter_base@DV?$string_output_adapter@D@__crt_stdio_output@@@__crt_stdio_output@@CA?AW4parameter_type@12@_J@Z 000000018004a130 f i libucrtd:output.obj
 0001:00049140       ?get_parameter_type@?$positional_parameter_base@DV?$string_output_adapter@D@__crt_stdio_output@@@__crt_stdio_output@@CA?AW4parameter_type@12@_K@Z 000000018004a140 f i libucrtd:output.obj
 0001:00049150       ?get_parameter_type@?$positional_parameter_base@DV?$string_output_adapter@D@__crt_stdio_output@@@__crt_stdio_output@@CA?AW4parameter_type@12@_W@Z 000000018004a150 f i libucrtd:output.obj
 0001:00049160       ?get_parameter_type@?$positional_parameter_base@_WV?$stream_output_adapter@_W@__crt_stdio_output@@@__crt_stdio_output@@CA?AW4parameter_type@12@F@Z 000000018004a160 f i libucrtd:output.obj
 0001:00049170       ?get_parameter_type@?$positional_parameter_base@_WV?$stream_output_adapter@_W@__crt_stdio_output@@@__crt_stdio_output@@CA?AW4parameter_type@12@G@Z 000000018004a170 f i libucrtd:output.obj
 0001:00049180       ?get_parameter_type@?$positional_parameter_base@_WV?$stream_output_adapter@_W@__crt_stdio_output@@@__crt_stdio_output@@CA?AW4parameter_type@12@H@Z 000000018004a180 f i libucrtd:output.obj
 0001:00049190       ?get_parameter_type@?$positional_parameter_base@_WV?$stream_output_adapter@_W@__crt_stdio_output@@@__crt_stdio_output@@CA?AW4parameter_type@12@I@Z 000000018004a190 f i libucrtd:output.obj
 0001:000491a0       ?get_parameter_type@?$positional_parameter_base@_WV?$stream_output_adapter@_W@__crt_stdio_output@@@__crt_stdio_output@@CA?AW4parameter_type@12@U_CRT_DOUBLE@@@Z 000000018004a1a0 f i libucrtd:output.obj
 0001:000491b0       ?get_parameter_type@?$positional_parameter_base@_WV?$stream_output_adapter@_W@__crt_stdio_output@@@__crt_stdio_output@@CA?AW4parameter_type@12@_J@Z 000000018004a1b0 f i libucrtd:output.obj
 0001:000491c0       ?get_parameter_type@?$positional_parameter_base@_WV?$stream_output_adapter@_W@__crt_stdio_output@@@__crt_stdio_output@@CA?AW4parameter_type@12@_K@Z 000000018004a1c0 f i libucrtd:output.obj
 0001:000491d0       ?get_parameter_type@?$positional_parameter_base@_WV?$stream_output_adapter@_W@__crt_stdio_output@@@__crt_stdio_output@@CA?AW4parameter_type@12@_W@Z 000000018004a1d0 f i libucrtd:output.obj
 0001:000491e0       ?get_parameter_type@?$positional_parameter_base@_WV?$string_output_adapter@_W@__crt_stdio_output@@@__crt_stdio_output@@CA?AW4parameter_type@12@F@Z 000000018004a1e0 f i libucrtd:output.obj
 0001:000491f0       ?get_parameter_type@?$positional_parameter_base@_WV?$string_output_adapter@_W@__crt_stdio_output@@@__crt_stdio_output@@CA?AW4parameter_type@12@G@Z 000000018004a1f0 f i libucrtd:output.obj
 0001:00049200       ?get_parameter_type@?$positional_parameter_base@_WV?$string_output_adapter@_W@__crt_stdio_output@@@__crt_stdio_output@@CA?AW4parameter_type@12@H@Z 000000018004a200 f i libucrtd:output.obj
 0001:00049210       ?get_parameter_type@?$positional_parameter_base@_WV?$string_output_adapter@_W@__crt_stdio_output@@@__crt_stdio_output@@CA?AW4parameter_type@12@I@Z 000000018004a210 f i libucrtd:output.obj
 0001:00049220       ?get_parameter_type@?$positional_parameter_base@_WV?$string_output_adapter@_W@__crt_stdio_output@@@__crt_stdio_output@@CA?AW4parameter_type@12@U_CRT_DOUBLE@@@Z 000000018004a220 f i libucrtd:output.obj
 0001:00049230       ?get_parameter_type@?$positional_parameter_base@_WV?$string_output_adapter@_W@__crt_stdio_output@@@__crt_stdio_output@@CA?AW4parameter_type@12@_J@Z 000000018004a230 f i libucrtd:output.obj
 0001:00049240       ?get_parameter_type@?$positional_parameter_base@_WV?$string_output_adapter@_W@__crt_stdio_output@@@__crt_stdio_output@@CA?AW4parameter_type@12@_K@Z 000000018004a240 f i libucrtd:output.obj
 0001:00049250       ?get_parameter_type@?$positional_parameter_base@_WV?$string_output_adapter@_W@__crt_stdio_output@@@__crt_stdio_output@@CA?AW4parameter_type@12@_W@Z 000000018004a250 f i libucrtd:output.obj
 0001:00049260       ?has_flag@?$output_processor@DV?$stream_output_adapter@D@__crt_stdio_output@@V?$format_validation_base@DV?$stream_output_adapter@D@__crt_stdio_output@@@2@@__crt_stdio_output@@AEBA_NI@Z 000000018004a260 f i libucrtd:output.obj
 0001:000492a0       ?has_flag@?$output_processor@DV?$stream_output_adapter@D@__crt_stdio_output@@V?$positional_parameter_base@DV?$stream_output_adapter@D@__crt_stdio_output@@@2@@__crt_stdio_output@@AEBA_NI@Z 000000018004a2a0 f i libucrtd:output.obj
 0001:000492e0       ?has_flag@?$output_processor@DV?$stream_output_adapter@D@__crt_stdio_output@@V?$standard_base@DV?$stream_output_adapter@D@__crt_stdio_output@@@2@@__crt_stdio_output@@AEBA_NI@Z 000000018004a2e0 f i libucrtd:output.obj
 0001:00049320       ?has_flag@?$output_processor@DV?$string_output_adapter@D@__crt_stdio_output@@V?$format_validation_base@DV?$string_output_adapter@D@__crt_stdio_output@@@2@@__crt_stdio_output@@AEBA_NI@Z 000000018004a320 f i libucrtd:output.obj
 0001:00049360       ?has_flag@?$output_processor@DV?$string_output_adapter@D@__crt_stdio_output@@V?$positional_parameter_base@DV?$string_output_adapter@D@__crt_stdio_output@@@2@@__crt_stdio_output@@AEBA_NI@Z 000000018004a360 f i libucrtd:output.obj
 0001:000493a0       ?has_flag@?$output_processor@DV?$string_output_adapter@D@__crt_stdio_output@@V?$standard_base@DV?$string_output_adapter@D@__crt_stdio_output@@@2@@__crt_stdio_output@@AEBA_NI@Z 000000018004a3a0 f i libucrtd:output.obj
 0001:000493e0       ?has_flag@?$output_processor@_WV?$stream_output_adapter@_W@__crt_stdio_output@@V?$format_validation_base@_WV?$stream_output_adapter@_W@__crt_stdio_output@@@2@@__crt_stdio_output@@AEBA_NI@Z 000000018004a3e0 f i libucrtd:output.obj
 0001:00049420       ?has_flag@?$output_processor@_WV?$stream_output_adapter@_W@__crt_stdio_output@@V?$positional_parameter_base@_WV?$stream_output_adapter@_W@__crt_stdio_output@@@2@@__crt_stdio_output@@AEBA_NI@Z 000000018004a420 f i libucrtd:output.obj
 0001:00049460       ?has_flag@?$output_processor@_WV?$stream_output_adapter@_W@__crt_stdio_output@@V?$standard_base@_WV?$stream_output_adapter@_W@__crt_stdio_output@@@2@@__crt_stdio_output@@AEBA_NI@Z 000000018004a460 f i libucrtd:output.obj
 0001:000494a0       ?has_flag@?$output_processor@_WV?$string_output_adapter@_W@__crt_stdio_output@@V?$format_validation_base@_WV?$string_output_adapter@_W@__crt_stdio_output@@@2@@__crt_stdio_output@@AEBA_NI@Z 000000018004a4a0 f i libucrtd:output.obj
 0001:000494e0       ?has_flag@?$output_processor@_WV?$string_output_adapter@_W@__crt_stdio_output@@V?$positional_parameter_base@_WV?$string_output_adapter@_W@__crt_stdio_output@@@2@@__crt_stdio_output@@AEBA_NI@Z 000000018004a4e0 f i libucrtd:output.obj
 0001:00049520       ?has_flag@?$output_processor@_WV?$string_output_adapter@_W@__crt_stdio_output@@V?$standard_base@_WV?$string_output_adapter@_W@__crt_stdio_output@@@2@@__crt_stdio_output@@AEBA_NI@Z 000000018004a520 f i libucrtd:output.obj
 0001:00049560       ?is_positional_parameter_reappearance_consistent@?$positional_parameter_base@DV?$stream_output_adapter@D@__crt_stdio_output@@@__crt_stdio_output@@AEAA_NAEBUparameter_data@12@W4parameter_type@12@DW4length_modifier@2@@Z 000000018004a560 f i libucrtd:output.obj
 0001:000497c0       ?is_positional_parameter_reappearance_consistent@?$positional_parameter_base@DV?$string_output_adapter@D@__crt_stdio_output@@@__crt_stdio_output@@AEAA_NAEBUparameter_data@12@W4parameter_type@12@DW4length_modifier@2@@Z 000000018004a7c0 f i libucrtd:output.obj
 0001:00049a20       ?is_positional_parameter_reappearance_consistent@?$positional_parameter_base@_WV?$stream_output_adapter@_W@__crt_stdio_output@@@__crt_stdio_output@@AEAA_NAEBUparameter_data@12@W4parameter_type@12@_WW4length_modifier@2@@Z 000000018004aa20 f i libucrtd:output.obj
 0001:00049c80       ?is_positional_parameter_reappearance_consistent@?$positional_parameter_base@_WV?$string_output_adapter@_W@__crt_stdio_output@@@__crt_stdio_output@@AEAA_NAEBUparameter_data@12@W4parameter_type@12@_WW4length_modifier@2@@Z 000000018004ac80 f i libucrtd:output.obj
 0001:00049ee0       ?is_string_backed@__crt_stdio_stream@@QEBA_NXZ 000000018004aee0 f i libucrtd:output.obj
 0001:00049f20       ?maximum_signed_value@__crt_strtox@@YAJK@Z 000000018004af20 f i libucrtd:output.obj
 0001:00049f30       ?minimum_signed_value@__crt_strtox@@YAJK@Z 000000018004af30 f i libucrtd:output.obj
 0001:00049f40       ?narrow_null_string@?$output_processor@DV?$stream_output_adapter@D@__crt_stdio_output@@V?$format_validation_base@DV?$stream_output_adapter@D@__crt_stdio_output@@@2@@__crt_stdio_output@@CAPEADXZ 000000018004af40 f i libucrtd:output.obj
 0001:00049f50       ?narrow_null_string@?$output_processor@DV?$stream_output_adapter@D@__crt_stdio_output@@V?$positional_parameter_base@DV?$stream_output_adapter@D@__crt_stdio_output@@@2@@__crt_stdio_output@@CAPEADXZ 000000018004af50 f i libucrtd:output.obj
 0001:00049f60       ?narrow_null_string@?$output_processor@DV?$stream_output_adapter@D@__crt_stdio_output@@V?$standard_base@DV?$stream_output_adapter@D@__crt_stdio_output@@@2@@__crt_stdio_output@@CAPEADXZ 000000018004af60 f i libucrtd:output.obj
 0001:00049f70       ?narrow_null_string@?$output_processor@DV?$string_output_adapter@D@__crt_stdio_output@@V?$format_validation_base@DV?$string_output_adapter@D@__crt_stdio_output@@@2@@__crt_stdio_output@@CAPEADXZ 000000018004af70 f i libucrtd:output.obj
 0001:00049f80       ?narrow_null_string@?$output_processor@DV?$string_output_adapter@D@__crt_stdio_output@@V?$positional_parameter_base@DV?$string_output_adapter@D@__crt_stdio_output@@@2@@__crt_stdio_output@@CAPEADXZ 000000018004af80 f i libucrtd:output.obj
 0001:00049f90       ?narrow_null_string@?$output_processor@DV?$string_output_adapter@D@__crt_stdio_output@@V?$standard_base@DV?$string_output_adapter@D@__crt_stdio_output@@@2@@__crt_stdio_output@@CAPEADXZ 000000018004af90 f i libucrtd:output.obj
 0001:00049fa0       ?narrow_null_string@?$output_processor@_WV?$stream_output_adapter@_W@__crt_stdio_output@@V?$format_validation_base@_WV?$stream_output_adapter@_W@__crt_stdio_output@@@2@@__crt_stdio_output@@CAPEADXZ 000000018004afa0 f i libucrtd:output.obj
 0001:00049fb0       ?narrow_null_string@?$output_processor@_WV?$stream_output_adapter@_W@__crt_stdio_output@@V?$positional_parameter_base@_WV?$stream_output_adapter@_W@__crt_stdio_output@@@2@@__crt_stdio_output@@CAPEADXZ 000000018004afb0 f i libucrtd:output.obj
 0001:00049fc0       ?narrow_null_string@?$output_processor@_WV?$stream_output_adapter@_W@__crt_stdio_output@@V?$standard_base@_WV?$stream_output_adapter@_W@__crt_stdio_output@@@2@@__crt_stdio_output@@CAPEADXZ 000000018004afc0 f i libucrtd:output.obj
 0001:00049fd0       ?narrow_null_string@?$output_processor@_WV?$string_output_adapter@_W@__crt_stdio_output@@V?$format_validation_base@_WV?$string_output_adapter@_W@__crt_stdio_output@@@2@@__crt_stdio_output@@CAPEADXZ 000000018004afd0 f i libucrtd:output.obj
 0001:00049fe0       ?narrow_null_string@?$output_processor@_WV?$string_output_adapter@_W@__crt_stdio_output@@V?$positional_parameter_base@_WV?$string_output_adapter@_W@__crt_stdio_output@@@2@@__crt_stdio_output@@CAPEADXZ 000000018004afe0 f i libucrtd:output.obj
 0001:00049ff0       ?narrow_null_string@?$output_processor@_WV?$string_output_adapter@_W@__crt_stdio_output@@V?$standard_base@_WV?$string_output_adapter@_W@__crt_stdio_output@@@2@@__crt_stdio_output@@CAPEADXZ 000000018004aff0 f i libucrtd:output.obj
 0001:0004a000       ?parse_digit@__crt_strtox@@YAID@Z 000000018004b000 f i libucrtd:output.obj
 0001:0004a070       ?parse_digit@__crt_strtox@@YAI_W@Z 000000018004b070 f i libucrtd:output.obj
 0001:0004a0c0       ?parse_int_from_format_string@?$output_processor@DV?$stream_output_adapter@D@__crt_stdio_output@@V?$format_validation_base@DV?$stream_output_adapter@D@__crt_stdio_output@@@2@@__crt_stdio_output@@AEAA_NQEAH@Z 000000018004b0c0 f i libucrtd:output.obj
 0001:0004a1c0       ?parse_int_from_format_string@?$output_processor@DV?$stream_output_adapter@D@__crt_stdio_output@@V?$positional_parameter_base@DV?$stream_output_adapter@D@__crt_stdio_output@@@2@@__crt_stdio_output@@AEAA_NQEAH@Z 000000018004b1c0 f i libucrtd:output.obj
 0001:0004a2c0       ?parse_int_from_format_string@?$output_processor@DV?$stream_output_adapter@D@__crt_stdio_output@@V?$standard_base@DV?$stream_output_adapter@D@__crt_stdio_output@@@2@@__crt_stdio_output@@AEAA_NQEAH@Z 000000018004b2c0 f i libucrtd:output.obj
 0001:0004a3c0       ?parse_int_from_format_string@?$output_processor@DV?$string_output_adapter@D@__crt_stdio_output@@V?$format_validation_base@DV?$string_output_adapter@D@__crt_stdio_output@@@2@@__crt_stdio_output@@AEAA_NQEAH@Z 000000018004b3c0 f i libucrtd:output.obj
 0001:0004a4c0       ?parse_int_from_format_string@?$output_processor@DV?$string_output_adapter@D@__crt_stdio_output@@V?$positional_parameter_base@DV?$string_output_adapter@D@__crt_stdio_output@@@2@@__crt_stdio_output@@AEAA_NQEAH@Z 000000018004b4c0 f i libucrtd:output.obj
 0001:0004a5c0       ?parse_int_from_format_string@?$output_processor@DV?$string_output_adapter@D@__crt_stdio_output@@V?$standard_base@DV?$string_output_adapter@D@__crt_stdio_output@@@2@@__crt_stdio_output@@AEAA_NQEAH@Z 000000018004b5c0 f i libucrtd:output.obj
 0001:0004a6c0       ?parse_int_from_format_string@?$output_processor@_WV?$stream_output_adapter@_W@__crt_stdio_output@@V?$format_validation_base@_WV?$stream_output_adapter@_W@__crt_stdio_output@@@2@@__crt_stdio_output@@AEAA_NQEAH@Z 000000018004b6c0 f i libucrtd:output.obj
 0001:0004a7c0       ?parse_int_from_format_string@?$output_processor@_WV?$stream_output_adapter@_W@__crt_stdio_output@@V?$positional_parameter_base@_WV?$stream_output_adapter@_W@__crt_stdio_output@@@2@@__crt_stdio_output@@AEAA_NQEAH@Z 000000018004b7c0 f i libucrtd:output.obj
 0001:0004a8c0       ?parse_int_from_format_string@?$output_processor@_WV?$stream_output_adapter@_W@__crt_stdio_output@@V?$standard_base@_WV?$stream_output_adapter@_W@__crt_stdio_output@@@2@@__crt_stdio_output@@AEAA_NQEAH@Z 000000018004b8c0 f i libucrtd:output.obj
 0001:0004a9c0       ?parse_int_from_format_string@?$output_processor@_WV?$string_output_adapter@_W@__crt_stdio_output@@V?$format_validation_base@_WV?$string_output_adapter@_W@__crt_stdio_output@@@2@@__crt_stdio_output@@AEAA_NQEAH@Z 000000018004b9c0 f i libucrtd:output.obj
 0001:0004aac0       ?parse_int_from_format_string@?$output_processor@_WV?$string_output_adapter@_W@__crt_stdio_output@@V?$positional_parameter_base@_WV?$string_output_adapter@_W@__crt_stdio_output@@@2@@__crt_stdio_output@@AEAA_NQEAH@Z 000000018004bac0 f i libucrtd:output.obj
 0001:0004abc0       ?parse_int_from_format_string@?$output_processor@_WV?$string_output_adapter@_W@__crt_stdio_output@@V?$standard_base@_WV?$string_output_adapter@_W@__crt_stdio_output@@@2@@__crt_stdio_output@@AEAA_NQEAH@Z 000000018004bbc0 f i libucrtd:output.obj
 0001:0004acc0       ?process@?$output_processor@DV?$stream_output_adapter@D@__crt_stdio_output@@V?$format_validation_base@DV?$stream_output_adapter@D@__crt_stdio_output@@@2@@__crt_stdio_output@@QEAAHXZ 000000018004bcc0 f i libucrtd:output.obj
 0001:0004b080       ?process@?$output_processor@DV?$stream_output_adapter@D@__crt_stdio_output@@V?$positional_parameter_base@DV?$stream_output_adapter@D@__crt_stdio_output@@@2@@__crt_stdio_output@@QEAAHXZ 000000018004c080 f i libucrtd:output.obj
 0001:0004b440       ?process@?$output_processor@DV?$stream_output_adapter@D@__crt_stdio_output@@V?$standard_base@DV?$stream_output_adapter@D@__crt_stdio_output@@@2@@__crt_stdio_output@@QEAAHXZ 000000018004c440 f i libucrtd:output.obj
 0001:0004b800       ?process@?$output_processor@DV?$string_output_adapter@D@__crt_stdio_output@@V?$format_validation_base@DV?$string_output_adapter@D@__crt_stdio_output@@@2@@__crt_stdio_output@@QEAAHXZ 000000018004c800 f i libucrtd:output.obj
 0001:0004bbc0       ?process@?$output_processor@DV?$string_output_adapter@D@__crt_stdio_output@@V?$positional_parameter_base@DV?$string_output_adapter@D@__crt_stdio_output@@@2@@__crt_stdio_output@@QEAAHXZ 000000018004cbc0 f i libucrtd:output.obj
 0001:0004bf80       ?process@?$output_processor@DV?$string_output_adapter@D@__crt_stdio_output@@V?$standard_base@DV?$string_output_adapter@D@__crt_stdio_output@@@2@@__crt_stdio_output@@QEAAHXZ 000000018004cf80 f i libucrtd:output.obj
 0001:0004c340       ?process@?$output_processor@_WV?$stream_output_adapter@_W@__crt_stdio_output@@V?$format_validation_base@_WV?$stream_output_adapter@_W@__crt_stdio_output@@@2@@__crt_stdio_output@@QEAAHXZ 000000018004d340 f i libucrtd:output.obj
 0001:0004c700       ?process@?$output_processor@_WV?$stream_output_adapter@_W@__crt_stdio_output@@V?$positional_parameter_base@_WV?$stream_output_adapter@_W@__crt_stdio_output@@@2@@__crt_stdio_output@@QEAAHXZ 000000018004d700 f i libucrtd:output.obj
 0001:0004cac0       ?process@?$output_processor@_WV?$stream_output_adapter@_W@__crt_stdio_output@@V?$standard_base@_WV?$stream_output_adapter@_W@__crt_stdio_output@@@2@@__crt_stdio_output@@QEAAHXZ 000000018004dac0 f i libucrtd:output.obj
 0001:0004ce80       ?process@?$output_processor@_WV?$string_output_adapter@_W@__crt_stdio_output@@V?$format_validation_base@_WV?$string_output_adapter@_W@__crt_stdio_output@@@2@@__crt_stdio_output@@QEAAHXZ 000000018004de80 f i libucrtd:output.obj
 0001:0004d240       ?process@?$output_processor@_WV?$string_output_adapter@_W@__crt_stdio_output@@V?$positional_parameter_base@_WV?$string_output_adapter@_W@__crt_stdio_output@@@2@@__crt_stdio_output@@QEAAHXZ 000000018004e240 f i libucrtd:output.obj
 0001:0004d600       ?process@?$output_processor@_WV?$string_output_adapter@_W@__crt_stdio_output@@V?$standard_base@_WV?$string_output_adapter@_W@__crt_stdio_output@@@2@@__crt_stdio_output@@QEAAHXZ 000000018004e600 f i libucrtd:output.obj
 0001:0004d9c0       ?public_stream@__crt_stdio_stream@@QEBAPEAU_iobuf@@XZ 000000018004e9c0 f i libucrtd:output.obj
 0001:0004d9d0       ?restore_state@?$c_string_character_source@D@__crt_strtox@@QEAA_NQEBD@Z 000000018004e9d0 f i libucrtd:output.obj
 0001:0004d9f0       ?restore_state@?$c_string_character_source@_W@__crt_strtox@@QEAA_NQEB_W@Z 000000018004e9f0 f i libucrtd:output.obj
 0001:0004da10       ?save_state@?$c_string_character_source@D@__crt_strtox@@QEBAPEBDXZ 000000018004ea10 f i libucrtd:output.obj
 0001:0004da20       ?save_state@?$c_string_character_source@_W@__crt_strtox@@QEBAPEB_WXZ 000000018004ea20 f i libucrtd:output.obj
 0001:0004da30       ?set@?$cached@H@__crt_cached_ptd_host@@QEAAHH@Z 000000018004ea30 f i libucrtd:output.obj
 0001:0004da60       ?set_flag@?$output_processor@DV?$stream_output_adapter@D@__crt_stdio_output@@V?$format_validation_base@DV?$stream_output_adapter@D@__crt_stdio_output@@@2@@__crt_stdio_output@@AEAAXI@Z 000000018004ea60 f i libucrtd:output.obj
 0001:0004da80       ?set_flag@?$output_processor@DV?$stream_output_adapter@D@__crt_stdio_output@@V?$positional_parameter_base@DV?$stream_output_adapter@D@__crt_stdio_output@@@2@@__crt_stdio_output@@AEAAXI@Z 000000018004ea80 f i libucrtd:output.obj
 0001:0004daa0       ?set_flag@?$output_processor@DV?$stream_output_adapter@D@__crt_stdio_output@@V?$standard_base@DV?$stream_output_adapter@D@__crt_stdio_output@@@2@@__crt_stdio_output@@AEAAXI@Z 000000018004eaa0 f i libucrtd:output.obj
 0001:0004dac0       ?set_flag@?$output_processor@DV?$string_output_adapter@D@__crt_stdio_output@@V?$format_validation_base@DV?$string_output_adapter@D@__crt_stdio_output@@@2@@__crt_stdio_output@@AEAAXI@Z 000000018004eac0 f i libucrtd:output.obj
 0001:0004dae0       ?set_flag@?$output_processor@DV?$string_output_adapter@D@__crt_stdio_output@@V?$positional_parameter_base@DV?$string_output_adapter@D@__crt_stdio_output@@@2@@__crt_stdio_output@@AEAAXI@Z 000000018004eae0 f i libucrtd:output.obj
 0001:0004db00       ?set_flag@?$output_processor@DV?$string_output_adapter@D@__crt_stdio_output@@V?$standard_base@DV?$string_output_adapter@D@__crt_stdio_output@@@2@@__crt_stdio_output@@AEAAXI@Z 000000018004eb00 f i libucrtd:output.obj
 0001:0004db20       ?set_flag@?$output_processor@_WV?$stream_output_adapter@_W@__crt_stdio_output@@V?$format_validation_base@_WV?$stream_output_adapter@_W@__crt_stdio_output@@@2@@__crt_stdio_output@@AEAAXI@Z 000000018004eb20 f i libucrtd:output.obj
 0001:0004db40       ?set_flag@?$output_processor@_WV?$stream_output_adapter@_W@__crt_stdio_output@@V?$positional_parameter_base@_WV?$stream_output_adapter@_W@__crt_stdio_output@@@2@@__crt_stdio_output@@AEAAXI@Z 000000018004eb40 f i libucrtd:output.obj
 0001:0004db60       ?set_flag@?$output_processor@_WV?$stream_output_adapter@_W@__crt_stdio_output@@V?$standard_base@_WV?$stream_output_adapter@_W@__crt_stdio_output@@@2@@__crt_stdio_output@@AEAAXI@Z 000000018004eb60 f i libucrtd:output.obj
 0001:0004db80       ?set_flag@?$output_processor@_WV?$string_output_adapter@_W@__crt_stdio_output@@V?$format_validation_base@_WV?$string_output_adapter@_W@__crt_stdio_output@@@2@@__crt_stdio_output@@AEAAXI@Z 000000018004eb80 f i libucrtd:output.obj
 0001:0004dba0       ?set_flag@?$output_processor@_WV?$string_output_adapter@_W@__crt_stdio_output@@V?$positional_parameter_base@_WV?$string_output_adapter@_W@__crt_stdio_output@@@2@@__crt_stdio_output@@AEAAXI@Z 000000018004eba0 f i libucrtd:output.obj
 0001:0004dbc0       ?set_flag@?$output_processor@_WV?$string_output_adapter@_W@__crt_stdio_output@@V?$standard_base@_WV?$string_output_adapter@_W@__crt_stdio_output@@@2@@__crt_stdio_output@@AEAAXI@Z 000000018004ebc0 f i libucrtd:output.obj
 0001:0004dbe0       ?should_format@?$positional_parameter_base@DV?$stream_output_adapter@D@__crt_stdio_output@@@__crt_stdio_output@@IEAA_NXZ 000000018004ebe0 f i libucrtd:output.obj
 0001:0004dc20       ?should_format@?$positional_parameter_base@DV?$string_output_adapter@D@__crt_stdio_output@@@__crt_stdio_output@@IEAA_NXZ 000000018004ec20 f i libucrtd:output.obj
 0001:0004dc60       ?should_format@?$positional_parameter_base@_WV?$stream_output_adapter@_W@__crt_stdio_output@@@__crt_stdio_output@@IEAA_NXZ 000000018004ec60 f i libucrtd:output.obj
 0001:0004dca0       ?should_format@?$positional_parameter_base@_WV?$string_output_adapter@_W@__crt_stdio_output@@@__crt_stdio_output@@IEAA_NXZ 000000018004eca0 f i libucrtd:output.obj
 0001:0004dce0       ?should_format@?$standard_base@DV?$stream_output_adapter@D@__crt_stdio_output@@@__crt_stdio_output@@IEAA_NXZ 000000018004ece0 f i libucrtd:output.obj
 0001:0004dcf0       ?should_format@?$standard_base@DV?$string_output_adapter@D@__crt_stdio_output@@@__crt_stdio_output@@IEAA_NXZ 000000018004ecf0 f i libucrtd:output.obj
 0001:0004dd00       ?should_format@?$standard_base@_WV?$stream_output_adapter@_W@__crt_stdio_output@@@__crt_stdio_output@@IEAA_NXZ 000000018004ed00 f i libucrtd:output.obj
 0001:0004dd10       ?should_format@?$standard_base@_WV?$string_output_adapter@_W@__crt_stdio_output@@@__crt_stdio_output@@IEAA_NXZ 000000018004ed10 f i libucrtd:output.obj
 0001:0004dd20       ?should_skip_normal_state_processing@?$positional_parameter_base@DV?$stream_output_adapter@D@__crt_stdio_output@@@__crt_stdio_output@@IEAA_NXZ 000000018004ed20 f i libucrtd:output.obj
 0001:0004dd70       ?should_skip_normal_state_processing@?$positional_parameter_base@DV?$string_output_adapter@D@__crt_stdio_output@@@__crt_stdio_output@@IEAA_NXZ 000000018004ed70 f i libucrtd:output.obj
 0001:0004ddc0       ?should_skip_normal_state_processing@?$positional_parameter_base@_WV?$stream_output_adapter@_W@__crt_stdio_output@@@__crt_stdio_output@@IEAA_NXZ 000000018004edc0 f i libucrtd:output.obj
 0001:0004de10       ?should_skip_normal_state_processing@?$positional_parameter_base@_WV?$string_output_adapter@_W@__crt_stdio_output@@@__crt_stdio_output@@IEAA_NXZ 000000018004ee10 f i libucrtd:output.obj
 0001:0004de60       ?should_skip_normal_state_processing@?$standard_base@DV?$stream_output_adapter@D@__crt_stdio_output@@@__crt_stdio_output@@IEAA_NXZ 000000018004ee60 f i libucrtd:output.obj
 0001:0004de70       ?should_skip_normal_state_processing@?$standard_base@DV?$string_output_adapter@D@__crt_stdio_output@@@__crt_stdio_output@@IEAA_NXZ 000000018004ee70 f i libucrtd:output.obj
 0001:0004de80       ?should_skip_normal_state_processing@?$standard_base@_WV?$stream_output_adapter@_W@__crt_stdio_output@@@__crt_stdio_output@@IEAA_NXZ 000000018004ee80 f i libucrtd:output.obj
 0001:0004de90       ?should_skip_normal_state_processing@?$standard_base@_WV?$string_output_adapter@_W@__crt_stdio_output@@@__crt_stdio_output@@IEAA_NXZ 000000018004ee90 f i libucrtd:output.obj
 0001:0004dea0       ?should_skip_type_state_output@?$positional_parameter_base@DV?$stream_output_adapter@D@__crt_stdio_output@@@__crt_stdio_output@@IEBA_NXZ 000000018004eea0 f i libucrtd:output.obj
 0001:0004dee0       ?should_skip_type_state_output@?$positional_parameter_base@DV?$string_output_adapter@D@__crt_stdio_output@@@__crt_stdio_output@@IEBA_NXZ 000000018004eee0 f i libucrtd:output.obj
 0001:0004df20       ?should_skip_type_state_output@?$positional_parameter_base@_WV?$stream_output_adapter@_W@__crt_stdio_output@@@__crt_stdio_output@@IEBA_NXZ 000000018004ef20 f i libucrtd:output.obj
 0001:0004df60       ?should_skip_type_state_output@?$positional_parameter_base@_WV?$string_output_adapter@_W@__crt_stdio_output@@@__crt_stdio_output@@IEBA_NXZ 000000018004ef60 f i libucrtd:output.obj
 0001:0004dfa0       ?should_skip_type_state_output@?$standard_base@DV?$stream_output_adapter@D@__crt_stdio_output@@@__crt_stdio_output@@IEBA_NXZ 000000018004efa0 f i libucrtd:output.obj
 0001:0004dfb0       ?should_skip_type_state_output@?$standard_base@DV?$string_output_adapter@D@__crt_stdio_output@@@__crt_stdio_output@@IEBA_NXZ 000000018004efb0 f i libucrtd:output.obj
 0001:0004dfc0       ?should_skip_type_state_output@?$standard_base@_WV?$stream_output_adapter@_W@__crt_stdio_output@@@__crt_stdio_output@@IEBA_NXZ 000000018004efc0 f i libucrtd:output.obj
 0001:0004dfd0       ?should_skip_type_state_output@?$standard_base@_WV?$string_output_adapter@_W@__crt_stdio_output@@@__crt_stdio_output@@IEBA_NXZ 000000018004efd0 f i libucrtd:output.obj
 0001:0004dfe0       ?state_case_dot@?$output_processor@DV?$stream_output_adapter@D@__crt_stdio_output@@V?$format_validation_base@DV?$stream_output_adapter@D@__crt_stdio_output@@@2@@__crt_stdio_output@@AEAA_NXZ 000000018004efe0 f i libucrtd:output.obj
 0001:0004e000       ?state_case_dot@?$output_processor@DV?$stream_output_adapter@D@__crt_stdio_output@@V?$positional_parameter_base@DV?$stream_output_adapter@D@__crt_stdio_output@@@2@@__crt_stdio_output@@AEAA_NXZ 000000018004f000 f i libucrtd:output.obj
 0001:0004e020       ?state_case_dot@?$output_processor@DV?$stream_output_adapter@D@__crt_stdio_output@@V?$standard_base@DV?$stream_output_adapter@D@__crt_stdio_output@@@2@@__crt_stdio_output@@AEAA_NXZ 000000018004f020 f i libucrtd:output.obj
 0001:0004e040       ?state_case_dot@?$output_processor@DV?$string_output_adapter@D@__crt_stdio_output@@V?$format_validation_base@DV?$string_output_adapter@D@__crt_stdio_output@@@2@@__crt_stdio_output@@AEAA_NXZ 000000018004f040 f i libucrtd:output.obj
 0001:0004e060       ?state_case_dot@?$output_processor@DV?$string_output_adapter@D@__crt_stdio_output@@V?$positional_parameter_base@DV?$string_output_adapter@D@__crt_stdio_output@@@2@@__crt_stdio_output@@AEAA_NXZ 000000018004f060 f i libucrtd:output.obj
 0001:0004e080       ?state_case_dot@?$output_processor@DV?$string_output_adapter@D@__crt_stdio_output@@V?$standard_base@DV?$string_output_adapter@D@__crt_stdio_output@@@2@@__crt_stdio_output@@AEAA_NXZ 000000018004f080 f i libucrtd:output.obj
 0001:0004e0a0       ?state_case_dot@?$output_processor@_WV?$stream_output_adapter@_W@__crt_stdio_output@@V?$format_validation_base@_WV?$stream_output_adapter@_W@__crt_stdio_output@@@2@@__crt_stdio_output@@AEAA_NXZ 000000018004f0a0 f i libucrtd:output.obj
 0001:0004e0c0       ?state_case_dot@?$output_processor@_WV?$stream_output_adapter@_W@__crt_stdio_output@@V?$positional_parameter_base@_WV?$stream_output_adapter@_W@__crt_stdio_output@@@2@@__crt_stdio_output@@AEAA_NXZ 000000018004f0c0 f i libucrtd:output.obj
 0001:0004e0e0       ?state_case_dot@?$output_processor@_WV?$stream_output_adapter@_W@__crt_stdio_output@@V?$standard_base@_WV?$stream_output_adapter@_W@__crt_stdio_output@@@2@@__crt_stdio_output@@AEAA_NXZ 000000018004f0e0 f i libucrtd:output.obj
 0001:0004e100       ?state_case_dot@?$output_processor@_WV?$string_output_adapter@_W@__crt_stdio_output@@V?$format_validation_base@_WV?$string_output_adapter@_W@__crt_stdio_output@@@2@@__crt_stdio_output@@AEAA_NXZ 000000018004f100 f i libucrtd:output.obj
 0001:0004e120       ?state_case_dot@?$output_processor@_WV?$string_output_adapter@_W@__crt_stdio_output@@V?$positional_parameter_base@_WV?$string_output_adapter@_W@__crt_stdio_output@@@2@@__crt_stdio_output@@AEAA_NXZ 000000018004f120 f i libucrtd:output.obj
 0001:0004e140       ?state_case_dot@?$output_processor@_WV?$string_output_adapter@_W@__crt_stdio_output@@V?$standard_base@_WV?$string_output_adapter@_W@__crt_stdio_output@@@2@@__crt_stdio_output@@AEAA_NXZ 000000018004f140 f i libucrtd:output.obj
 0001:0004e160       ?state_case_flag@?$output_processor@DV?$stream_output_adapter@D@__crt_stdio_output@@V?$format_validation_base@DV?$stream_output_adapter@D@__crt_stdio_output@@@2@@__crt_stdio_output@@AEAA_NXZ 000000018004f160 f i libucrtd:output.obj
 0001:0004e200       ?state_case_flag@?$output_processor@DV?$stream_output_adapter@D@__crt_stdio_output@@V?$positional_parameter_base@DV?$stream_output_adapter@D@__crt_stdio_output@@@2@@__crt_stdio_output@@AEAA_NXZ 000000018004f200 f i libucrtd:output.obj
 0001:0004e2a0       ?state_case_flag@?$output_processor@DV?$stream_output_adapter@D@__crt_stdio_output@@V?$standard_base@DV?$stream_output_adapter@D@__crt_stdio_output@@@2@@__crt_stdio_output@@AEAA_NXZ 000000018004f2a0 f i libucrtd:output.obj
 0001:0004e340       ?state_case_flag@?$output_processor@DV?$string_output_adapter@D@__crt_stdio_output@@V?$format_validation_base@DV?$string_output_adapter@D@__crt_stdio_output@@@2@@__crt_stdio_output@@AEAA_NXZ 000000018004f340 f i libucrtd:output.obj
 0001:0004e3e0       ?state_case_flag@?$output_processor@DV?$string_output_adapter@D@__crt_stdio_output@@V?$positional_parameter_base@DV?$string_output_adapter@D@__crt_stdio_output@@@2@@__crt_stdio_output@@AEAA_NXZ 000000018004f3e0 f i libucrtd:output.obj
 0001:0004e480       ?state_case_flag@?$output_processor@DV?$string_output_adapter@D@__crt_stdio_output@@V?$standard_base@DV?$string_output_adapter@D@__crt_stdio_output@@@2@@__crt_stdio_output@@AEAA_NXZ 000000018004f480 f i libucrtd:output.obj
 0001:0004e520       ?state_case_flag@?$output_processor@_WV?$stream_output_adapter@_W@__crt_stdio_output@@V?$format_validation_base@_WV?$stream_output_adapter@_W@__crt_stdio_output@@@2@@__crt_stdio_output@@AEAA_NXZ 000000018004f520 f i libucrtd:output.obj
 0001:0004e5c0       ?state_case_flag@?$output_processor@_WV?$stream_output_adapter@_W@__crt_stdio_output@@V?$positional_parameter_base@_WV?$stream_output_adapter@_W@__crt_stdio_output@@@2@@__crt_stdio_output@@AEAA_NXZ 000000018004f5c0 f i libucrtd:output.obj
 0001:0004e660       ?state_case_flag@?$output_processor@_WV?$stream_output_adapter@_W@__crt_stdio_output@@V?$standard_base@_WV?$stream_output_adapter@_W@__crt_stdio_output@@@2@@__crt_stdio_output@@AEAA_NXZ 000000018004f660 f i libucrtd:output.obj
 0001:0004e700       ?state_case_flag@?$output_processor@_WV?$string_output_adapter@_W@__crt_stdio_output@@V?$format_validation_base@_WV?$string_output_adapter@_W@__crt_stdio_output@@@2@@__crt_stdio_output@@AEAA_NXZ 000000018004f700 f i libucrtd:output.obj
 0001:0004e7a0       ?state_case_flag@?$output_processor@_WV?$string_output_adapter@_W@__crt_stdio_output@@V?$positional_parameter_base@_WV?$string_output_adapter@_W@__crt_stdio_output@@@2@@__crt_stdio_output@@AEAA_NXZ 000000018004f7a0 f i libucrtd:output.obj
 0001:0004e840       ?state_case_flag@?$output_processor@_WV?$string_output_adapter@_W@__crt_stdio_output@@V?$standard_base@_WV?$string_output_adapter@_W@__crt_stdio_output@@@2@@__crt_stdio_output@@AEAA_NXZ 000000018004f840 f i libucrtd:output.obj
 0001:0004e8e0       ?state_case_normal@?$output_processor@DV?$stream_output_adapter@D@__crt_stdio_output@@V?$format_validation_base@DV?$stream_output_adapter@D@__crt_stdio_output@@@2@@__crt_stdio_output@@AEAA_NXZ 000000018004f8e0 f i libucrtd:output.obj
 0001:0004e9e0       ?state_case_normal@?$output_processor@DV?$stream_output_adapter@D@__crt_stdio_output@@V?$positional_parameter_base@DV?$stream_output_adapter@D@__crt_stdio_output@@@2@@__crt_stdio_output@@AEAA_NXZ 000000018004f9e0 f i libucrtd:output.obj
 0001:0004eae0       ?state_case_normal@?$output_processor@DV?$stream_output_adapter@D@__crt_stdio_output@@V?$standard_base@DV?$stream_output_adapter@D@__crt_stdio_output@@@2@@__crt_stdio_output@@AEAA_NXZ 000000018004fae0 f i libucrtd:output.obj
 0001:0004ebe0       ?state_case_normal@?$output_processor@DV?$string_output_adapter@D@__crt_stdio_output@@V?$format_validation_base@DV?$string_output_adapter@D@__crt_stdio_output@@@2@@__crt_stdio_output@@AEAA_NXZ 000000018004fbe0 f i libucrtd:output.obj
 0001:0004ece0       ?state_case_normal@?$output_processor@DV?$string_output_adapter@D@__crt_stdio_output@@V?$positional_parameter_base@DV?$string_output_adapter@D@__crt_stdio_output@@@2@@__crt_stdio_output@@AEAA_NXZ 000000018004fce0 f i libucrtd:output.obj
 0001:0004ede0       ?state_case_normal@?$output_processor@DV?$string_output_adapter@D@__crt_stdio_output@@V?$standard_base@DV?$string_output_adapter@D@__crt_stdio_output@@@2@@__crt_stdio_output@@AEAA_NXZ 000000018004fde0 f i libucrtd:output.obj
 0001:0004eee0       ?state_case_normal@?$output_processor@_WV?$stream_output_adapter@_W@__crt_stdio_output@@V?$format_validation_base@_WV?$stream_output_adapter@_W@__crt_stdio_output@@@2@@__crt_stdio_output@@AEAA_NXZ 000000018004fee0 f i libucrtd:output.obj
 0001:0004efe0       ?state_case_normal@?$output_processor@_WV?$stream_output_adapter@_W@__crt_stdio_output@@V?$positional_parameter_base@_WV?$stream_output_adapter@_W@__crt_stdio_output@@@2@@__crt_stdio_output@@AEAA_NXZ 000000018004ffe0 f i libucrtd:output.obj
 0001:0004f0e0       ?state_case_normal@?$output_processor@_WV?$stream_output_adapter@_W@__crt_stdio_output@@V?$standard_base@_WV?$stream_output_adapter@_W@__crt_stdio_output@@@2@@__crt_stdio_output@@AEAA_NXZ 00000001800500e0 f i libucrtd:output.obj
 0001:0004f1e0       ?state_case_normal@?$output_processor@_WV?$string_output_adapter@_W@__crt_stdio_output@@V?$format_validation_base@_WV?$string_output_adapter@_W@__crt_stdio_output@@@2@@__crt_stdio_output@@AEAA_NXZ 00000001800501e0 f i libucrtd:output.obj
 0001:0004f2e0       ?state_case_normal@?$output_processor@_WV?$string_output_adapter@_W@__crt_stdio_output@@V?$positional_parameter_base@_WV?$string_output_adapter@_W@__crt_stdio_output@@@2@@__crt_stdio_output@@AEAA_NXZ 00000001800502e0 f i libucrtd:output.obj
 0001:0004f3e0       ?state_case_normal@?$output_processor@_WV?$string_output_adapter@_W@__crt_stdio_output@@V?$standard_base@_WV?$string_output_adapter@_W@__crt_stdio_output@@@2@@__crt_stdio_output@@AEAA_NXZ 00000001800503e0 f i libucrtd:output.obj
 0001:0004f4e0       ?state_case_normal_common@?$output_processor@DV?$stream_output_adapter@D@__crt_stdio_output@@V?$format_validation_base@DV?$stream_output_adapter@D@__crt_stdio_output@@@2@@__crt_stdio_output@@AEAA_NXZ 00000001800504e0 f i libucrtd:output.obj
 0001:0004f540       ?state_case_normal_common@?$output_processor@DV?$stream_output_adapter@D@__crt_stdio_output@@V?$positional_parameter_base@DV?$stream_output_adapter@D@__crt_stdio_output@@@2@@__crt_stdio_output@@AEAA_NXZ 0000000180050540 f i libucrtd:output.obj
 0001:0004f5a0       ?state_case_normal_common@?$output_processor@DV?$stream_output_adapter@D@__crt_stdio_output@@V?$standard_base@DV?$stream_output_adapter@D@__crt_stdio_output@@@2@@__crt_stdio_output@@AEAA_NXZ 00000001800505a0 f i libucrtd:output.obj
 0001:0004f600       ?state_case_normal_common@?$output_processor@DV?$string_output_adapter@D@__crt_stdio_output@@V?$format_validation_base@DV?$string_output_adapter@D@__crt_stdio_output@@@2@@__crt_stdio_output@@AEAA_NXZ 0000000180050600 f i libucrtd:output.obj
 0001:0004f660       ?state_case_normal_common@?$output_processor@DV?$string_output_adapter@D@__crt_stdio_output@@V?$positional_parameter_base@DV?$string_output_adapter@D@__crt_stdio_output@@@2@@__crt_stdio_output@@AEAA_NXZ 0000000180050660 f i libucrtd:output.obj
 0001:0004f6c0       ?state_case_normal_common@?$output_processor@DV?$string_output_adapter@D@__crt_stdio_output@@V?$standard_base@DV?$string_output_adapter@D@__crt_stdio_output@@@2@@__crt_stdio_output@@AEAA_NXZ 00000001800506c0 f i libucrtd:output.obj
 0001:0004f720       ?state_case_normal_common@?$output_processor@_WV?$stream_output_adapter@_W@__crt_stdio_output@@V?$format_validation_base@_WV?$stream_output_adapter@_W@__crt_stdio_output@@@2@@__crt_stdio_output@@AEAA_NXZ 0000000180050720 f i libucrtd:output.obj
 0001:0004f780       ?state_case_normal_common@?$output_processor@_WV?$stream_output_adapter@_W@__crt_stdio_output@@V?$positional_parameter_base@_WV?$stream_output_adapter@_W@__crt_stdio_output@@@2@@__crt_stdio_output@@AEAA_NXZ 0000000180050780 f i libucrtd:output.obj
 0001:0004f7e0       ?state_case_normal_common@?$output_processor@_WV?$stream_output_adapter@_W@__crt_stdio_output@@V?$standard_base@_WV?$stream_output_adapter@_W@__crt_stdio_output@@@2@@__crt_stdio_output@@AEAA_NXZ 00000001800507e0 f i libucrtd:output.obj
 0001:0004f840       ?state_case_normal_common@?$output_processor@_WV?$string_output_adapter@_W@__crt_stdio_output@@V?$format_validation_base@_WV?$string_output_adapter@_W@__crt_stdio_output@@@2@@__crt_stdio_output@@AEAA_NXZ 0000000180050840 f i libucrtd:output.obj
 0001:0004f8a0       ?state_case_normal_common@?$output_processor@_WV?$string_output_adapter@_W@__crt_stdio_output@@V?$positional_parameter_base@_WV?$string_output_adapter@_W@__crt_stdio_output@@@2@@__crt_stdio_output@@AEAA_NXZ 00000001800508a0 f i libucrtd:output.obj
 0001:0004f900       ?state_case_normal_common@?$output_processor@_WV?$string_output_adapter@_W@__crt_stdio_output@@V?$standard_base@_WV?$string_output_adapter@_W@__crt_stdio_output@@@2@@__crt_stdio_output@@AEAA_NXZ 0000000180050900 f i libucrtd:output.obj
 0001:0004f960       ?state_case_normal_tchar@?$output_processor@DV?$stream_output_adapter@D@__crt_stdio_output@@V?$format_validation_base@DV?$stream_output_adapter@D@__crt_stdio_output@@@2@@__crt_stdio_output@@AEAA_ND@Z 0000000180050960 f i libucrtd:output.obj
 0001:0004faf0       ?state_case_normal_tchar@?$output_processor@DV?$stream_output_adapter@D@__crt_stdio_output@@V?$positional_parameter_base@DV?$stream_output_adapter@D@__crt_stdio_output@@@2@@__crt_stdio_output@@AEAA_ND@Z 0000000180050af0 f i libucrtd:output.obj
 0001:0004fc80       ?state_case_normal_tchar@?$output_processor@DV?$stream_output_adapter@D@__crt_stdio_output@@V?$standard_base@DV?$stream_output_adapter@D@__crt_stdio_output@@@2@@__crt_stdio_output@@AEAA_ND@Z 0000000180050c80 f i libucrtd:output.obj
 0001:0004fe10       ?state_case_normal_tchar@?$output_processor@DV?$string_output_adapter@D@__crt_stdio_output@@V?$format_validation_base@DV?$string_output_adapter@D@__crt_stdio_output@@@2@@__crt_stdio_output@@AEAA_ND@Z 0000000180050e10 f i libucrtd:output.obj
 0001:0004ffa0       ?state_case_normal_tchar@?$output_processor@DV?$string_output_adapter@D@__crt_stdio_output@@V?$positional_parameter_base@DV?$string_output_adapter@D@__crt_stdio_output@@@2@@__crt_stdio_output@@AEAA_ND@Z 0000000180050fa0 f i libucrtd:output.obj
 0001:00050130       ?state_case_normal_tchar@?$output_processor@DV?$string_output_adapter@D@__crt_stdio_output@@V?$standard_base@DV?$string_output_adapter@D@__crt_stdio_output@@@2@@__crt_stdio_output@@AEAA_ND@Z 0000000180051130 f i libucrtd:output.obj
 0001:000502c0       ?state_case_normal_tchar@?$output_processor@_WV?$stream_output_adapter@_W@__crt_stdio_output@@V?$format_validation_base@_WV?$stream_output_adapter@_W@__crt_stdio_output@@@2@@__crt_stdio_output@@AEAA_N_W@Z 00000001800512c0 f i libucrtd:output.obj
 0001:000502e0       ?state_case_normal_tchar@?$output_processor@_WV?$stream_output_adapter@_W@__crt_stdio_output@@V?$positional_parameter_base@_WV?$stream_output_adapter@_W@__crt_stdio_output@@@2@@__crt_stdio_output@@AEAA_N_W@Z 00000001800512e0 f i libucrtd:output.obj
 0001:00050300       ?state_case_normal_tchar@?$output_processor@_WV?$stream_output_adapter@_W@__crt_stdio_output@@V?$standard_base@_WV?$stream_output_adapter@_W@__crt_stdio_output@@@2@@__crt_stdio_output@@AEAA_N_W@Z 0000000180051300 f i libucrtd:output.obj
 0001:00050320       ?state_case_normal_tchar@?$output_processor@_WV?$string_output_adapter@_W@__crt_stdio_output@@V?$format_validation_base@_WV?$string_output_adapter@_W@__crt_stdio_output@@@2@@__crt_stdio_output@@AEAA_N_W@Z 0000000180051320 f i libucrtd:output.obj
 0001:00050340       ?state_case_normal_tchar@?$output_processor@_WV?$string_output_adapter@_W@__crt_stdio_output@@V?$positional_parameter_base@_WV?$string_output_adapter@_W@__crt_stdio_output@@@2@@__crt_stdio_output@@AEAA_N_W@Z 0000000180051340 f i libucrtd:output.obj
 0001:00050360       ?state_case_normal_tchar@?$output_processor@_WV?$string_output_adapter@_W@__crt_stdio_output@@V?$standard_base@_WV?$string_output_adapter@_W@__crt_stdio_output@@@2@@__crt_stdio_output@@AEAA_N_W@Z 0000000180051360 f i libucrtd:output.obj
 0001:00050380       ?state_case_percent@?$output_processor@DV?$stream_output_adapter@D@__crt_stdio_output@@V?$format_validation_base@DV?$stream_output_adapter@D@__crt_stdio_output@@@2@@__crt_stdio_output@@AEAA_NXZ 0000000180051380 f i libucrtd:output.obj
 0001:000503d0       ?state_case_percent@?$output_processor@DV?$stream_output_adapter@D@__crt_stdio_output@@V?$positional_parameter_base@DV?$stream_output_adapter@D@__crt_stdio_output@@@2@@__crt_stdio_output@@AEAA_NXZ 00000001800513d0 f i libucrtd:output.obj
 0001:00050420       ?state_case_percent@?$output_processor@DV?$stream_output_adapter@D@__crt_stdio_output@@V?$standard_base@DV?$stream_output_adapter@D@__crt_stdio_output@@@2@@__crt_stdio_output@@AEAA_NXZ 0000000180051420 f i libucrtd:output.obj
 0001:00050470       ?state_case_percent@?$output_processor@DV?$string_output_adapter@D@__crt_stdio_output@@V?$format_validation_base@DV?$string_output_adapter@D@__crt_stdio_output@@@2@@__crt_stdio_output@@AEAA_NXZ 0000000180051470 f i libucrtd:output.obj
 0001:000504c0       ?state_case_percent@?$output_processor@DV?$string_output_adapter@D@__crt_stdio_output@@V?$positional_parameter_base@DV?$string_output_adapter@D@__crt_stdio_output@@@2@@__crt_stdio_output@@AEAA_NXZ 00000001800514c0 f i libucrtd:output.obj
 0001:00050510       ?state_case_percent@?$output_processor@DV?$string_output_adapter@D@__crt_stdio_output@@V?$standard_base@DV?$string_output_adapter@D@__crt_stdio_output@@@2@@__crt_stdio_output@@AEAA_NXZ 0000000180051510 f i libucrtd:output.obj
 0001:00050560       ?state_case_percent@?$output_processor@_WV?$stream_output_adapter@_W@__crt_stdio_output@@V?$format_validation_base@_WV?$stream_output_adapter@_W@__crt_stdio_output@@@2@@__crt_stdio_output@@AEAA_NXZ 0000000180051560 f i libucrtd:output.obj
 0001:000505b0       ?state_case_percent@?$output_processor@_WV?$stream_output_adapter@_W@__crt_stdio_output@@V?$positional_parameter_base@_WV?$stream_output_adapter@_W@__crt_stdio_output@@@2@@__crt_stdio_output@@AEAA_NXZ 00000001800515b0 f i libucrtd:output.obj
 0001:00050600       ?state_case_percent@?$output_processor@_WV?$stream_output_adapter@_W@__crt_stdio_output@@V?$standard_base@_WV?$stream_output_adapter@_W@__crt_stdio_output@@@2@@__crt_stdio_output@@AEAA_NXZ 0000000180051600 f i libucrtd:output.obj
 0001:00050650       ?state_case_percent@?$output_processor@_WV?$string_output_adapter@_W@__crt_stdio_output@@V?$format_validation_base@_WV?$string_output_adapter@_W@__crt_stdio_output@@@2@@__crt_stdio_output@@AEAA_NXZ 0000000180051650 f i libucrtd:output.obj
 0001:000506a0       ?state_case_percent@?$output_processor@_WV?$string_output_adapter@_W@__crt_stdio_output@@V?$positional_parameter_base@_WV?$string_output_adapter@_W@__crt_stdio_output@@@2@@__crt_stdio_output@@AEAA_NXZ 00000001800516a0 f i libucrtd:output.obj
 0001:000506f0       ?state_case_percent@?$output_processor@_WV?$string_output_adapter@_W@__crt_stdio_output@@V?$standard_base@_WV?$string_output_adapter@_W@__crt_stdio_output@@@2@@__crt_stdio_output@@AEAA_NXZ 00000001800516f0 f i libucrtd:output.obj
 0001:00050740       ?state_case_precision@?$output_processor@DV?$stream_output_adapter@D@__crt_stdio_output@@V?$format_validation_base@DV?$stream_output_adapter@D@__crt_stdio_output@@@2@@__crt_stdio_output@@AEAA_NXZ 0000000180051740 f i libucrtd:output.obj
 0001:000507c0       ?state_case_precision@?$output_processor@DV?$stream_output_adapter@D@__crt_stdio_output@@V?$positional_parameter_base@DV?$stream_output_adapter@D@__crt_stdio_output@@@2@@__crt_stdio_output@@AEAA_NXZ 00000001800517c0 f i libucrtd:output.obj
 0001:00050840       ?state_case_precision@?$output_processor@DV?$stream_output_adapter@D@__crt_stdio_output@@V?$standard_base@DV?$stream_output_adapter@D@__crt_stdio_output@@@2@@__crt_stdio_output@@AEAA_NXZ 0000000180051840 f i libucrtd:output.obj
 0001:000508c0       ?state_case_precision@?$output_processor@DV?$string_output_adapter@D@__crt_stdio_output@@V?$format_validation_base@DV?$string_output_adapter@D@__crt_stdio_output@@@2@@__crt_stdio_output@@AEAA_NXZ 00000001800518c0 f i libucrtd:output.obj
 0001:00050940       ?state_case_precision@?$output_processor@DV?$string_output_adapter@D@__crt_stdio_output@@V?$positional_parameter_base@DV?$string_output_adapter@D@__crt_stdio_output@@@2@@__crt_stdio_output@@AEAA_NXZ 0000000180051940 f i libucrtd:output.obj
 0001:000509c0       ?state_case_precision@?$output_processor@DV?$string_output_adapter@D@__crt_stdio_output@@V?$standard_base@DV?$string_output_adapter@D@__crt_stdio_output@@@2@@__crt_stdio_output@@AEAA_NXZ 00000001800519c0 f i libucrtd:output.obj
 0001:00050a40       ?state_case_precision@?$output_processor@_WV?$stream_output_adapter@_W@__crt_stdio_output@@V?$format_validation_base@_WV?$stream_output_adapter@_W@__crt_stdio_output@@@2@@__crt_stdio_output@@AEAA_NXZ 0000000180051a40 f i libucrtd:output.obj
 0001:00050ac0       ?state_case_precision@?$output_processor@_WV?$stream_output_adapter@_W@__crt_stdio_output@@V?$positional_parameter_base@_WV?$stream_output_adapter@_W@__crt_stdio_output@@@2@@__crt_stdio_output@@AEAA_NXZ 0000000180051ac0 f i libucrtd:output.obj
 0001:00050b40       ?state_case_precision@?$output_processor@_WV?$stream_output_adapter@_W@__crt_stdio_output@@V?$standard_base@_WV?$stream_output_adapter@_W@__crt_stdio_output@@@2@@__crt_stdio_output@@AEAA_NXZ 0000000180051b40 f i libucrtd:output.obj
 0001:00050bc0       ?state_case_precision@?$output_processor@_WV?$string_output_adapter@_W@__crt_stdio_output@@V?$format_validation_base@_WV?$string_output_adapter@_W@__crt_stdio_output@@@2@@__crt_stdio_output@@AEAA_NXZ 0000000180051bc0 f i libucrtd:output.obj
 0001:00050c40       ?state_case_precision@?$output_processor@_WV?$string_output_adapter@_W@__crt_stdio_output@@V?$positional_parameter_base@_WV?$string_output_adapter@_W@__crt_stdio_output@@@2@@__crt_stdio_output@@AEAA_NXZ 0000000180051c40 f i libucrtd:output.obj
 0001:00050cc0       ?state_case_precision@?$output_processor@_WV?$string_output_adapter@_W@__crt_stdio_output@@V?$standard_base@_WV?$string_output_adapter@_W@__crt_stdio_output@@@2@@__crt_stdio_output@@AEAA_NXZ 0000000180051cc0 f i libucrtd:output.obj
 0001:00050d40       ?state_case_size@?$output_processor@DV?$stream_output_adapter@D@__crt_stdio_output@@V?$format_validation_base@DV?$stream_output_adapter@D@__crt_stdio_output@@@2@@__crt_stdio_output@@AEAA_NXZ 0000000180051d40 f i libucrtd:output.obj
 0001:00051200       ?state_case_size@?$output_processor@DV?$stream_output_adapter@D@__crt_stdio_output@@V?$positional_parameter_base@DV?$stream_output_adapter@D@__crt_stdio_output@@@2@@__crt_stdio_output@@AEAA_NXZ 0000000180052200 f i libucrtd:output.obj
 0001:000516c0       ?state_case_size@?$output_processor@DV?$stream_output_adapter@D@__crt_stdio_output@@V?$standard_base@DV?$stream_output_adapter@D@__crt_stdio_output@@@2@@__crt_stdio_output@@AEAA_NXZ 00000001800526c0 f i libucrtd:output.obj
 0001:00051b80       ?state_case_size@?$output_processor@DV?$string_output_adapter@D@__crt_stdio_output@@V?$format_validation_base@DV?$string_output_adapter@D@__crt_stdio_output@@@2@@__crt_stdio_output@@AEAA_NXZ 0000000180052b80 f i libucrtd:output.obj
 0001:00052040       ?state_case_size@?$output_processor@DV?$string_output_adapter@D@__crt_stdio_output@@V?$positional_parameter_base@DV?$string_output_adapter@D@__crt_stdio_output@@@2@@__crt_stdio_output@@AEAA_NXZ 0000000180053040 f i libucrtd:output.obj
 0001:00052500       ?state_case_size@?$output_processor@DV?$string_output_adapter@D@__crt_stdio_output@@V?$standard_base@DV?$string_output_adapter@D@__crt_stdio_output@@@2@@__crt_stdio_output@@AEAA_NXZ 0000000180053500 f i libucrtd:output.obj
 0001:000529c0       ?state_case_size@?$output_processor@_WV?$stream_output_adapter@_W@__crt_stdio_output@@V?$format_validation_base@_WV?$stream_output_adapter@_W@__crt_stdio_output@@@2@@__crt_stdio_output@@AEAA_NXZ 00000001800539c0 f i libucrtd:output.obj
 0001:00052e80       ?state_case_size@?$output_processor@_WV?$stream_output_adapter@_W@__crt_stdio_output@@V?$positional_parameter_base@_WV?$stream_output_adapter@_W@__crt_stdio_output@@@2@@__crt_stdio_output@@AEAA_NXZ 0000000180053e80 f i libucrtd:output.obj
 0001:00053340       ?state_case_size@?$output_processor@_WV?$stream_output_adapter@_W@__crt_stdio_output@@V?$standard_base@_WV?$stream_output_adapter@_W@__crt_stdio_output@@@2@@__crt_stdio_output@@AEAA_NXZ 0000000180054340 f i libucrtd:output.obj
 0001:00053800       ?state_case_size@?$output_processor@_WV?$string_output_adapter@_W@__crt_stdio_output@@V?$format_validation_base@_WV?$string_output_adapter@_W@__crt_stdio_output@@@2@@__crt_stdio_output@@AEAA_NXZ 0000000180054800 f i libucrtd:output.obj
 0001:00053cc0       ?state_case_size@?$output_processor@_WV?$string_output_adapter@_W@__crt_stdio_output@@V?$positional_parameter_base@_WV?$string_output_adapter@_W@__crt_stdio_output@@@2@@__crt_stdio_output@@AEAA_NXZ 0000000180054cc0 f i libucrtd:output.obj
 0001:00054180       ?state_case_size@?$output_processor@_WV?$string_output_adapter@_W@__crt_stdio_output@@V?$standard_base@_WV?$string_output_adapter@_W@__crt_stdio_output@@@2@@__crt_stdio_output@@AEAA_NXZ 0000000180055180 f i libucrtd:output.obj
 0001:00054640       ?state_case_type@?$output_processor@DV?$stream_output_adapter@D@__crt_stdio_output@@V?$format_validation_base@DV?$stream_output_adapter@D@__crt_stdio_output@@@2@@__crt_stdio_output@@AEAA_NXZ 0000000180055640 f i libucrtd:output.obj
 0001:00054b00       ?state_case_type@?$output_processor@DV?$stream_output_adapter@D@__crt_stdio_output@@V?$positional_parameter_base@DV?$stream_output_adapter@D@__crt_stdio_output@@@2@@__crt_stdio_output@@AEAA_NXZ 0000000180055b00 f i libucrtd:output.obj
 0001:00054fc0       ?state_case_type@?$output_processor@DV?$stream_output_adapter@D@__crt_stdio_output@@V?$standard_base@DV?$stream_output_adapter@D@__crt_stdio_output@@@2@@__crt_stdio_output@@AEAA_NXZ 0000000180055fc0 f i libucrtd:output.obj
 0001:00055480       ?state_case_type@?$output_processor@DV?$string_output_adapter@D@__crt_stdio_output@@V?$format_validation_base@DV?$string_output_adapter@D@__crt_stdio_output@@@2@@__crt_stdio_output@@AEAA_NXZ 0000000180056480 f i libucrtd:output.obj
 0001:00055940       ?state_case_type@?$output_processor@DV?$string_output_adapter@D@__crt_stdio_output@@V?$positional_parameter_base@DV?$string_output_adapter@D@__crt_stdio_output@@@2@@__crt_stdio_output@@AEAA_NXZ 0000000180056940 f i libucrtd:output.obj
 0001:00055e00       ?state_case_type@?$output_processor@DV?$string_output_adapter@D@__crt_stdio_output@@V?$standard_base@DV?$string_output_adapter@D@__crt_stdio_output@@@2@@__crt_stdio_output@@AEAA_NXZ 0000000180056e00 f i libucrtd:output.obj
 0001:000562c0       ?state_case_type@?$output_processor@_WV?$stream_output_adapter@_W@__crt_stdio_output@@V?$format_validation_base@_WV?$stream_output_adapter@_W@__crt_stdio_output@@@2@@__crt_stdio_output@@AEAA_NXZ 00000001800572c0 f i libucrtd:output.obj
 0001:00056850       ?state_case_type@?$output_processor@_WV?$stream_output_adapter@_W@__crt_stdio_output@@V?$positional_parameter_base@_WV?$stream_output_adapter@_W@__crt_stdio_output@@@2@@__crt_stdio_output@@AEAA_NXZ 0000000180057850 f i libucrtd:output.obj
 0001:00056de0       ?state_case_type@?$output_processor@_WV?$stream_output_adapter@_W@__crt_stdio_output@@V?$standard_base@_WV?$stream_output_adapter@_W@__crt_stdio_output@@@2@@__crt_stdio_output@@AEAA_NXZ 0000000180057de0 f i libucrtd:output.obj
 0001:00057370       ?state_case_type@?$output_processor@_WV?$string_output_adapter@_W@__crt_stdio_output@@V?$format_validation_base@_WV?$string_output_adapter@_W@__crt_stdio_output@@@2@@__crt_stdio_output@@AEAA_NXZ 0000000180058370 f i libucrtd:output.obj
 0001:00057900       ?state_case_type@?$output_processor@_WV?$string_output_adapter@_W@__crt_stdio_output@@V?$positional_parameter_base@_WV?$string_output_adapter@_W@__crt_stdio_output@@@2@@__crt_stdio_output@@AEAA_NXZ 0000000180058900 f i libucrtd:output.obj
 0001:00057e90       ?state_case_type@?$output_processor@_WV?$string_output_adapter@_W@__crt_stdio_output@@V?$standard_base@_WV?$string_output_adapter@_W@__crt_stdio_output@@@2@@__crt_stdio_output@@AEAA_NXZ 0000000180058e90 f i libucrtd:output.obj
 0001:00058420       ?state_case_width@?$output_processor@DV?$stream_output_adapter@D@__crt_stdio_output@@V?$format_validation_base@DV?$stream_output_adapter@D@__crt_stdio_output@@@2@@__crt_stdio_output@@AEAA_NXZ 0000000180059420 f i libucrtd:output.obj
 0001:000584b0       ?state_case_width@?$output_processor@DV?$stream_output_adapter@D@__crt_stdio_output@@V?$positional_parameter_base@DV?$stream_output_adapter@D@__crt_stdio_output@@@2@@__crt_stdio_output@@AEAA_NXZ 00000001800594b0 f i libucrtd:output.obj
 0001:00058540       ?state_case_width@?$output_processor@DV?$stream_output_adapter@D@__crt_stdio_output@@V?$standard_base@DV?$stream_output_adapter@D@__crt_stdio_output@@@2@@__crt_stdio_output@@AEAA_NXZ 0000000180059540 f i libucrtd:output.obj
 0001:000585d0       ?state_case_width@?$output_processor@DV?$string_output_adapter@D@__crt_stdio_output@@V?$format_validation_base@DV?$string_output_adapter@D@__crt_stdio_output@@@2@@__crt_stdio_output@@AEAA_NXZ 00000001800595d0 f i libucrtd:output.obj
 0001:00058660       ?state_case_width@?$output_processor@DV?$string_output_adapter@D@__crt_stdio_output@@V?$positional_parameter_base@DV?$string_output_adapter@D@__crt_stdio_output@@@2@@__crt_stdio_output@@AEAA_NXZ 0000000180059660 f i libucrtd:output.obj
 0001:000586f0       ?state_case_width@?$output_processor@DV?$string_output_adapter@D@__crt_stdio_output@@V?$standard_base@DV?$string_output_adapter@D@__crt_stdio_output@@@2@@__crt_stdio_output@@AEAA_NXZ 00000001800596f0 f i libucrtd:output.obj
 0001:00058780       ?state_case_width@?$output_processor@_WV?$stream_output_adapter@_W@__crt_stdio_output@@V?$format_validation_base@_WV?$stream_output_adapter@_W@__crt_stdio_output@@@2@@__crt_stdio_output@@AEAA_NXZ 0000000180059780 f i libucrtd:output.obj
 0001:00058810       ?state_case_width@?$output_processor@_WV?$stream_output_adapter@_W@__crt_stdio_output@@V?$positional_parameter_base@_WV?$stream_output_adapter@_W@__crt_stdio_output@@@2@@__crt_stdio_output@@AEAA_NXZ 0000000180059810 f i libucrtd:output.obj
 0001:000588a0       ?state_case_width@?$output_processor@_WV?$stream_output_adapter@_W@__crt_stdio_output@@V?$standard_base@_WV?$stream_output_adapter@_W@__crt_stdio_output@@@2@@__crt_stdio_output@@AEAA_NXZ 00000001800598a0 f i libucrtd:output.obj
 0001:00058930       ?state_case_width@?$output_processor@_WV?$string_output_adapter@_W@__crt_stdio_output@@V?$format_validation_base@_WV?$string_output_adapter@_W@__crt_stdio_output@@@2@@__crt_stdio_output@@AEAA_NXZ 0000000180059930 f i libucrtd:output.obj
 0001:000589c0       ?state_case_width@?$output_processor@_WV?$string_output_adapter@_W@__crt_stdio_output@@V?$positional_parameter_base@_WV?$string_output_adapter@_W@__crt_stdio_output@@@2@@__crt_stdio_output@@AEAA_NXZ 00000001800599c0 f i libucrtd:output.obj
 0001:00058a50       ?state_case_width@?$output_processor@_WV?$string_output_adapter@_W@__crt_stdio_output@@V?$standard_base@_WV?$string_output_adapter@_W@__crt_stdio_output@@@2@@__crt_stdio_output@@AEAA_NXZ 0000000180059a50 f i libucrtd:output.obj
 0001:00058ae0       ?state_count@?$format_validation_base@DV?$stream_output_adapter@D@__crt_stdio_output@@@__crt_stdio_output@@KAIXZ 0000000180059ae0 f i libucrtd:output.obj
 0001:00058af0       ?state_count@?$format_validation_base@DV?$string_output_adapter@D@__crt_stdio_output@@@__crt_stdio_output@@KAIXZ 0000000180059af0 f i libucrtd:output.obj
 0001:00058b00       ?state_count@?$format_validation_base@_WV?$stream_output_adapter@_W@__crt_stdio_output@@@__crt_stdio_output@@KAIXZ 0000000180059b00 f i libucrtd:output.obj
 0001:00058b10       ?state_count@?$format_validation_base@_WV?$string_output_adapter@_W@__crt_stdio_output@@@__crt_stdio_output@@KAIXZ 0000000180059b10 f i libucrtd:output.obj
 0001:00058b20       ?state_count@?$standard_base@DV?$stream_output_adapter@D@__crt_stdio_output@@@__crt_stdio_output@@KAIXZ 0000000180059b20 f i libucrtd:output.obj
 0001:00058b30       ?state_count@?$standard_base@DV?$string_output_adapter@D@__crt_stdio_output@@@__crt_stdio_output@@KAIXZ 0000000180059b30 f i libucrtd:output.obj
 0001:00058b40       ?state_count@?$standard_base@_WV?$stream_output_adapter@_W@__crt_stdio_output@@@__crt_stdio_output@@KAIXZ 0000000180059b40 f i libucrtd:output.obj
 0001:00058b50       ?state_count@?$standard_base@_WV?$string_output_adapter@_W@__crt_stdio_output@@@__crt_stdio_output@@KAIXZ 0000000180059b50 f i libucrtd:output.obj
 0001:00058b60       ?state_transition_table@?$format_validation_base@DV?$stream_output_adapter@D@__crt_stdio_output@@@__crt_stdio_output@@KAAEBV?$spectre_mitigated_lookup_table@Ustate_transition_pair@__crt_stdio_output@@$0IA@@2@XZ 0000000180059b60 f i libucrtd:output.obj
 0001:00058b70       ?state_transition_table@?$format_validation_base@DV?$string_output_adapter@D@__crt_stdio_output@@@__crt_stdio_output@@KAAEBV?$spectre_mitigated_lookup_table@Ustate_transition_pair@__crt_stdio_output@@$0IA@@2@XZ 0000000180059b70 f i libucrtd:output.obj
 0001:00058b80       ?state_transition_table@?$format_validation_base@_WV?$stream_output_adapter@_W@__crt_stdio_output@@@__crt_stdio_output@@KAAEBV?$spectre_mitigated_lookup_table@Ustate_transition_pair@__crt_stdio_output@@$0IA@@2@XZ 0000000180059b80 f i libucrtd:output.obj
 0001:00058b90       ?state_transition_table@?$format_validation_base@_WV?$string_output_adapter@_W@__crt_stdio_output@@@__crt_stdio_output@@KAAEBV?$spectre_mitigated_lookup_table@Ustate_transition_pair@__crt_stdio_output@@$0IA@@2@XZ 0000000180059b90 f i libucrtd:output.obj
 0001:00058ba0       ?state_transition_table@?$standard_base@DV?$stream_output_adapter@D@__crt_stdio_output@@@__crt_stdio_output@@KAAEBV?$spectre_mitigated_lookup_table@Ustate_transition_pair@__crt_stdio_output@@$0IA@@2@XZ 0000000180059ba0 f i libucrtd:output.obj
 0001:00058bb0       ?state_transition_table@?$standard_base@DV?$string_output_adapter@D@__crt_stdio_output@@@__crt_stdio_output@@KAAEBV?$spectre_mitigated_lookup_table@Ustate_transition_pair@__crt_stdio_output@@$0IA@@2@XZ 0000000180059bb0 f i libucrtd:output.obj
 0001:00058bc0       ?state_transition_table@?$standard_base@_WV?$stream_output_adapter@_W@__crt_stdio_output@@@__crt_stdio_output@@KAAEBV?$spectre_mitigated_lookup_table@Ustate_transition_pair@__crt_stdio_output@@$0IA@@2@XZ 0000000180059bc0 f i libucrtd:output.obj
 0001:00058bd0       ?state_transition_table@?$standard_base@_WV?$string_output_adapter@_W@__crt_stdio_output@@@__crt_stdio_output@@KAAEBV?$spectre_mitigated_lookup_table@Ustate_transition_pair@__crt_stdio_output@@$0IA@@2@XZ 0000000180059bd0 f i libucrtd:output.obj
 0001:00058be0       ?tchar_string@?$common_data@D@__crt_stdio_output@@IEAAAEAPEADD@Z 0000000180059be0 f i libucrtd:output.obj
 0001:00058c00       ?tchar_string@?$common_data@D@__crt_stdio_output@@IEAAAEAPEADXZ 0000000180059c00 f i libucrtd:output.obj
 0001:00058c20       ?tchar_string@?$common_data@_W@__crt_stdio_output@@IEAAAEAPEA_WXZ 0000000180059c20 f i libucrtd:output.obj
 0001:00058c40       ?tchar_string@?$common_data@_W@__crt_stdio_output@@IEAAAEAPEA_W_W@Z 0000000180059c40 f i libucrtd:output.obj
 0001:00058c60       ?to_integer_size@__crt_stdio_output@@YA_KW4length_modifier@1@@Z 0000000180059c60 f i libucrtd:output.obj
 0001:00058d10       ?type_case_X@?$output_processor@DV?$stream_output_adapter@D@__crt_stdio_output@@V?$format_validation_base@DV?$stream_output_adapter@D@__crt_stdio_output@@@2@@__crt_stdio_output@@AEAA_NXZ 0000000180059d10 f i libucrtd:output.obj
 0001:00058d30       ?type_case_X@?$output_processor@DV?$stream_output_adapter@D@__crt_stdio_output@@V?$positional_parameter_base@DV?$stream_output_adapter@D@__crt_stdio_output@@@2@@__crt_stdio_output@@AEAA_NXZ 0000000180059d30 f i libucrtd:output.obj
 0001:00058d50       ?type_case_X@?$output_processor@DV?$stream_output_adapter@D@__crt_stdio_output@@V?$standard_base@DV?$stream_output_adapter@D@__crt_stdio_output@@@2@@__crt_stdio_output@@AEAA_NXZ 0000000180059d50 f i libucrtd:output.obj
 0001:00058d70       ?type_case_X@?$output_processor@DV?$string_output_adapter@D@__crt_stdio_output@@V?$format_validation_base@DV?$string_output_adapter@D@__crt_stdio_output@@@2@@__crt_stdio_output@@AEAA_NXZ 0000000180059d70 f i libucrtd:output.obj
 0001:00058d90       ?type_case_X@?$output_processor@DV?$string_output_adapter@D@__crt_stdio_output@@V?$positional_parameter_base@DV?$string_output_adapter@D@__crt_stdio_output@@@2@@__crt_stdio_output@@AEAA_NXZ 0000000180059d90 f i libucrtd:output.obj
 0001:00058db0       ?type_case_X@?$output_processor@DV?$string_output_adapter@D@__crt_stdio_output@@V?$standard_base@DV?$string_output_adapter@D@__crt_stdio_output@@@2@@__crt_stdio_output@@AEAA_NXZ 0000000180059db0 f i libucrtd:output.obj
 0001:00058dd0       ?type_case_X@?$output_processor@_WV?$stream_output_adapter@_W@__crt_stdio_output@@V?$format_validation_base@_WV?$stream_output_adapter@_W@__crt_stdio_output@@@2@@__crt_stdio_output@@AEAA_NXZ 0000000180059dd0 f i libucrtd:output.obj
 0001:00058df0       ?type_case_X@?$output_processor@_WV?$stream_output_adapter@_W@__crt_stdio_output@@V?$positional_parameter_base@_WV?$stream_output_adapter@_W@__crt_stdio_output@@@2@@__crt_stdio_output@@AEAA_NXZ 0000000180059df0 f i libucrtd:output.obj
 0001:00058e10       ?type_case_X@?$output_processor@_WV?$stream_output_adapter@_W@__crt_stdio_output@@V?$standard_base@_WV?$stream_output_adapter@_W@__crt_stdio_output@@@2@@__crt_stdio_output@@AEAA_NXZ 0000000180059e10 f i libucrtd:output.obj
 0001:00058e30       ?type_case_X@?$output_processor@_WV?$string_output_adapter@_W@__crt_stdio_output@@V?$format_validation_base@_WV?$string_output_adapter@_W@__crt_stdio_output@@@2@@__crt_stdio_output@@AEAA_NXZ 0000000180059e30 f i libucrtd:output.obj
 0001:00058e50       ?type_case_X@?$output_processor@_WV?$string_output_adapter@_W@__crt_stdio_output@@V?$positional_parameter_base@_WV?$string_output_adapter@_W@__crt_stdio_output@@@2@@__crt_stdio_output@@AEAA_NXZ 0000000180059e50 f i libucrtd:output.obj
 0001:00058e70       ?type_case_X@?$output_processor@_WV?$string_output_adapter@_W@__crt_stdio_output@@V?$standard_base@_WV?$string_output_adapter@_W@__crt_stdio_output@@@2@@__crt_stdio_output@@AEAA_NXZ 0000000180059e70 f i libucrtd:output.obj
 0001:00058e90       ?type_case_Z@?$output_processor@DV?$stream_output_adapter@D@__crt_stdio_output@@V?$format_validation_base@DV?$stream_output_adapter@D@__crt_stdio_output@@@2@@__crt_stdio_output@@AEAA_NXZ 0000000180059e90 f i libucrtd:output.obj
 0001:00058fb0       ?type_case_Z@?$output_processor@DV?$stream_output_adapter@D@__crt_stdio_output@@V?$positional_parameter_base@DV?$stream_output_adapter@D@__crt_stdio_output@@@2@@__crt_stdio_output@@AEAA_NXZ 0000000180059fb0 f i libucrtd:output.obj
 0001:000590d0       ?type_case_Z@?$output_processor@DV?$stream_output_adapter@D@__crt_stdio_output@@V?$standard_base@DV?$stream_output_adapter@D@__crt_stdio_output@@@2@@__crt_stdio_output@@AEAA_NXZ 000000018005a0d0 f i libucrtd:output.obj
 0001:000591f0       ?type_case_Z@?$output_processor@DV?$string_output_adapter@D@__crt_stdio_output@@V?$format_validation_base@DV?$string_output_adapter@D@__crt_stdio_output@@@2@@__crt_stdio_output@@AEAA_NXZ 000000018005a1f0 f i libucrtd:output.obj
 0001:00059310       ?type_case_Z@?$output_processor@DV?$string_output_adapter@D@__crt_stdio_output@@V?$positional_parameter_base@DV?$string_output_adapter@D@__crt_stdio_output@@@2@@__crt_stdio_output@@AEAA_NXZ 000000018005a310 f i libucrtd:output.obj
 0001:00059430       ?type_case_Z@?$output_processor@DV?$string_output_adapter@D@__crt_stdio_output@@V?$standard_base@DV?$string_output_adapter@D@__crt_stdio_output@@@2@@__crt_stdio_output@@AEAA_NXZ 000000018005a430 f i libucrtd:output.obj
 0001:00059550       ?type_case_Z@?$output_processor@_WV?$stream_output_adapter@_W@__crt_stdio_output@@V?$format_validation_base@_WV?$stream_output_adapter@_W@__crt_stdio_output@@@2@@__crt_stdio_output@@AEAA_NXZ 000000018005a550 f i libucrtd:output.obj
 0001:00059670       ?type_case_Z@?$output_processor@_WV?$stream_output_adapter@_W@__crt_stdio_output@@V?$positional_parameter_base@_WV?$stream_output_adapter@_W@__crt_stdio_output@@@2@@__crt_stdio_output@@AEAA_NXZ 000000018005a670 f i libucrtd:output.obj
 0001:00059790       ?type_case_Z@?$output_processor@_WV?$stream_output_adapter@_W@__crt_stdio_output@@V?$standard_base@_WV?$stream_output_adapter@_W@__crt_stdio_output@@@2@@__crt_stdio_output@@AEAA_NXZ 000000018005a790 f i libucrtd:output.obj
 0001:000598b0       ?type_case_Z@?$output_processor@_WV?$string_output_adapter@_W@__crt_stdio_output@@V?$format_validation_base@_WV?$string_output_adapter@_W@__crt_stdio_output@@@2@@__crt_stdio_output@@AEAA_NXZ 000000018005a8b0 f i libucrtd:output.obj
 0001:000599d0       ?type_case_Z@?$output_processor@_WV?$string_output_adapter@_W@__crt_stdio_output@@V?$positional_parameter_base@_WV?$string_output_adapter@_W@__crt_stdio_output@@@2@@__crt_stdio_output@@AEAA_NXZ 000000018005a9d0 f i libucrtd:output.obj
 0001:00059af0       ?type_case_Z@?$output_processor@_WV?$string_output_adapter@_W@__crt_stdio_output@@V?$standard_base@_WV?$string_output_adapter@_W@__crt_stdio_output@@@2@@__crt_stdio_output@@AEAA_NXZ 000000018005aaf0 f i libucrtd:output.obj
 0001:00059c10       ?type_case_a@?$output_processor@DV?$stream_output_adapter@D@__crt_stdio_output@@V?$format_validation_base@DV?$stream_output_adapter@D@__crt_stdio_output@@@2@@__crt_stdio_output@@AEAA_NXZ 000000018005ac10 f i libucrtd:output.obj
 0001:0005a070       ?type_case_a@?$output_processor@DV?$stream_output_adapter@D@__crt_stdio_output@@V?$positional_parameter_base@DV?$stream_output_adapter@D@__crt_stdio_output@@@2@@__crt_stdio_output@@AEAA_NXZ 000000018005b070 f i libucrtd:output.obj
 0001:0005a4d0       ?type_case_a@?$output_processor@DV?$stream_output_adapter@D@__crt_stdio_output@@V?$standard_base@DV?$stream_output_adapter@D@__crt_stdio_output@@@2@@__crt_stdio_output@@AEAA_NXZ 000000018005b4d0 f i libucrtd:output.obj
 0001:0005a930       ?type_case_a@?$output_processor@DV?$string_output_adapter@D@__crt_stdio_output@@V?$format_validation_base@DV?$string_output_adapter@D@__crt_stdio_output@@@2@@__crt_stdio_output@@AEAA_NXZ 000000018005b930 f i libucrtd:output.obj
 0001:0005ad90       ?type_case_a@?$output_processor@DV?$string_output_adapter@D@__crt_stdio_output@@V?$positional_parameter_base@DV?$string_output_adapter@D@__crt_stdio_output@@@2@@__crt_stdio_output@@AEAA_NXZ 000000018005bd90 f i libucrtd:output.obj
 0001:0005b1f0       ?type_case_a@?$output_processor@DV?$string_output_adapter@D@__crt_stdio_output@@V?$standard_base@DV?$string_output_adapter@D@__crt_stdio_output@@@2@@__crt_stdio_output@@AEAA_NXZ 000000018005c1f0 f i libucrtd:output.obj
 0001:0005b650       ?type_case_a@?$output_processor@_WV?$stream_output_adapter@_W@__crt_stdio_output@@V?$format_validation_base@_WV?$stream_output_adapter@_W@__crt_stdio_output@@@2@@__crt_stdio_output@@AEAA_NXZ 000000018005c650 f i libucrtd:output.obj
 0001:0005bac0       ?type_case_a@?$output_processor@_WV?$stream_output_adapter@_W@__crt_stdio_output@@V?$positional_parameter_base@_WV?$stream_output_adapter@_W@__crt_stdio_output@@@2@@__crt_stdio_output@@AEAA_NXZ 000000018005cac0 f i libucrtd:output.obj
 0001:0005bf30       ?type_case_a@?$output_processor@_WV?$stream_output_adapter@_W@__crt_stdio_output@@V?$standard_base@_WV?$stream_output_adapter@_W@__crt_stdio_output@@@2@@__crt_stdio_output@@AEAA_NXZ 000000018005cf30 f i libucrtd:output.obj
 0001:0005c3a0       ?type_case_a@?$output_processor@_WV?$string_output_adapter@_W@__crt_stdio_output@@V?$format_validation_base@_WV?$string_output_adapter@_W@__crt_stdio_output@@@2@@__crt_stdio_output@@AEAA_NXZ 000000018005d3a0 f i libucrtd:output.obj
 0001:0005c810       ?type_case_a@?$output_processor@_WV?$string_output_adapter@_W@__crt_stdio_output@@V?$positional_parameter_base@_WV?$string_output_adapter@_W@__crt_stdio_output@@@2@@__crt_stdio_output@@AEAA_NXZ 000000018005d810 f i libucrtd:output.obj
 0001:0005cc80       ?type_case_a@?$output_processor@_WV?$string_output_adapter@_W@__crt_stdio_output@@V?$standard_base@_WV?$string_output_adapter@_W@__crt_stdio_output@@@2@@__crt_stdio_output@@AEAA_NXZ 000000018005dc80 f i libucrtd:output.obj
 0001:0005d0f0       ?type_case_c@?$output_processor@DV?$stream_output_adapter@D@__crt_stdio_output@@V?$format_validation_base@DV?$stream_output_adapter@D@__crt_stdio_output@@@2@@__crt_stdio_output@@AEAA_NXZ 000000018005e0f0 f i libucrtd:output.obj
 0001:0005d110       ?type_case_c@?$output_processor@DV?$stream_output_adapter@D@__crt_stdio_output@@V?$positional_parameter_base@DV?$stream_output_adapter@D@__crt_stdio_output@@@2@@__crt_stdio_output@@AEAA_NXZ 000000018005e110 f i libucrtd:output.obj
 0001:0005d130       ?type_case_c@?$output_processor@DV?$stream_output_adapter@D@__crt_stdio_output@@V?$standard_base@DV?$stream_output_adapter@D@__crt_stdio_output@@@2@@__crt_stdio_output@@AEAA_NXZ 000000018005e130 f i libucrtd:output.obj
 0001:0005d150       ?type_case_c@?$output_processor@DV?$string_output_adapter@D@__crt_stdio_output@@V?$format_validation_base@DV?$string_output_adapter@D@__crt_stdio_output@@@2@@__crt_stdio_output@@AEAA_NXZ 000000018005e150 f i libucrtd:output.obj
 0001:0005d170       ?type_case_c@?$output_processor@DV?$string_output_adapter@D@__crt_stdio_output@@V?$positional_parameter_base@DV?$string_output_adapter@D@__crt_stdio_output@@@2@@__crt_stdio_output@@AEAA_NXZ 000000018005e170 f i libucrtd:output.obj
 0001:0005d190       ?type_case_c@?$output_processor@DV?$string_output_adapter@D@__crt_stdio_output@@V?$standard_base@DV?$string_output_adapter@D@__crt_stdio_output@@@2@@__crt_stdio_output@@AEAA_NXZ 000000018005e190 f i libucrtd:output.obj
 0001:0005d1b0       ?type_case_c@?$output_processor@_WV?$stream_output_adapter@_W@__crt_stdio_output@@V?$format_validation_base@_WV?$stream_output_adapter@_W@__crt_stdio_output@@@2@@__crt_stdio_output@@AEAA_NXZ 000000018005e1b0 f i libucrtd:output.obj
 0001:0005d1d0       ?type_case_c@?$output_processor@_WV?$stream_output_adapter@_W@__crt_stdio_output@@V?$positional_parameter_base@_WV?$stream_output_adapter@_W@__crt_stdio_output@@@2@@__crt_stdio_output@@AEAA_NXZ 000000018005e1d0 f i libucrtd:output.obj
 0001:0005d1f0       ?type_case_c@?$output_processor@_WV?$stream_output_adapter@_W@__crt_stdio_output@@V?$standard_base@_WV?$stream_output_adapter@_W@__crt_stdio_output@@@2@@__crt_stdio_output@@AEAA_NXZ 000000018005e1f0 f i libucrtd:output.obj
 0001:0005d210       ?type_case_c@?$output_processor@_WV?$string_output_adapter@_W@__crt_stdio_output@@V?$format_validation_base@_WV?$string_output_adapter@_W@__crt_stdio_output@@@2@@__crt_stdio_output@@AEAA_NXZ 000000018005e210 f i libucrtd:output.obj
 0001:0005d230       ?type_case_c@?$output_processor@_WV?$string_output_adapter@_W@__crt_stdio_output@@V?$positional_parameter_base@_WV?$string_output_adapter@_W@__crt_stdio_output@@@2@@__crt_stdio_output@@AEAA_NXZ 000000018005e230 f i libucrtd:output.obj
 0001:0005d250       ?type_case_c@?$output_processor@_WV?$string_output_adapter@_W@__crt_stdio_output@@V?$standard_base@_WV?$string_output_adapter@_W@__crt_stdio_output@@@2@@__crt_stdio_output@@AEAA_NXZ 000000018005e250 f i libucrtd:output.obj
 0001:0005d270       ?type_case_c_tchar@?$output_processor@DV?$stream_output_adapter@D@__crt_stdio_output@@V?$format_validation_base@DV?$stream_output_adapter@D@__crt_stdio_output@@@2@@__crt_stdio_output@@AEAA_ND@Z 000000018005e270 f i libucrtd:output.obj
 0001:0005d3e0       ?type_case_c_tchar@?$output_processor@DV?$stream_output_adapter@D@__crt_stdio_output@@V?$positional_parameter_base@DV?$stream_output_adapter@D@__crt_stdio_output@@@2@@__crt_stdio_output@@AEAA_ND@Z 000000018005e3e0 f i libucrtd:output.obj
 0001:0005d550       ?type_case_c_tchar@?$output_processor@DV?$stream_output_adapter@D@__crt_stdio_output@@V?$standard_base@DV?$stream_output_adapter@D@__crt_stdio_output@@@2@@__crt_stdio_output@@AEAA_ND@Z 000000018005e550 f i libucrtd:output.obj
 0001:0005d6c0       ?type_case_c_tchar@?$output_processor@DV?$string_output_adapter@D@__crt_stdio_output@@V?$format_validation_base@DV?$string_output_adapter@D@__crt_stdio_output@@@2@@__crt_stdio_output@@AEAA_ND@Z 000000018005e6c0 f i libucrtd:output.obj
 0001:0005d830       ?type_case_c_tchar@?$output_processor@DV?$string_output_adapter@D@__crt_stdio_output@@V?$positional_parameter_base@DV?$string_output_adapter@D@__crt_stdio_output@@@2@@__crt_stdio_output@@AEAA_ND@Z 000000018005e830 f i libucrtd:output.obj
 0001:0005d9a0       ?type_case_c_tchar@?$output_processor@DV?$string_output_adapter@D@__crt_stdio_output@@V?$standard_base@DV?$string_output_adapter@D@__crt_stdio_output@@@2@@__crt_stdio_output@@AEAA_ND@Z 000000018005e9a0 f i libucrtd:output.obj
 0001:0005db10       ?type_case_c_tchar@?$output_processor@_WV?$stream_output_adapter@_W@__crt_stdio_output@@V?$format_validation_base@_WV?$stream_output_adapter@_W@__crt_stdio_output@@@2@@__crt_stdio_output@@AEAA_N_W@Z 000000018005eb10 f i libucrtd:output.obj
 0001:0005dc70       ?type_case_c_tchar@?$output_processor@_WV?$stream_output_adapter@_W@__crt_stdio_output@@V?$positional_parameter_base@_WV?$stream_output_adapter@_W@__crt_stdio_output@@@2@@__crt_stdio_output@@AEAA_N_W@Z 000000018005ec70 f i libucrtd:output.obj
 0001:0005ddd0       ?type_case_c_tchar@?$output_processor@_WV?$stream_output_adapter@_W@__crt_stdio_output@@V?$standard_base@_WV?$stream_output_adapter@_W@__crt_stdio_output@@@2@@__crt_stdio_output@@AEAA_N_W@Z 000000018005edd0 f i libucrtd:output.obj
 0001:0005df30       ?type_case_c_tchar@?$output_processor@_WV?$string_output_adapter@_W@__crt_stdio_output@@V?$format_validation_base@_WV?$string_output_adapter@_W@__crt_stdio_output@@@2@@__crt_stdio_output@@AEAA_N_W@Z 000000018005ef30 f i libucrtd:output.obj
 0001:0005e090       ?type_case_c_tchar@?$output_processor@_WV?$string_output_adapter@_W@__crt_stdio_output@@V?$positional_parameter_base@_WV?$string_output_adapter@_W@__crt_stdio_output@@@2@@__crt_stdio_output@@AEAA_N_W@Z 000000018005f090 f i libucrtd:output.obj
 0001:0005e1f0       ?type_case_c_tchar@?$output_processor@_WV?$string_output_adapter@_W@__crt_stdio_output@@V?$standard_base@_WV?$string_output_adapter@_W@__crt_stdio_output@@@2@@__crt_stdio_output@@AEAA_N_W@Z 000000018005f1f0 f i libucrtd:output.obj
 0001:0005e350       ?type_case_d@?$output_processor@DV?$stream_output_adapter@D@__crt_stdio_output@@V?$format_validation_base@DV?$stream_output_adapter@D@__crt_stdio_output@@@2@@__crt_stdio_output@@AEAA_NXZ 000000018005f350 f i libucrtd:output.obj
 0001:0005e380       ?type_case_d@?$output_processor@DV?$stream_output_adapter@D@__crt_stdio_output@@V?$positional_parameter_base@DV?$stream_output_adapter@D@__crt_stdio_output@@@2@@__crt_stdio_output@@AEAA_NXZ 000000018005f380 f i libucrtd:output.obj
 0001:0005e3b0       ?type_case_d@?$output_processor@DV?$stream_output_adapter@D@__crt_stdio_output@@V?$standard_base@DV?$stream_output_adapter@D@__crt_stdio_output@@@2@@__crt_stdio_output@@AEAA_NXZ 000000018005f3b0 f i libucrtd:output.obj
 0001:0005e3e0       ?type_case_d@?$output_processor@DV?$string_output_adapter@D@__crt_stdio_output@@V?$format_validation_base@DV?$string_output_adapter@D@__crt_stdio_output@@@2@@__crt_stdio_output@@AEAA_NXZ 000000018005f3e0 f i libucrtd:output.obj
 0001:0005e410       ?type_case_d@?$output_processor@DV?$string_output_adapter@D@__crt_stdio_output@@V?$positional_parameter_base@DV?$string_output_adapter@D@__crt_stdio_output@@@2@@__crt_stdio_output@@AEAA_NXZ 000000018005f410 f i libucrtd:output.obj
 0001:0005e440       ?type_case_d@?$output_processor@DV?$string_output_adapter@D@__crt_stdio_output@@V?$standard_base@DV?$string_output_adapter@D@__crt_stdio_output@@@2@@__crt_stdio_output@@AEAA_NXZ 000000018005f440 f i libucrtd:output.obj
 0001:0005e470       ?type_case_d@?$output_processor@_WV?$stream_output_adapter@_W@__crt_stdio_output@@V?$format_validation_base@_WV?$stream_output_adapter@_W@__crt_stdio_output@@@2@@__crt_stdio_output@@AEAA_NXZ 000000018005f470 f i libucrtd:output.obj
 0001:0005e4a0       ?type_case_d@?$output_processor@_WV?$stream_output_adapter@_W@__crt_stdio_output@@V?$positional_parameter_base@_WV?$stream_output_adapter@_W@__crt_stdio_output@@@2@@__crt_stdio_output@@AEAA_NXZ 000000018005f4a0 f i libucrtd:output.obj
 0001:0005e4d0       ?type_case_d@?$output_processor@_WV?$stream_output_adapter@_W@__crt_stdio_output@@V?$standard_base@_WV?$stream_output_adapter@_W@__crt_stdio_output@@@2@@__crt_stdio_output@@AEAA_NXZ 000000018005f4d0 f i libucrtd:output.obj
 0001:0005e500       ?type_case_d@?$output_processor@_WV?$string_output_adapter@_W@__crt_stdio_output@@V?$format_validation_base@_WV?$string_output_adapter@_W@__crt_stdio_output@@@2@@__crt_stdio_output@@AEAA_NXZ 000000018005f500 f i libucrtd:output.obj
 0001:0005e530       ?type_case_d@?$output_processor@_WV?$string_output_adapter@_W@__crt_stdio_output@@V?$positional_parameter_base@_WV?$string_output_adapter@_W@__crt_stdio_output@@@2@@__crt_stdio_output@@AEAA_NXZ 000000018005f530 f i libucrtd:output.obj
 0001:0005e560       ?type_case_d@?$output_processor@_WV?$string_output_adapter@_W@__crt_stdio_output@@V?$standard_base@_WV?$string_output_adapter@_W@__crt_stdio_output@@@2@@__crt_stdio_output@@AEAA_NXZ 000000018005f560 f i libucrtd:output.obj
 0001:0005e590       ?type_case_n@?$output_processor@DV?$stream_output_adapter@D@__crt_stdio_output@@V?$format_validation_base@DV?$stream_output_adapter@D@__crt_stdio_output@@@2@@__crt_stdio_output@@AEAA_NXZ 000000018005f590 f i libucrtd:output.obj
 0001:0005e820       ?type_case_n@?$output_processor@DV?$stream_output_adapter@D@__crt_stdio_output@@V?$positional_parameter_base@DV?$stream_output_adapter@D@__crt_stdio_output@@@2@@__crt_stdio_output@@AEAA_NXZ 000000018005f820 f i libucrtd:output.obj
 0001:0005eab0       ?type_case_n@?$output_processor@DV?$stream_output_adapter@D@__crt_stdio_output@@V?$standard_base@DV?$stream_output_adapter@D@__crt_stdio_output@@@2@@__crt_stdio_output@@AEAA_NXZ 000000018005fab0 f i libucrtd:output.obj
 0001:0005ed40       ?type_case_n@?$output_processor@DV?$string_output_adapter@D@__crt_stdio_output@@V?$format_validation_base@DV?$string_output_adapter@D@__crt_stdio_output@@@2@@__crt_stdio_output@@AEAA_NXZ 000000018005fd40 f i libucrtd:output.obj
 0001:0005efd0       ?type_case_n@?$output_processor@DV?$string_output_adapter@D@__crt_stdio_output@@V?$positional_parameter_base@DV?$string_output_adapter@D@__crt_stdio_output@@@2@@__crt_stdio_output@@AEAA_NXZ 000000018005ffd0 f i libucrtd:output.obj
 0001:0005f260       ?type_case_n@?$output_processor@DV?$string_output_adapter@D@__crt_stdio_output@@V?$standard_base@DV?$string_output_adapter@D@__crt_stdio_output@@@2@@__crt_stdio_output@@AEAA_NXZ 0000000180060260 f i libucrtd:output.obj
 0001:0005f4f0       ?type_case_n@?$output_processor@_WV?$stream_output_adapter@_W@__crt_stdio_output@@V?$format_validation_base@_WV?$stream_output_adapter@_W@__crt_stdio_output@@@2@@__crt_stdio_output@@AEAA_NXZ 00000001800604f0 f i libucrtd:output.obj
 0001:0005f780       ?type_case_n@?$output_processor@_WV?$stream_output_adapter@_W@__crt_stdio_output@@V?$positional_parameter_base@_WV?$stream_output_adapter@_W@__crt_stdio_output@@@2@@__crt_stdio_output@@AEAA_NXZ 0000000180060780 f i libucrtd:output.obj
 0001:0005fa10       ?type_case_n@?$output_processor@_WV?$stream_output_adapter@_W@__crt_stdio_output@@V?$standard_base@_WV?$stream_output_adapter@_W@__crt_stdio_output@@@2@@__crt_stdio_output@@AEAA_NXZ 0000000180060a10 f i libucrtd:output.obj
 0001:0005fca0       ?type_case_n@?$output_processor@_WV?$string_output_adapter@_W@__crt_stdio_output@@V?$format_validation_base@_WV?$string_output_adapter@_W@__crt_stdio_output@@@2@@__crt_stdio_output@@AEAA_NXZ 0000000180060ca0 f i libucrtd:output.obj
 0001:0005ff30       ?type_case_n@?$output_processor@_WV?$string_output_adapter@_W@__crt_stdio_output@@V?$positional_parameter_base@_WV?$string_output_adapter@_W@__crt_stdio_output@@@2@@__crt_stdio_output@@AEAA_NXZ 0000000180060f30 f i libucrtd:output.obj
 0001:000601c0       ?type_case_n@?$output_processor@_WV?$string_output_adapter@_W@__crt_stdio_output@@V?$standard_base@_WV?$string_output_adapter@_W@__crt_stdio_output@@@2@@__crt_stdio_output@@AEAA_NXZ 00000001800611c0 f i libucrtd:output.obj
 0001:00060450       ?type_case_o@?$output_processor@DV?$stream_output_adapter@D@__crt_stdio_output@@V?$format_validation_base@DV?$stream_output_adapter@D@__crt_stdio_output@@@2@@__crt_stdio_output@@AEAA_NXZ 0000000180061450 f i libucrtd:output.obj
 0001:00060490       ?type_case_o@?$output_processor@DV?$stream_output_adapter@D@__crt_stdio_output@@V?$positional_parameter_base@DV?$stream_output_adapter@D@__crt_stdio_output@@@2@@__crt_stdio_output@@AEAA_NXZ 0000000180061490 f i libucrtd:output.obj
 0001:000604d0       ?type_case_o@?$output_processor@DV?$stream_output_adapter@D@__crt_stdio_output@@V?$standard_base@DV?$stream_output_adapter@D@__crt_stdio_output@@@2@@__crt_stdio_output@@AEAA_NXZ 00000001800614d0 f i libucrtd:output.obj
 0001:00060510       ?type_case_o@?$output_processor@DV?$string_output_adapter@D@__crt_stdio_output@@V?$format_validation_base@DV?$string_output_adapter@D@__crt_stdio_output@@@2@@__crt_stdio_output@@AEAA_NXZ 0000000180061510 f i libucrtd:output.obj
 0001:00060550       ?type_case_o@?$output_processor@DV?$string_output_adapter@D@__crt_stdio_output@@V?$positional_parameter_base@DV?$string_output_adapter@D@__crt_stdio_output@@@2@@__crt_stdio_output@@AEAA_NXZ 0000000180061550 f i libucrtd:output.obj
 0001:00060590       ?type_case_o@?$output_processor@DV?$string_output_adapter@D@__crt_stdio_output@@V?$standard_base@DV?$string_output_adapter@D@__crt_stdio_output@@@2@@__crt_stdio_output@@AEAA_NXZ 0000000180061590 f i libucrtd:output.obj
 0001:000605d0       ?type_case_o@?$output_processor@_WV?$stream_output_adapter@_W@__crt_stdio_output@@V?$format_validation_base@_WV?$stream_output_adapter@_W@__crt_stdio_output@@@2@@__crt_stdio_output@@AEAA_NXZ 00000001800615d0 f i libucrtd:output.obj
 0001:00060610       ?type_case_o@?$output_processor@_WV?$stream_output_adapter@_W@__crt_stdio_output@@V?$positional_parameter_base@_WV?$stream_output_adapter@_W@__crt_stdio_output@@@2@@__crt_stdio_output@@AEAA_NXZ 0000000180061610 f i libucrtd:output.obj
 0001:00060650       ?type_case_o@?$output_processor@_WV?$stream_output_adapter@_W@__crt_stdio_output@@V?$standard_base@_WV?$stream_output_adapter@_W@__crt_stdio_output@@@2@@__crt_stdio_output@@AEAA_NXZ 0000000180061650 f i libucrtd:output.obj
 0001:00060690       ?type_case_o@?$output_processor@_WV?$string_output_adapter@_W@__crt_stdio_output@@V?$format_validation_base@_WV?$string_output_adapter@_W@__crt_stdio_output@@@2@@__crt_stdio_output@@AEAA_NXZ 0000000180061690 f i libucrtd:output.obj
 0001:000606d0       ?type_case_o@?$output_processor@_WV?$string_output_adapter@_W@__crt_stdio_output@@V?$positional_parameter_base@_WV?$string_output_adapter@_W@__crt_stdio_output@@@2@@__crt_stdio_output@@AEAA_NXZ 00000001800616d0 f i libucrtd:output.obj
 0001:00060710       ?type_case_o@?$output_processor@_WV?$string_output_adapter@_W@__crt_stdio_output@@V?$standard_base@_WV?$string_output_adapter@_W@__crt_stdio_output@@@2@@__crt_stdio_output@@AEAA_NXZ 0000000180061710 f i libucrtd:output.obj
 0001:00060750       ?type_case_p@?$output_processor@DV?$stream_output_adapter@D@__crt_stdio_output@@V?$format_validation_base@DV?$stream_output_adapter@D@__crt_stdio_output@@@2@@__crt_stdio_output@@AEAA_NXZ 0000000180061750 f i libucrtd:output.obj
 0001:00060790       ?type_case_p@?$output_processor@DV?$stream_output_adapter@D@__crt_stdio_output@@V?$positional_parameter_base@DV?$stream_output_adapter@D@__crt_stdio_output@@@2@@__crt_stdio_output@@AEAA_NXZ 0000000180061790 f i libucrtd:output.obj
 0001:000607d0       ?type_case_p@?$output_processor@DV?$stream_output_adapter@D@__crt_stdio_output@@V?$standard_base@DV?$stream_output_adapter@D@__crt_stdio_output@@@2@@__crt_stdio_output@@AEAA_NXZ 00000001800617d0 f i libucrtd:output.obj
 0001:00060810       ?type_case_p@?$output_processor@DV?$string_output_adapter@D@__crt_stdio_output@@V?$format_validation_base@DV?$string_output_adapter@D@__crt_stdio_output@@@2@@__crt_stdio_output@@AEAA_NXZ 0000000180061810 f i libucrtd:output.obj
 0001:00060850       ?type_case_p@?$output_processor@DV?$string_output_adapter@D@__crt_stdio_output@@V?$positional_parameter_base@DV?$string_output_adapter@D@__crt_stdio_output@@@2@@__crt_stdio_output@@AEAA_NXZ 0000000180061850 f i libucrtd:output.obj
 0001:00060890       ?type_case_p@?$output_processor@DV?$string_output_adapter@D@__crt_stdio_output@@V?$standard_base@DV?$string_output_adapter@D@__crt_stdio_output@@@2@@__crt_stdio_output@@AEAA_NXZ 0000000180061890 f i libucrtd:output.obj
 0001:000608d0       ?type_case_p@?$output_processor@_WV?$stream_output_adapter@_W@__crt_stdio_output@@V?$format_validation_base@_WV?$stream_output_adapter@_W@__crt_stdio_output@@@2@@__crt_stdio_output@@AEAA_NXZ 00000001800618d0 f i libucrtd:output.obj
 0001:00060910       ?type_case_p@?$output_processor@_WV?$stream_output_adapter@_W@__crt_stdio_output@@V?$positional_parameter_base@_WV?$stream_output_adapter@_W@__crt_stdio_output@@@2@@__crt_stdio_output@@AEAA_NXZ 0000000180061910 f i libucrtd:output.obj
 0001:00060950       ?type_case_p@?$output_processor@_WV?$stream_output_adapter@_W@__crt_stdio_output@@V?$standard_base@_WV?$stream_output_adapter@_W@__crt_stdio_output@@@2@@__crt_stdio_output@@AEAA_NXZ 0000000180061950 f i libucrtd:output.obj
 0001:00060990       ?type_case_p@?$output_processor@_WV?$string_output_adapter@_W@__crt_stdio_output@@V?$format_validation_base@_WV?$string_output_adapter@_W@__crt_stdio_output@@@2@@__crt_stdio_output@@AEAA_NXZ 0000000180061990 f i libucrtd:output.obj
 0001:000609d0       ?type_case_p@?$output_processor@_WV?$string_output_adapter@_W@__crt_stdio_output@@V?$positional_parameter_base@_WV?$string_output_adapter@_W@__crt_stdio_output@@@2@@__crt_stdio_output@@AEAA_NXZ 00000001800619d0 f i libucrtd:output.obj
 0001:00060a10       ?type_case_p@?$output_processor@_WV?$string_output_adapter@_W@__crt_stdio_output@@V?$standard_base@_WV?$string_output_adapter@_W@__crt_stdio_output@@@2@@__crt_stdio_output@@AEAA_NXZ 0000000180061a10 f i libucrtd:output.obj
 0001:00060a50       ?type_case_s@?$output_processor@DV?$stream_output_adapter@D@__crt_stdio_output@@V?$format_validation_base@DV?$stream_output_adapter@D@__crt_stdio_output@@@2@@__crt_stdio_output@@AEAA_NXZ 0000000180061a50 f i libucrtd:output.obj
 0001:00060b70       ?type_case_s@?$output_processor@DV?$stream_output_adapter@D@__crt_stdio_output@@V?$positional_parameter_base@DV?$stream_output_adapter@D@__crt_stdio_output@@@2@@__crt_stdio_output@@AEAA_NXZ 0000000180061b70 f i libucrtd:output.obj
 0001:00060c90       ?type_case_s@?$output_processor@DV?$stream_output_adapter@D@__crt_stdio_output@@V?$standard_base@DV?$stream_output_adapter@D@__crt_stdio_output@@@2@@__crt_stdio_output@@AEAA_NXZ 0000000180061c90 f i libucrtd:output.obj
 0001:00060db0       ?type_case_s@?$output_processor@DV?$string_output_adapter@D@__crt_stdio_output@@V?$format_validation_base@DV?$string_output_adapter@D@__crt_stdio_output@@@2@@__crt_stdio_output@@AEAA_NXZ 0000000180061db0 f i libucrtd:output.obj
 0001:00060ed0       ?type_case_s@?$output_processor@DV?$string_output_adapter@D@__crt_stdio_output@@V?$positional_parameter_base@DV?$string_output_adapter@D@__crt_stdio_output@@@2@@__crt_stdio_output@@AEAA_NXZ 0000000180061ed0 f i libucrtd:output.obj
 0001:00060ff0       ?type_case_s@?$output_processor@DV?$string_output_adapter@D@__crt_stdio_output@@V?$standard_base@DV?$string_output_adapter@D@__crt_stdio_output@@@2@@__crt_stdio_output@@AEAA_NXZ 0000000180061ff0 f i libucrtd:output.obj
 0001:00061110       ?type_case_s@?$output_processor@_WV?$stream_output_adapter@_W@__crt_stdio_output@@V?$format_validation_base@_WV?$stream_output_adapter@_W@__crt_stdio_output@@@2@@__crt_stdio_output@@AEAA_NXZ 0000000180062110 f i libucrtd:output.obj
 0001:00061230       ?type_case_s@?$output_processor@_WV?$stream_output_adapter@_W@__crt_stdio_output@@V?$positional_parameter_base@_WV?$stream_output_adapter@_W@__crt_stdio_output@@@2@@__crt_stdio_output@@AEAA_NXZ 0000000180062230 f i libucrtd:output.obj
 0001:00061350       ?type_case_s@?$output_processor@_WV?$stream_output_adapter@_W@__crt_stdio_output@@V?$standard_base@_WV?$stream_output_adapter@_W@__crt_stdio_output@@@2@@__crt_stdio_output@@AEAA_NXZ 0000000180062350 f i libucrtd:output.obj
 0001:00061470       ?type_case_s@?$output_processor@_WV?$string_output_adapter@_W@__crt_stdio_output@@V?$format_validation_base@_WV?$string_output_adapter@_W@__crt_stdio_output@@@2@@__crt_stdio_output@@AEAA_NXZ 0000000180062470 f i libucrtd:output.obj
 0001:00061590       ?type_case_s@?$output_processor@_WV?$string_output_adapter@_W@__crt_stdio_output@@V?$positional_parameter_base@_WV?$string_output_adapter@_W@__crt_stdio_output@@@2@@__crt_stdio_output@@AEAA_NXZ 0000000180062590 f i libucrtd:output.obj
 0001:000616b0       ?type_case_s@?$output_processor@_WV?$string_output_adapter@_W@__crt_stdio_output@@V?$standard_base@_WV?$string_output_adapter@_W@__crt_stdio_output@@@2@@__crt_stdio_output@@AEAA_NXZ 00000001800626b0 f i libucrtd:output.obj
 0001:000617d0       ?type_case_s_compute_narrow_string_length@?$output_processor@DV?$stream_output_adapter@D@__crt_stdio_output@@V?$format_validation_base@DV?$stream_output_adapter@D@__crt_stdio_output@@@2@@__crt_stdio_output@@AEAAHHD@Z 00000001800627d0 f i libucrtd:output.obj
 0001:00061800       ?type_case_s_compute_narrow_string_length@?$output_processor@DV?$stream_output_adapter@D@__crt_stdio_output@@V?$positional_parameter_base@DV?$stream_output_adapter@D@__crt_stdio_output@@@2@@__crt_stdio_output@@AEAAHHD@Z 0000000180062800 f i libucrtd:output.obj
 0001:00061830       ?type_case_s_compute_narrow_string_length@?$output_processor@DV?$stream_output_adapter@D@__crt_stdio_output@@V?$standard_base@DV?$stream_output_adapter@D@__crt_stdio_output@@@2@@__crt_stdio_output@@AEAAHHD@Z 0000000180062830 f i libucrtd:output.obj
 0001:00061860       ?type_case_s_compute_narrow_string_length@?$output_processor@DV?$string_output_adapter@D@__crt_stdio_output@@V?$format_validation_base@DV?$string_output_adapter@D@__crt_stdio_output@@@2@@__crt_stdio_output@@AEAAHHD@Z 0000000180062860 f i libucrtd:output.obj
 0001:00061890       ?type_case_s_compute_narrow_string_length@?$output_processor@DV?$string_output_adapter@D@__crt_stdio_output@@V?$positional_parameter_base@DV?$string_output_adapter@D@__crt_stdio_output@@@2@@__crt_stdio_output@@AEAAHHD@Z 0000000180062890 f i libucrtd:output.obj
 0001:000618c0       ?type_case_s_compute_narrow_string_length@?$output_processor@DV?$string_output_adapter@D@__crt_stdio_output@@V?$standard_base@DV?$string_output_adapter@D@__crt_stdio_output@@@2@@__crt_stdio_output@@AEAAHHD@Z 00000001800628c0 f i libucrtd:output.obj
 0001:000618f0       ?type_case_s_compute_narrow_string_length@?$output_processor@_WV?$stream_output_adapter@_W@__crt_stdio_output@@V?$format_validation_base@_WV?$stream_output_adapter@_W@__crt_stdio_output@@@2@@__crt_stdio_output@@AEAAHH_W@Z 00000001800628f0 f i libucrtd:output.obj
 0001:00061a40       ?type_case_s_compute_narrow_string_length@?$output_processor@_WV?$stream_output_adapter@_W@__crt_stdio_output@@V?$positional_parameter_base@_WV?$stream_output_adapter@_W@__crt_stdio_output@@@2@@__crt_stdio_output@@AEAAHH_W@Z 0000000180062a40 f i libucrtd:output.obj
 0001:00061b90       ?type_case_s_compute_narrow_string_length@?$output_processor@_WV?$stream_output_adapter@_W@__crt_stdio_output@@V?$standard_base@_WV?$stream_output_adapter@_W@__crt_stdio_output@@@2@@__crt_stdio_output@@AEAAHH_W@Z 0000000180062b90 f i libucrtd:output.obj
 0001:00061ce0       ?type_case_s_compute_narrow_string_length@?$output_processor@_WV?$string_output_adapter@_W@__crt_stdio_output@@V?$format_validation_base@_WV?$string_output_adapter@_W@__crt_stdio_output@@@2@@__crt_stdio_output@@AEAAHH_W@Z 0000000180062ce0 f i libucrtd:output.obj
 0001:00061e30       ?type_case_s_compute_narrow_string_length@?$output_processor@_WV?$string_output_adapter@_W@__crt_stdio_output@@V?$positional_parameter_base@_WV?$string_output_adapter@_W@__crt_stdio_output@@@2@@__crt_stdio_output@@AEAAHH_W@Z 0000000180062e30 f i libucrtd:output.obj
 0001:00061f80       ?type_case_s_compute_narrow_string_length@?$output_processor@_WV?$string_output_adapter@_W@__crt_stdio_output@@V?$standard_base@_WV?$string_output_adapter@_W@__crt_stdio_output@@@2@@__crt_stdio_output@@AEAAHH_W@Z 0000000180062f80 f i libucrtd:output.obj
 0001:000620d0       ?type_case_u@?$output_processor@DV?$stream_output_adapter@D@__crt_stdio_output@@V?$format_validation_base@DV?$stream_output_adapter@D@__crt_stdio_output@@@2@@__crt_stdio_output@@AEAA_NXZ 00000001800630d0 f i libucrtd:output.obj
 0001:000620f0       ?type_case_u@?$output_processor@DV?$stream_output_adapter@D@__crt_stdio_output@@V?$positional_parameter_base@DV?$stream_output_adapter@D@__crt_stdio_output@@@2@@__crt_stdio_output@@AEAA_NXZ 00000001800630f0 f i libucrtd:output.obj
 0001:00062110       ?type_case_u@?$output_processor@DV?$stream_output_adapter@D@__crt_stdio_output@@V?$standard_base@DV?$stream_output_adapter@D@__crt_stdio_output@@@2@@__crt_stdio_output@@AEAA_NXZ 0000000180063110 f i libucrtd:output.obj
 0001:00062130       ?type_case_u@?$output_processor@DV?$string_output_adapter@D@__crt_stdio_output@@V?$format_validation_base@DV?$string_output_adapter@D@__crt_stdio_output@@@2@@__crt_stdio_output@@AEAA_NXZ 0000000180063130 f i libucrtd:output.obj
 0001:00062150       ?type_case_u@?$output_processor@DV?$string_output_adapter@D@__crt_stdio_output@@V?$positional_parameter_base@DV?$string_output_adapter@D@__crt_stdio_output@@@2@@__crt_stdio_output@@AEAA_NXZ 0000000180063150 f i libucrtd:output.obj
 0001:00062170       ?type_case_u@?$output_processor@DV?$string_output_adapter@D@__crt_stdio_output@@V?$standard_base@DV?$string_output_adapter@D@__crt_stdio_output@@@2@@__crt_stdio_output@@AEAA_NXZ 0000000180063170 f i libucrtd:output.obj
 0001:00062190       ?type_case_u@?$output_processor@_WV?$stream_output_adapter@_W@__crt_stdio_output@@V?$format_validation_base@_WV?$stream_output_adapter@_W@__crt_stdio_output@@@2@@__crt_stdio_output@@AEAA_NXZ 0000000180063190 f i libucrtd:output.obj
 0001:000621b0       ?type_case_u@?$output_processor@_WV?$stream_output_adapter@_W@__crt_stdio_output@@V?$positional_parameter_base@_WV?$stream_output_adapter@_W@__crt_stdio_output@@@2@@__crt_stdio_output@@AEAA_NXZ 00000001800631b0 f i libucrtd:output.obj
 0001:000621d0       ?type_case_u@?$output_processor@_WV?$stream_output_adapter@_W@__crt_stdio_output@@V?$standard_base@_WV?$stream_output_adapter@_W@__crt_stdio_output@@@2@@__crt_stdio_output@@AEAA_NXZ 00000001800631d0 f i libucrtd:output.obj
 0001:000621f0       ?type_case_u@?$output_processor@_WV?$string_output_adapter@_W@__crt_stdio_output@@V?$format_validation_base@_WV?$string_output_adapter@_W@__crt_stdio_output@@@2@@__crt_stdio_output@@AEAA_NXZ 00000001800631f0 f i libucrtd:output.obj
 0001:00062210       ?type_case_u@?$output_processor@_WV?$string_output_adapter@_W@__crt_stdio_output@@V?$positional_parameter_base@_WV?$string_output_adapter@_W@__crt_stdio_output@@@2@@__crt_stdio_output@@AEAA_NXZ 0000000180063210 f i libucrtd:output.obj
 0001:00062230       ?type_case_u@?$output_processor@_WV?$string_output_adapter@_W@__crt_stdio_output@@V?$standard_base@_WV?$string_output_adapter@_W@__crt_stdio_output@@@2@@__crt_stdio_output@@AEAA_NXZ 0000000180063230 f i libucrtd:output.obj
 0001:00062250       ?type_case_x@?$output_processor@DV?$stream_output_adapter@D@__crt_stdio_output@@V?$format_validation_base@DV?$stream_output_adapter@D@__crt_stdio_output@@@2@@__crt_stdio_output@@AEAA_NXZ 0000000180063250 f i libucrtd:output.obj
 0001:00062270       ?type_case_x@?$output_processor@DV?$stream_output_adapter@D@__crt_stdio_output@@V?$positional_parameter_base@DV?$stream_output_adapter@D@__crt_stdio_output@@@2@@__crt_stdio_output@@AEAA_NXZ 0000000180063270 f i libucrtd:output.obj
 0001:00062290       ?type_case_x@?$output_processor@DV?$stream_output_adapter@D@__crt_stdio_output@@V?$standard_base@DV?$stream_output_adapter@D@__crt_stdio_output@@@2@@__crt_stdio_output@@AEAA_NXZ 0000000180063290 f i libucrtd:output.obj
 0001:000622b0       ?type_case_x@?$output_processor@DV?$string_output_adapter@D@__crt_stdio_output@@V?$format_validation_base@DV?$string_output_adapter@D@__crt_stdio_output@@@2@@__crt_stdio_output@@AEAA_NXZ 00000001800632b0 f i libucrtd:output.obj
 0001:000622d0       ?type_case_x@?$output_processor@DV?$string_output_adapter@D@__crt_stdio_output@@V?$positional_parameter_base@DV?$string_output_adapter@D@__crt_stdio_output@@@2@@__crt_stdio_output@@AEAA_NXZ 00000001800632d0 f i libucrtd:output.obj
 0001:000622f0       ?type_case_x@?$output_processor@DV?$string_output_adapter@D@__crt_stdio_output@@V?$standard_base@DV?$string_output_adapter@D@__crt_stdio_output@@@2@@__crt_stdio_output@@AEAA_NXZ 00000001800632f0 f i libucrtd:output.obj
 0001:00062310       ?type_case_x@?$output_processor@_WV?$stream_output_adapter@_W@__crt_stdio_output@@V?$format_validation_base@_WV?$stream_output_adapter@_W@__crt_stdio_output@@@2@@__crt_stdio_output@@AEAA_NXZ 0000000180063310 f i libucrtd:output.obj
 0001:00062330       ?type_case_x@?$output_processor@_WV?$stream_output_adapter@_W@__crt_stdio_output@@V?$positional_parameter_base@_WV?$stream_output_adapter@_W@__crt_stdio_output@@@2@@__crt_stdio_output@@AEAA_NXZ 0000000180063330 f i libucrtd:output.obj
 0001:00062350       ?type_case_x@?$output_processor@_WV?$stream_output_adapter@_W@__crt_stdio_output@@V?$standard_base@_WV?$stream_output_adapter@_W@__crt_stdio_output@@@2@@__crt_stdio_output@@AEAA_NXZ 0000000180063350 f i libucrtd:output.obj
 0001:00062370       ?type_case_x@?$output_processor@_WV?$string_output_adapter@_W@__crt_stdio_output@@V?$format_validation_base@_WV?$string_output_adapter@_W@__crt_stdio_output@@@2@@__crt_stdio_output@@AEAA_NXZ 0000000180063370 f i libucrtd:output.obj
 0001:00062390       ?type_case_x@?$output_processor@_WV?$string_output_adapter@_W@__crt_stdio_output@@V?$positional_parameter_base@_WV?$string_output_adapter@_W@__crt_stdio_output@@@2@@__crt_stdio_output@@AEAA_NXZ 0000000180063390 f i libucrtd:output.obj
 0001:000623b0       ?type_case_x@?$output_processor@_WV?$string_output_adapter@_W@__crt_stdio_output@@V?$standard_base@_WV?$string_output_adapter@_W@__crt_stdio_output@@@2@@__crt_stdio_output@@AEAA_NXZ 00000001800633b0 f i libucrtd:output.obj
 0001:000623d0       ?unget@?$c_string_character_source@D@__crt_strtox@@QEAAXD@Z 00000001800633d0 f i libucrtd:output.obj
 0001:000624b0       ?unget@?$c_string_character_source@_W@__crt_strtox@@QEAAX_W@Z 00000001800634b0 f i libucrtd:output.obj
 0001:00062590       ?unset_flag@?$output_processor@DV?$stream_output_adapter@D@__crt_stdio_output@@V?$format_validation_base@DV?$stream_output_adapter@D@__crt_stdio_output@@@2@@__crt_stdio_output@@AEAAXI@Z 0000000180063590 f i libucrtd:output.obj
 0001:000625c0       ?unset_flag@?$output_processor@DV?$stream_output_adapter@D@__crt_stdio_output@@V?$positional_parameter_base@DV?$stream_output_adapter@D@__crt_stdio_output@@@2@@__crt_stdio_output@@AEAAXI@Z 00000001800635c0 f i libucrtd:output.obj
 0001:000625f0       ?unset_flag@?$output_processor@DV?$stream_output_adapter@D@__crt_stdio_output@@V?$standard_base@DV?$stream_output_adapter@D@__crt_stdio_output@@@2@@__crt_stdio_output@@AEAAXI@Z 00000001800635f0 f i libucrtd:output.obj
 0001:00062620       ?unset_flag@?$output_processor@DV?$string_output_adapter@D@__crt_stdio_output@@V?$format_validation_base@DV?$string_output_adapter@D@__crt_stdio_output@@@2@@__crt_stdio_output@@AEAAXI@Z 0000000180063620 f i libucrtd:output.obj
 0001:00062650       ?unset_flag@?$output_processor@DV?$string_output_adapter@D@__crt_stdio_output@@V?$positional_parameter_base@DV?$string_output_adapter@D@__crt_stdio_output@@@2@@__crt_stdio_output@@AEAAXI@Z 0000000180063650 f i libucrtd:output.obj
 0001:00062680       ?unset_flag@?$output_processor@DV?$string_output_adapter@D@__crt_stdio_output@@V?$standard_base@DV?$string_output_adapter@D@__crt_stdio_output@@@2@@__crt_stdio_output@@AEAAXI@Z 0000000180063680 f i libucrtd:output.obj
 0001:000626b0       ?unset_flag@?$output_processor@_WV?$stream_output_adapter@_W@__crt_stdio_output@@V?$format_validation_base@_WV?$stream_output_adapter@_W@__crt_stdio_output@@@2@@__crt_stdio_output@@AEAAXI@Z 00000001800636b0 f i libucrtd:output.obj
 0001:000626e0       ?unset_flag@?$output_processor@_WV?$stream_output_adapter@_W@__crt_stdio_output@@V?$positional_parameter_base@_WV?$stream_output_adapter@_W@__crt_stdio_output@@@2@@__crt_stdio_output@@AEAAXI@Z 00000001800636e0 f i libucrtd:output.obj
 0001:00062710       ?unset_flag@?$output_processor@_WV?$stream_output_adapter@_W@__crt_stdio_output@@V?$standard_base@_WV?$stream_output_adapter@_W@__crt_stdio_output@@@2@@__crt_stdio_output@@AEAAXI@Z 0000000180063710 f i libucrtd:output.obj
 0001:00062740       ?unset_flag@?$output_processor@_WV?$string_output_adapter@_W@__crt_stdio_output@@V?$format_validation_base@_WV?$string_output_adapter@_W@__crt_stdio_output@@@2@@__crt_stdio_output@@AEAAXI@Z 0000000180063740 f i libucrtd:output.obj
 0001:00062770       ?unset_flag@?$output_processor@_WV?$string_output_adapter@_W@__crt_stdio_output@@V?$positional_parameter_base@_WV?$string_output_adapter@_W@__crt_stdio_output@@@2@@__crt_stdio_output@@AEAAXI@Z 0000000180063770 f i libucrtd:output.obj
 0001:000627a0       ?unset_flag@?$output_processor@_WV?$string_output_adapter@_W@__crt_stdio_output@@V?$standard_base@_WV?$string_output_adapter@_W@__crt_stdio_output@@@2@@__crt_stdio_output@@AEAAXI@Z 00000001800637a0 f i libucrtd:output.obj
 0001:000627d0       ?update_field_width@?$positional_parameter_base@DV?$stream_output_adapter@D@__crt_stdio_output@@@__crt_stdio_output@@IEAA_NXZ 00000001800637d0 f i libucrtd:output.obj
 0001:000629d0       ?update_field_width@?$positional_parameter_base@DV?$string_output_adapter@D@__crt_stdio_output@@@__crt_stdio_output@@IEAA_NXZ 00000001800639d0 f i libucrtd:output.obj
 0001:00062bd0       ?update_field_width@?$positional_parameter_base@_WV?$stream_output_adapter@_W@__crt_stdio_output@@@__crt_stdio_output@@IEAA_NXZ 0000000180063bd0 f i libucrtd:output.obj
 0001:00062dd0       ?update_field_width@?$positional_parameter_base@_WV?$string_output_adapter@_W@__crt_stdio_output@@@__crt_stdio_output@@IEAA_NXZ 0000000180063dd0 f i libucrtd:output.obj
 0001:00062fd0       ?update_field_width@?$standard_base@DV?$stream_output_adapter@D@__crt_stdio_output@@@__crt_stdio_output@@IEAA_NXZ 0000000180063fd0 f i libucrtd:output.obj
 0001:00063000       ?update_field_width@?$standard_base@DV?$string_output_adapter@D@__crt_stdio_output@@@__crt_stdio_output@@IEAA_NXZ 0000000180064000 f i libucrtd:output.obj
 0001:00063030       ?update_field_width@?$standard_base@_WV?$stream_output_adapter@_W@__crt_stdio_output@@@__crt_stdio_output@@IEAA_NXZ 0000000180064030 f i libucrtd:output.obj
 0001:00063060       ?update_field_width@?$standard_base@_WV?$string_output_adapter@_W@__crt_stdio_output@@@__crt_stdio_output@@IEAA_NXZ 0000000180064060 f i libucrtd:output.obj
 0001:00063090       ?update_locale@__crt_cached_ptd_host@@AEAAXXZ 0000000180064090 f i libucrtd:output.obj
 0001:000630c0       ?update_locale_slow@__crt_cached_ptd_host@@AEAAXXZ 00000001800640c0 f i libucrtd:output.obj
 0001:00063170       ?update_precision@?$positional_parameter_base@DV?$stream_output_adapter@D@__crt_stdio_output@@@__crt_stdio_output@@IEAA_NXZ 0000000180064170 f i libucrtd:output.obj
 0001:00063370       ?update_precision@?$positional_parameter_base@DV?$string_output_adapter@D@__crt_stdio_output@@@__crt_stdio_output@@IEAA_NXZ 0000000180064370 f i libucrtd:output.obj
 0001:00063570       ?update_precision@?$positional_parameter_base@_WV?$stream_output_adapter@_W@__crt_stdio_output@@@__crt_stdio_output@@IEAA_NXZ 0000000180064570 f i libucrtd:output.obj
 0001:00063770       ?update_precision@?$positional_parameter_base@_WV?$string_output_adapter@_W@__crt_stdio_output@@@__crt_stdio_output@@IEAA_NXZ 0000000180064770 f i libucrtd:output.obj
 0001:00063970       ?update_precision@?$standard_base@DV?$stream_output_adapter@D@__crt_stdio_output@@@__crt_stdio_output@@IEAA_NXZ 0000000180064970 f i libucrtd:output.obj
 0001:000639a0       ?update_precision@?$standard_base@DV?$string_output_adapter@D@__crt_stdio_output@@@__crt_stdio_output@@IEAA_NXZ 00000001800649a0 f i libucrtd:output.obj
 0001:000639d0       ?update_precision@?$standard_base@_WV?$stream_output_adapter@_W@__crt_stdio_output@@@__crt_stdio_output@@IEAA_NXZ 00000001800649d0 f i libucrtd:output.obj
 0001:00063a00       ?update_precision@?$standard_base@_WV?$string_output_adapter@_W@__crt_stdio_output@@@__crt_stdio_output@@IEAA_NXZ 0000000180064a00 f i libucrtd:output.obj
 0001:00063a30       ?valid@__crt_stdio_stream@@QEBA_NXZ 0000000180064a30 f i libucrtd:output.obj
 0001:00063a60       ?validate@?$c_string_character_source@D@__crt_strtox@@QEBA_NXZ 0000000180064a60 f i libucrtd:output.obj
 0001:00063b20       ?validate@?$c_string_character_source@_W@__crt_strtox@@QEBA_NXZ 0000000180064b20 f i libucrtd:output.obj
 0001:00063be0       ?validate@?$stream_output_adapter@D@__crt_stdio_output@@QEBA_NAEAV__crt_cached_ptd_host@@@Z 0000000180064be0 f i libucrtd:output.obj
 0001:00063ce0       ?validate@?$stream_output_adapter@_W@__crt_stdio_output@@QEBA_NAEAV__crt_cached_ptd_host@@@Z 0000000180064ce0 f i libucrtd:output.obj
 0001:00063de0       ?validate@?$string_output_adapter@D@__crt_stdio_output@@QEBA_NAEAV__crt_cached_ptd_host@@@Z 0000000180064de0 f i libucrtd:output.obj
 0001:00063ec0       ?validate@?$string_output_adapter@_W@__crt_stdio_output@@QEBA_NAEAV__crt_cached_ptd_host@@@Z 0000000180064ec0 f i libucrtd:output.obj
 0001:00063fa0       ?validate_and_store_parameter_data@?$positional_parameter_base@DV?$stream_output_adapter@D@__crt_stdio_output@@@__crt_stdio_output@@AEAA_NAEAUparameter_data@12@W4parameter_type@12@DW4length_modifier@2@@Z 0000000180064fa0 f i libucrtd:output.obj
 0001:000640e0       ?validate_and_store_parameter_data@?$positional_parameter_base@DV?$string_output_adapter@D@__crt_stdio_output@@@__crt_stdio_output@@AEAA_NAEAUparameter_data@12@W4parameter_type@12@DW4length_modifier@2@@Z 00000001800650e0 f i libucrtd:output.obj
 0001:00064220       ?validate_and_store_parameter_data@?$positional_parameter_base@_WV?$stream_output_adapter@_W@__crt_stdio_output@@@__crt_stdio_output@@AEAA_NAEAUparameter_data@12@W4parameter_type@12@_WW4length_modifier@2@@Z 0000000180065220 f i libucrtd:output.obj
 0001:00064360       ?validate_and_store_parameter_data@?$positional_parameter_base@_WV?$string_output_adapter@_W@__crt_stdio_output@@@__crt_stdio_output@@AEAA_NAEAUparameter_data@12@W4parameter_type@12@_WW4length_modifier@2@@Z 0000000180065360 f i libucrtd:output.obj
 0001:000644a0       ?validate_and_update_state_at_beginning_of_format_character@?$positional_parameter_base@DV?$stream_output_adapter@D@__crt_stdio_output@@@__crt_stdio_output@@IEAA_NXZ 00000001800654a0 f i libucrtd:output.obj
 0001:00064740       ?validate_and_update_state_at_beginning_of_format_character@?$positional_parameter_base@DV?$string_output_adapter@D@__crt_stdio_output@@@__crt_stdio_output@@IEAA_NXZ 0000000180065740 f i libucrtd:output.obj
 0001:000649e0       ?validate_and_update_state_at_beginning_of_format_character@?$positional_parameter_base@_WV?$stream_output_adapter@_W@__crt_stdio_output@@@__crt_stdio_output@@IEAA_NXZ 00000001800659e0 f i libucrtd:output.obj
 0001:00064c80       ?validate_and_update_state_at_beginning_of_format_character@?$positional_parameter_base@_WV?$string_output_adapter@_W@__crt_stdio_output@@@__crt_stdio_output@@IEAA_NXZ 0000000180065c80 f i libucrtd:output.obj
 0001:00064f20       ?validate_and_update_state_at_beginning_of_format_character@?$standard_base@DV?$stream_output_adapter@D@__crt_stdio_output@@@__crt_stdio_output@@IEAA_NXZ 0000000180065f20 f i libucrtd:output.obj
 0001:00064f30       ?validate_and_update_state_at_beginning_of_format_character@?$standard_base@DV?$string_output_adapter@D@__crt_stdio_output@@@__crt_stdio_output@@IEAA_NXZ 0000000180065f30 f i libucrtd:output.obj
 0001:00064f40       ?validate_and_update_state_at_beginning_of_format_character@?$standard_base@_WV?$stream_output_adapter@_W@__crt_stdio_output@@@__crt_stdio_output@@IEAA_NXZ 0000000180065f40 f i libucrtd:output.obj
 0001:00064f50       ?validate_and_update_state_at_beginning_of_format_character@?$standard_base@_WV?$string_output_adapter@_W@__crt_stdio_output@@@__crt_stdio_output@@IEAA_NXZ 0000000180065f50 f i libucrtd:output.obj
 0001:00064f60       ?validate_and_update_state_at_end_of_format_string@?$format_validation_base@DV?$stream_output_adapter@D@__crt_stdio_output@@@__crt_stdio_output@@IEAA_NXZ 0000000180065f60 f i libucrtd:output.obj
 0001:00065050       ?validate_and_update_state_at_end_of_format_string@?$format_validation_base@DV?$string_output_adapter@D@__crt_stdio_output@@@__crt_stdio_output@@IEAA_NXZ 0000000180066050 f i libucrtd:output.obj
 0001:00065140       ?validate_and_update_state_at_end_of_format_string@?$format_validation_base@_WV?$stream_output_adapter@_W@__crt_stdio_output@@@__crt_stdio_output@@IEAA_NXZ 0000000180066140 f i libucrtd:output.obj
 0001:00065230       ?validate_and_update_state_at_end_of_format_string@?$format_validation_base@_WV?$string_output_adapter@_W@__crt_stdio_output@@@__crt_stdio_output@@IEAA_NXZ 0000000180066230 f i libucrtd:output.obj
 0001:00065320       ?validate_and_update_state_at_end_of_format_string@?$positional_parameter_base@DV?$stream_output_adapter@D@__crt_stdio_output@@@__crt_stdio_output@@IEAA_NXZ 0000000180066320 f i libucrtd:output.obj
 0001:00065550       ?validate_and_update_state_at_end_of_format_string@?$positional_parameter_base@DV?$string_output_adapter@D@__crt_stdio_output@@@__crt_stdio_output@@IEAA_NXZ 0000000180066550 f i libucrtd:output.obj
 0001:00065780       ?validate_and_update_state_at_end_of_format_string@?$positional_parameter_base@_WV?$stream_output_adapter@_W@__crt_stdio_output@@@__crt_stdio_output@@IEAA_NXZ 0000000180066780 f i libucrtd:output.obj
 0001:000659b0       ?validate_and_update_state_at_end_of_format_string@?$positional_parameter_base@_WV?$string_output_adapter@_W@__crt_stdio_output@@@__crt_stdio_output@@IEAA_NXZ 00000001800669b0 f i libucrtd:output.obj
 0001:00065be0       ?validate_and_update_state_at_end_of_format_string@?$standard_base@DV?$stream_output_adapter@D@__crt_stdio_output@@@__crt_stdio_output@@IEBA_NXZ 0000000180066be0 f i libucrtd:output.obj
 0001:00065bf0       ?validate_and_update_state_at_end_of_format_string@?$standard_base@DV?$string_output_adapter@D@__crt_stdio_output@@@__crt_stdio_output@@IEBA_NXZ 0000000180066bf0 f i libucrtd:output.obj
 0001:00065c00       ?validate_and_update_state_at_end_of_format_string@?$standard_base@_WV?$stream_output_adapter@_W@__crt_stdio_output@@@__crt_stdio_output@@IEBA_NXZ 0000000180066c00 f i libucrtd:output.obj
 0001:00065c10       ?validate_and_update_state_at_end_of_format_string@?$standard_base@_WV?$string_output_adapter@_W@__crt_stdio_output@@@__crt_stdio_output@@IEBA_NXZ 0000000180066c10 f i libucrtd:output.obj
 0001:00065c20       ?validate_state_for_type_case_a@?$positional_parameter_base@DV?$stream_output_adapter@D@__crt_stdio_output@@@__crt_stdio_output@@IEAA_NXZ 0000000180066c20 f i libucrtd:output.obj
 0001:00065d80       ?validate_state_for_type_case_a@?$positional_parameter_base@DV?$string_output_adapter@D@__crt_stdio_output@@@__crt_stdio_output@@IEAA_NXZ 0000000180066d80 f i libucrtd:output.obj
 0001:00065ee0       ?validate_state_for_type_case_a@?$positional_parameter_base@_WV?$stream_output_adapter@_W@__crt_stdio_output@@@__crt_stdio_output@@IEAA_NXZ 0000000180066ee0 f i libucrtd:output.obj
 0001:00066040       ?validate_state_for_type_case_a@?$positional_parameter_base@_WV?$string_output_adapter@_W@__crt_stdio_output@@@__crt_stdio_output@@IEAA_NXZ 0000000180067040 f i libucrtd:output.obj
 0001:000661a0       ?validate_state_for_type_case_a@?$standard_base@DV?$stream_output_adapter@D@__crt_stdio_output@@@__crt_stdio_output@@IEBA_NXZ 00000001800671a0 f i libucrtd:output.obj
 0001:000661b0       ?validate_state_for_type_case_a@?$standard_base@DV?$string_output_adapter@D@__crt_stdio_output@@@__crt_stdio_output@@IEBA_NXZ 00000001800671b0 f i libucrtd:output.obj
 0001:000661c0       ?validate_state_for_type_case_a@?$standard_base@_WV?$stream_output_adapter@_W@__crt_stdio_output@@@__crt_stdio_output@@IEBA_NXZ 00000001800671c0 f i libucrtd:output.obj
 0001:000661d0       ?validate_state_for_type_case_a@?$standard_base@_WV?$string_output_adapter@_W@__crt_stdio_output@@@__crt_stdio_output@@IEBA_NXZ 00000001800671d0 f i libucrtd:output.obj
 0001:000661e0       ?validate_stream_is_ansi_if_required@?$__acrt_stdio_char_traits@D@@SA_NQEAU_iobuf@@@Z 00000001800671e0 f i libucrtd:output.obj
 0001:00066380       ?validate_stream_is_ansi_if_required@?$__acrt_stdio_char_traits@_W@@SA_NQEAU_iobuf@@@Z 0000000180067380 f i libucrtd:output.obj
 0001:00066390       ?wide_character_to_digit@__crt_strtox@@YAH_W@Z 0000000180067390 f i libucrtd:output.obj
 0001:00066700       ?wide_null_string@?$output_processor@DV?$stream_output_adapter@D@__crt_stdio_output@@V?$format_validation_base@DV?$stream_output_adapter@D@__crt_stdio_output@@@2@@__crt_stdio_output@@CAPEA_WXZ 0000000180067700 f i libucrtd:output.obj
 0001:00066710       ?wide_null_string@?$output_processor@DV?$stream_output_adapter@D@__crt_stdio_output@@V?$positional_parameter_base@DV?$stream_output_adapter@D@__crt_stdio_output@@@2@@__crt_stdio_output@@CAPEA_WXZ 0000000180067710 f i libucrtd:output.obj
 0001:00066720       ?wide_null_string@?$output_processor@DV?$stream_output_adapter@D@__crt_stdio_output@@V?$standard_base@DV?$stream_output_adapter@D@__crt_stdio_output@@@2@@__crt_stdio_output@@CAPEA_WXZ 0000000180067720 f i libucrtd:output.obj
 0001:00066730       ?wide_null_string@?$output_processor@DV?$string_output_adapter@D@__crt_stdio_output@@V?$format_validation_base@DV?$string_output_adapter@D@__crt_stdio_output@@@2@@__crt_stdio_output@@CAPEA_WXZ 0000000180067730 f i libucrtd:output.obj
 0001:00066740       ?wide_null_string@?$output_processor@DV?$string_output_adapter@D@__crt_stdio_output@@V?$positional_parameter_base@DV?$string_output_adapter@D@__crt_stdio_output@@@2@@__crt_stdio_output@@CAPEA_WXZ 0000000180067740 f i libucrtd:output.obj
 0001:00066750       ?wide_null_string@?$output_processor@DV?$string_output_adapter@D@__crt_stdio_output@@V?$standard_base@DV?$string_output_adapter@D@__crt_stdio_output@@@2@@__crt_stdio_output@@CAPEA_WXZ 0000000180067750 f i libucrtd:output.obj
 0001:00066760       ?wide_null_string@?$output_processor@_WV?$stream_output_adapter@_W@__crt_stdio_output@@V?$format_validation_base@_WV?$stream_output_adapter@_W@__crt_stdio_output@@@2@@__crt_stdio_output@@CAPEA_WXZ 0000000180067760 f i libucrtd:output.obj
 0001:00066770       ?wide_null_string@?$output_processor@_WV?$stream_output_adapter@_W@__crt_stdio_output@@V?$positional_parameter_base@_WV?$stream_output_adapter@_W@__crt_stdio_output@@@2@@__crt_stdio_output@@CAPEA_WXZ 0000000180067770 f i libucrtd:output.obj
 0001:00066780       ?wide_null_string@?$output_processor@_WV?$stream_output_adapter@_W@__crt_stdio_output@@V?$standard_base@_WV?$stream_output_adapter@_W@__crt_stdio_output@@@2@@__crt_stdio_output@@CAPEA_WXZ 0000000180067780 f i libucrtd:output.obj
 0001:00066790       ?wide_null_string@?$output_processor@_WV?$string_output_adapter@_W@__crt_stdio_output@@V?$format_validation_base@_WV?$string_output_adapter@_W@__crt_stdio_output@@@2@@__crt_stdio_output@@CAPEA_WXZ 0000000180067790 f i libucrtd:output.obj
 0001:000667a0       ?wide_null_string@?$output_processor@_WV?$string_output_adapter@_W@__crt_stdio_output@@V?$positional_parameter_base@_WV?$string_output_adapter@_W@__crt_stdio_output@@@2@@__crt_stdio_output@@CAPEA_WXZ 00000001800677a0 f i libucrtd:output.obj
 0001:000667b0       ?wide_null_string@?$output_processor@_WV?$string_output_adapter@_W@__crt_stdio_output@@V?$standard_base@_WV?$string_output_adapter@_W@__crt_stdio_output@@@2@@__crt_stdio_output@@CAPEA_WXZ 00000001800677b0 f i libucrtd:output.obj
 0001:000667c0       ?write_character@?$output_adapter_common@DV?$stream_output_adapter@D@__crt_stdio_output@@@__crt_stdio_output@@QEBAXDQEAHAEAV__crt_cached_ptd_host@@@Z 00000001800677c0 f i libucrtd:output.obj
 0001:00066820       ?write_character@?$output_adapter_common@_WV?$stream_output_adapter@_W@__crt_stdio_output@@@__crt_stdio_output@@QEBAX_WQEAHAEAV__crt_cached_ptd_host@@@Z 0000000180067820 f i libucrtd:output.obj
 0001:00066880       ?write_character@?$string_output_adapter@D@__crt_stdio_output@@QEBA_NDQEAHAEAV__crt_cached_ptd_host@@@Z 0000000180067880 f i libucrtd:output.obj
 0001:00066950       ?write_character@?$string_output_adapter@_W@__crt_stdio_output@@QEBA_N_WQEAHAEAV__crt_cached_ptd_host@@@Z 0000000180067950 f i libucrtd:output.obj
 0001:00066a20       ?write_character_without_count_update@?$stream_output_adapter@D@__crt_stdio_output@@QEBA_NDAEAV__crt_cached_ptd_host@@@Z 0000000180067a20 f i libucrtd:output.obj
 0001:00066ab0       ?write_character_without_count_update@?$stream_output_adapter@_W@__crt_stdio_output@@QEBA_N_WAEAV__crt_cached_ptd_host@@@Z 0000000180067ab0 f i libucrtd:output.obj
 0001:00066b40       ?write_stored_string_tchar@?$output_processor@DV?$stream_output_adapter@D@__crt_stdio_output@@V?$format_validation_base@DV?$stream_output_adapter@D@__crt_stdio_output@@@2@@__crt_stdio_output@@AEAA_ND@Z 0000000180067b40 f i libucrtd:output.obj
 0001:00066e30       ?write_stored_string_tchar@?$output_processor@DV?$stream_output_adapter@D@__crt_stdio_output@@V?$positional_parameter_base@DV?$stream_output_adapter@D@__crt_stdio_output@@@2@@__crt_stdio_output@@AEAA_ND@Z 0000000180067e30 f i libucrtd:output.obj
 0001:00067120       ?write_stored_string_tchar@?$output_processor@DV?$stream_output_adapter@D@__crt_stdio_output@@V?$standard_base@DV?$stream_output_adapter@D@__crt_stdio_output@@@2@@__crt_stdio_output@@AEAA_ND@Z 0000000180068120 f i libucrtd:output.obj
 0001:00067410       ?write_stored_string_tchar@?$output_processor@DV?$string_output_adapter@D@__crt_stdio_output@@V?$format_validation_base@DV?$string_output_adapter@D@__crt_stdio_output@@@2@@__crt_stdio_output@@AEAA_ND@Z 0000000180068410 f i libucrtd:output.obj
 0001:00067700       ?write_stored_string_tchar@?$output_processor@DV?$string_output_adapter@D@__crt_stdio_output@@V?$positional_parameter_base@DV?$string_output_adapter@D@__crt_stdio_output@@@2@@__crt_stdio_output@@AEAA_ND@Z 0000000180068700 f i libucrtd:output.obj
 0001:000679f0       ?write_stored_string_tchar@?$output_processor@DV?$string_output_adapter@D@__crt_stdio_output@@V?$standard_base@DV?$string_output_adapter@D@__crt_stdio_output@@@2@@__crt_stdio_output@@AEAA_ND@Z 00000001800689f0 f i libucrtd:output.obj
 0001:00067ce0       ?write_stored_string_tchar@?$output_processor@_WV?$stream_output_adapter@_W@__crt_stdio_output@@V?$format_validation_base@_WV?$stream_output_adapter@_W@__crt_stdio_output@@@2@@__crt_stdio_output@@AEAA_N_W@Z 0000000180068ce0 f i libucrtd:output.obj
 0001:00068000       ?write_stored_string_tchar@?$output_processor@_WV?$stream_output_adapter@_W@__crt_stdio_output@@V?$positional_parameter_base@_WV?$stream_output_adapter@_W@__crt_stdio_output@@@2@@__crt_stdio_output@@AEAA_N_W@Z 0000000180069000 f i libucrtd:output.obj
 0001:00068320       ?write_stored_string_tchar@?$output_processor@_WV?$stream_output_adapter@_W@__crt_stdio_output@@V?$standard_base@_WV?$stream_output_adapter@_W@__crt_stdio_output@@@2@@__crt_stdio_output@@AEAA_N_W@Z 0000000180069320 f i libucrtd:output.obj
 0001:00068640       ?write_stored_string_tchar@?$output_processor@_WV?$string_output_adapter@_W@__crt_stdio_output@@V?$format_validation_base@_WV?$string_output_adapter@_W@__crt_stdio_output@@@2@@__crt_stdio_output@@AEAA_N_W@Z 0000000180069640 f i libucrtd:output.obj
 0001:00068960       ?write_stored_string_tchar@?$output_processor@_WV?$string_output_adapter@_W@__crt_stdio_output@@V?$positional_parameter_base@_WV?$string_output_adapter@_W@__crt_stdio_output@@@2@@__crt_stdio_output@@AEAA_N_W@Z 0000000180069960 f i libucrtd:output.obj
 0001:00068c80       ?write_stored_string_tchar@?$output_processor@_WV?$string_output_adapter@_W@__crt_stdio_output@@V?$standard_base@_WV?$string_output_adapter@_W@__crt_stdio_output@@@2@@__crt_stdio_output@@AEAA_N_W@Z 0000000180069c80 f i libucrtd:output.obj
 0001:00068fa0       ?write_string@?$stream_output_adapter@D@__crt_stdio_output@@QEBAXQEBDHQEAHAEAV__crt_cached_ptd_host@@@Z 0000000180069fa0 f i libucrtd:output.obj
 0001:00069020       ?write_string@?$stream_output_adapter@_W@__crt_stdio_output@@QEBAXQEB_WHQEAHAEAV__crt_cached_ptd_host@@@Z 000000018006a020 f i libucrtd:output.obj
 0001:000690a0       ?write_string@?$string_output_adapter@D@__crt_stdio_output@@QEBAXQEBDHQEAHAEAV__crt_cached_ptd_host@@@Z 000000018006a0a0 f i libucrtd:output.obj
 0001:00069210       ?write_string@?$string_output_adapter@_W@__crt_stdio_output@@QEBAXQEB_WHQEAHAEAV__crt_cached_ptd_host@@@Z 000000018006a210 f i libucrtd:output.obj
 0001:00069380       ?write_string_impl@?$output_adapter_common@DV?$stream_output_adapter@D@__crt_stdio_output@@@__crt_stdio_output@@IEBAXQEBDHQEAHAEAV__crt_cached_ptd_host@@@Z 000000018006a380 f i libucrtd:output.obj
 0001:000694a0       ?write_string_impl@?$output_adapter_common@_WV?$stream_output_adapter@_W@__crt_stdio_output@@@__crt_stdio_output@@IEBAXQEB_WHQEAHAEAV__crt_cached_ptd_host@@@Z 000000018006a4a0 f i libucrtd:output.obj
 0001:000695c0       __acrt_isleadbyte_l_noupdate 000000018006a5c0 f i libucrtd:output.obj
 0001:000695f0       __acrt_locale_get_ctype_array_value 000000018006a5f0 f i libucrtd:output.obj
 0001:00069630       __ascii_iswalpha           000000018006a630 f i libucrtd:output.obj
 0001:00069670       __ascii_toupper            000000018006a670 f i libucrtd:output.obj
 0001:00069690       __ascii_towupper           000000018006a690 f i libucrtd:output.obj
 0001:000696b0       __stdio_common_vfprintf    000000018006a6b0 f   libucrtd:output.obj
 0001:00069730       __stdio_common_vfprintf_p  000000018006a730 f   libucrtd:output.obj
 0001:000697b0       __stdio_common_vfprintf_s  000000018006a7b0 f   libucrtd:output.obj
 0001:00069830       __stdio_common_vfwprintf   000000018006a830 f   libucrtd:output.obj
 0001:000698b0       __stdio_common_vfwprintf_p 000000018006a8b0 f   libucrtd:output.obj
 0001:00069930       __stdio_common_vfwprintf_s 000000018006a930 f   libucrtd:output.obj
 0001:000699b0       __stdio_common_vsnprintf_s 000000018006a9b0 f   libucrtd:output.obj
 0001:00069a40       __stdio_common_vsnwprintf_s 000000018006aa40 f   libucrtd:output.obj
 0001:00069ad0       __stdio_common_vsprintf    000000018006aad0 f   libucrtd:output.obj
 0001:00069b60       __stdio_common_vsprintf_p  000000018006ab60 f   libucrtd:output.obj
 0001:00069bf0       __stdio_common_vsprintf_s  000000018006abf0 f   libucrtd:output.obj
 0001:00069c80       __stdio_common_vswprintf   000000018006ac80 f   libucrtd:output.obj
 0001:00069d10       __stdio_common_vswprintf_p 000000018006ad10 f   libucrtd:output.obj
 0001:00069da0       __stdio_common_vswprintf_s 000000018006ada0 f   libucrtd:output.obj
 0001:00069e30       _ctype_fast_check_internal 000000018006ae30 f i libucrtd:output.obj
 0001:00069e60       _isdigit_fast_internal     000000018006ae60 f i libucrtd:output.obj
 0001:00069e90       _tolower_fast_internal     000000018006ae90 f i libucrtd:output.obj
 0001:00069ec0       ??$?RU?$__crt_report_hook_node@D@@@__crt_internal_free_policy@@QEBAXQEBU?$__crt_report_hook_node@D@@@Z 000000018006aec0 f i libucrtd:dbgrpt.obj
 0001:00069ef0       ??$?RU?$__crt_report_hook_node@_W@@@__crt_internal_free_policy@@QEBAXQEBU?$__crt_report_hook_node@_W@@@Z 000000018006aef0 f i libucrtd:dbgrpt.obj
 0001:0006b170       ??$get_module_file_name@AEAPEAUHINSTANCE__@@AEAY0BAF@DK@?$__crt_char_traits@D@@SAKAEAPEAUHINSTANCE__@@AEAY0BAF@D$$QEAK@Z 000000018006c170 f i libucrtd:dbgrpt.obj
 0001:0006b1b0       ??$get_module_file_name@AEAPEAUHINSTANCE__@@AEAY0BAF@_WK@?$__crt_char_traits@_W@@SAKAEAPEAUHINSTANCE__@@AEAY0BAF@_W$$QEAK@Z 000000018006c1b0 f i libucrtd:dbgrpt.obj
 0001:0006b1f0       ??$tcscpy_s@AEAY0BAF@D_KPEBD@?$__crt_char_traits@D@@SAHAEAY0BAF@D$$QEA_K$$QEAPEBD@Z 000000018006c1f0 f i libucrtd:dbgrpt.obj
 0001:0006b230       ??$tcscpy_s@AEAY0BAF@_W_KPEB_W@?$__crt_char_traits@_W@@SAHAEAY0BAF@_W$$QEA_K$$QEAPEB_W@Z 000000018006c230 f i libucrtd:dbgrpt.obj
 0001:0006b270       ??$tcslen@AEAY0BAF@D@?$__crt_char_traits@D@@SA_KAEAY0BAF@D@Z 000000018006c270 f i libucrtd:dbgrpt.obj
 0001:0006b290       ??$tcslen@AEAY0BAF@_W@?$__crt_char_traits@_W@@SA_KAEAY0BAF@_W@Z 000000018006c290 f i libucrtd:dbgrpt.obj
 0001:0006b2b0       ??$tcslen@AEBQEBD@?$__crt_char_traits@D@@SA_KAEBQEBD@Z 000000018006c2b0 f i libucrtd:dbgrpt.obj
 0001:0006b2d0       ??$tcslen@AEBQEB_W@?$__crt_char_traits@_W@@SA_KAEBQEB_W@Z 000000018006c2d0 f i libucrtd:dbgrpt.obj
 0001:0006b3d0       ??0?$__crt_unique_heap_ptr@U?$__crt_report_hook_node@D@@U__crt_internal_free_policy@@@@QEAA@QEAU?$__crt_report_hook_node@D@@@Z 000000018006c3d0 f i libucrtd:dbgrpt.obj
 0001:0006b3f0       ??0?$__crt_unique_heap_ptr@U?$__crt_report_hook_node@_W@@U__crt_internal_free_policy@@@@QEAA@QEAU?$__crt_report_hook_node@_W@@@Z 000000018006c3f0 f i libucrtd:dbgrpt.obj
 0001:0006b410       ??1?$__crt_unique_heap_ptr@U?$__crt_report_hook_node@D@@U__crt_internal_free_policy@@@@QEAA@XZ 000000018006c410 f i libucrtd:dbgrpt.obj
 0001:0006b430       ??1?$__crt_unique_heap_ptr@U?$__crt_report_hook_node@_W@@U__crt_internal_free_policy@@@@QEAA@XZ 000000018006c430 f i libucrtd:dbgrpt.obj
 0001:0006b450       ??B?$__crt_unique_heap_ptr@U?$__crt_report_hook_node@D@@U__crt_internal_free_policy@@@@QEBA_NXZ 000000018006c450 f i libucrtd:dbgrpt.obj
 0001:0006b470       ??B?$__crt_unique_heap_ptr@U?$__crt_report_hook_node@_W@@U__crt_internal_free_policy@@@@QEBA_NXZ 000000018006c470 f i libucrtd:dbgrpt.obj
 0001:0006bb90       ?detach@?$__crt_unique_heap_ptr@U?$__crt_report_hook_node@D@@U__crt_internal_free_policy@@@@QEAAPEAU?$__crt_report_hook_node@D@@XZ 000000018006cb90 f i libucrtd:dbgrpt.obj
 0001:0006bbc0       ?detach@?$__crt_unique_heap_ptr@U?$__crt_report_hook_node@_W@@U__crt_internal_free_policy@@@@QEAAPEAU?$__crt_report_hook_node@_W@@XZ 000000018006cbc0 f i libucrtd:dbgrpt.obj
 0001:0006bbf0       ?get@?$__crt_unique_heap_ptr@U?$__crt_report_hook_node@D@@U__crt_internal_free_policy@@@@QEBAPEAU?$__crt_report_hook_node@D@@XZ 000000018006cbf0 f i libucrtd:dbgrpt.obj
 0001:0006bc00       ?get@?$__crt_unique_heap_ptr@U?$__crt_report_hook_node@_W@@U__crt_internal_free_policy@@@@QEBAPEAU?$__crt_report_hook_node@_W@@XZ 000000018006cc00 f i libucrtd:dbgrpt.obj
 0001:0006bc70       ?is_valid@?$__crt_unique_heap_ptr@U?$__crt_report_hook_node@D@@U__crt_internal_free_policy@@@@QEBA_NXZ 000000018006cc70 f i libucrtd:dbgrpt.obj
 0001:0006bca0       ?is_valid@?$__crt_unique_heap_ptr@U?$__crt_report_hook_node@_W@@U__crt_internal_free_policy@@@@QEBA_NXZ 000000018006cca0 f i libucrtd:dbgrpt.obj
 0001:0006bcd0       ?release@?$__crt_unique_heap_ptr@U?$__crt_report_hook_node@D@@U__crt_internal_free_policy@@@@QEAAXXZ 000000018006ccd0 f i libucrtd:dbgrpt.obj
 0001:0006bd00       ?release@?$__crt_unique_heap_ptr@U?$__crt_report_hook_node@_W@@U__crt_internal_free_policy@@@@QEAAXXZ 000000018006cd00 f i libucrtd:dbgrpt.obj
 0001:0006bd30       _CrtDbgReport              000000018006cd30 f   libucrtd:dbgrpt.obj
 0001:0006bdb0       _CrtDbgReportW             000000018006cdb0 f   libucrtd:dbgrpt.obj
 0001:0006be30       _CrtSetReportHook2         000000018006ce30 f   libucrtd:dbgrpt.obj
 0001:0006be50       _CrtSetReportHookW2        000000018006ce50 f   libucrtd:dbgrpt.obj
 0001:0006be70       __acrt_MessageWindowA      000000018006ce70 f   libucrtd:dbgrpt.obj
 0001:0006bec0       __acrt_MessageWindowW      000000018006cec0 f   libucrtd:dbgrpt.obj
 0001:0006bf10       _snwprintf_s               000000018006cf10 f i libucrtd:dbgrpt.obj
 0001:0006bf90       _vsnwprintf_s_l            000000018006cf90 f i libucrtd:dbgrpt.obj
 0001:0006c010       ??$is_overflow_condition@_K@__crt_strtox@@YA_NI_K@Z 000000018006d010 f i libucrtd:atox.obj
 0001:0006c080       ??$make_c_string_character_source@D$$T@__crt_strtox@@YA?AV?$c_string_character_source@D@0@QEBD$$T@Z 000000018006d080 f i libucrtd:atox.obj
 0001:0006c0c0       ??$make_c_string_character_source@_W$$T@__crt_strtox@@YA?AV?$c_string_character_source@_W@0@QEB_W$$T@Z 000000018006d0c0 f i libucrtd:atox.obj
 0001:0006c100       ??$parse_integer@KV?$c_string_character_source@D@__crt_strtox@@$00@__crt_strtox@@YAKAEAV__crt_cached_ptd_host@@V?$c_string_character_source@D@0@H_N@Z 000000018006d100 f i libucrtd:atox.obj
 0001:0006c5c0       ??$parse_integer@KV?$c_string_character_source@_W@__crt_strtox@@$00@__crt_strtox@@YAKAEAV__crt_cached_ptd_host@@V?$c_string_character_source@_W@0@H_N@Z 000000018006d5c0 f i libucrtd:atox.obj
 0001:0006ca90       ??$parse_integer@_KV?$c_string_character_source@D@__crt_strtox@@$00@__crt_strtox@@YA_KAEAV__crt_cached_ptd_host@@V?$c_string_character_source@D@0@H_N@Z 000000018006da90 f i libucrtd:atox.obj
 0001:0006cfa0       ??$parse_integer@_KV?$c_string_character_source@_W@__crt_strtox@@$00@__crt_strtox@@YA_KAEAV__crt_cached_ptd_host@@V?$c_string_character_source@_W@0@H_N@Z 000000018006dfa0 f i libucrtd:atox.obj
 0001:0006d4c0       ??$parse_integer_from_string@JD$$T@__crt_strtox@@YAJQEBD$$THQEAU__crt_locale_pointers@@@Z 000000018006e4c0 f i libucrtd:atox.obj
 0001:0006d550       ??$parse_integer_from_string@J_W$$T@__crt_strtox@@YAJQEB_W$$THQEAU__crt_locale_pointers@@@Z 000000018006e550 f i libucrtd:atox.obj
 0001:0006d5e0       ??$parse_integer_from_string@_JD$$T@__crt_strtox@@YA_JQEBD$$THQEAU__crt_locale_pointers@@@Z 000000018006e5e0 f i libucrtd:atox.obj
 0001:0006d670       ??$parse_integer_from_string@_J_W$$T@__crt_strtox@@YA_JQEB_W$$THQEAU__crt_locale_pointers@@@Z 000000018006e670 f i libucrtd:atox.obj
 0001:0006d700       ?is_space@__crt_strtox@@YA_NDQEAU__crt_locale_pointers@@@Z 000000018006e700 f i libucrtd:atox.obj
 0001:0006d750       ?is_space@__crt_strtox@@YA_N_WPEAU__crt_locale_pointers@@@Z 000000018006e750 f i libucrtd:atox.obj
 0001:0006d790       ?maximum_signed_value@__crt_strtox@@YA_J_K@Z 000000018006e790 f i libucrtd:atox.obj
 0001:0006d7a0       ?minimum_signed_value@__crt_strtox@@YA_J_K@Z 000000018006e7a0 f i libucrtd:atox.obj
 0001:0006d7b0       _atoi64                    000000018006e7b0 f   libucrtd:atox.obj
 0001:0006d7e0       _atoi64_l                  000000018006e7e0 f   libucrtd:atox.obj
 0001:0006d810       _atoi_l                    000000018006e810 f   libucrtd:atox.obj
 0001:0006d840       _atol_l                    000000018006e840 f   libucrtd:atox.obj
 0001:0006d870       _atoll_l                   000000018006e870 f   libucrtd:atox.obj
 0001:0006d8a0       _wtoi                      000000018006e8a0 f   libucrtd:atox.obj
 0001:0006d8d0       _wtoi64                    000000018006e8d0 f   libucrtd:atox.obj
 0001:0006d900       _wtoi64_l                  000000018006e900 f   libucrtd:atox.obj
 0001:0006d930       _wtoi_l                    000000018006e930 f   libucrtd:atox.obj
 0001:0006d960       _wtol                      000000018006e960 f   libucrtd:atox.obj
 0001:0006d990       _wtol_l                    000000018006e990 f   libucrtd:atox.obj
 0001:0006d9c0       _wtoll                     000000018006e9c0 f   libucrtd:atox.obj
 0001:0006d9f0       _wtoll_l                   000000018006e9f0 f   libucrtd:atox.obj
 0001:0006da20       atoi                       000000018006ea20 f   libucrtd:atox.obj
 0001:0006da50       atol                       000000018006ea50 f   libucrtd:atox.obj
 0001:0006da80       atoll                      000000018006ea80 f   libucrtd:atox.obj
 0001:0006dab0       wcsncmp                    000000018006eab0 f   libucrtd:wcsncmp.obj
 0001:0006db40       free                       000000018006eb40 f   libucrtd:free.obj
 0001:0006db60       malloc                     000000018006eb60 f   libucrtd:malloc.obj
 0001:0006db90       ??$?RU__acrt_ptd@@@__crt_internal_free_policy@@QEBAXQEBU__acrt_ptd@@@Z 000000018006eb90 f i libucrtd:per_thread_data.obj
 0001:0006de40       ??$internal_get_ptd_head@P6APEAXK@Z@@YAPEAU__acrt_ptd@@P6APEAXK@Z@Z 000000018006ee40 f i libucrtd:per_thread_data.obj
 0001:0006de80       ??$try_get_ptd_head@P6APEAXK@Z@@YAPEAU__acrt_ptd@@P6APEAXK@Z@Z 000000018006ee80 f i libucrtd:per_thread_data.obj
 0001:0006e070       ??0?$__crt_unique_heap_ptr@U__acrt_ptd@@U__crt_internal_free_policy@@@@QEAA@QEAU__acrt_ptd@@@Z 000000018006f070 f i libucrtd:per_thread_data.obj
 0001:0006e090       ??1?$__crt_unique_heap_ptr@U__acrt_ptd@@U__crt_internal_free_policy@@@@QEAA@XZ 000000018006f090 f i libucrtd:per_thread_data.obj
 0001:0006e0b0       ??B?$__crt_unique_heap_ptr@U__acrt_ptd@@U__crt_internal_free_policy@@@@QEBA_NXZ 000000018006f0b0 f i libucrtd:per_thread_data.obj
 0001:0006e400       ?dangerous_get_state_array@?$dual_state_global@PEAU__crt_locale_data@@@__crt_state_management@@QEAAPEAPEAU__crt_locale_data@@XZ 000000018006f400 f i libucrtd:per_thread_data.obj
 0001:0006e5d0       ?detach@?$__crt_unique_heap_ptr@U__acrt_ptd@@U__crt_internal_free_policy@@@@QEAAPEAU__acrt_ptd@@XZ 000000018006f5d0 f i libucrtd:per_thread_data.obj
 0001:0006e600       ?get@?$__crt_unique_heap_ptr@U__acrt_ptd@@U__crt_internal_free_policy@@@@QEBAPEAU__acrt_ptd@@XZ 000000018006f600 f i libucrtd:per_thread_data.obj
 0001:0006e610       ?get_current_state_index2@__crt_state_management@@YA_KXZ 000000018006f610 f i libucrtd:per_thread_data.obj
 0001:0006e620       ?internal_get_ptd_head_slow@@YAPEAU__acrt_ptd@@XZ 000000018006f620 f   libucrtd:per_thread_data.obj
 0001:0006e850       ?is_valid@?$__crt_unique_heap_ptr@U__acrt_ptd@@U__crt_internal_free_policy@@@@QEBA_NXZ 000000018006f850 f i libucrtd:per_thread_data.obj
 0001:0006e880       ?release@?$__crt_unique_heap_ptr@U__acrt_ptd@@U__crt_internal_free_policy@@@@QEAAXXZ 000000018006f880 f i libucrtd:per_thread_data.obj
 0001:0006e970       ?value@?$dual_state_global@PEAU__crt_locale_data@@@__crt_state_management@@QEAAAEAPEAU__crt_locale_data@@XZ 000000018006f970 f i libucrtd:per_thread_data.obj
 0001:0006e990       __acrt_freeptd             000000018006f990 f   libucrtd:per_thread_data.obj
 0001:0006e9d0       __acrt_getptd              000000018006f9d0 f   libucrtd:per_thread_data.obj
 0001:0006ea00       __acrt_getptd_head         000000018006fa00 f   libucrtd:per_thread_data.obj
 0001:0006ea30       __acrt_getptd_noexit       000000018006fa30 f   libucrtd:per_thread_data.obj
 0001:0006ea70       __acrt_getptd_noexit_explicit 000000018006fa70 f   libucrtd:per_thread_data.obj
 0001:0006eaa0       __acrt_initialize_ptd      000000018006faa0 f   libucrtd:per_thread_data.obj
 0001:0006eaf0       __acrt_uninitialize_ptd    000000018006faf0 f   libucrtd:per_thread_data.obj
 0001:0006eb20       __threadhandle             000000018006fb20 f   libucrtd:per_thread_data.obj
 0001:0006eb30       __threadid                 000000018006fb30 f   libucrtd:per_thread_data.obj
 0001:0006eb40       __acrt_initialize_locks    000000018006fb40 f   libucrtd:locks.obj
 0001:0006ebb0       __acrt_lock                000000018006fbb0 f   libucrtd:locks.obj
 0001:0006ebe0       __acrt_uninitialize_locks  000000018006fbe0 f   libucrtd:locks.obj
 0001:0006ec40       __acrt_unlock              000000018006fc40 f   libucrtd:locks.obj
 0001:0006ec70       _lock_locales              000000018006fc70 f   libucrtd:locks.obj
 0001:0006ec90       _unlock_locales            000000018006fc90 f   libucrtd:locks.obj
 0001:0006ecb0       __acrt_app_verifier_enabled 000000018006fcb0 f   libucrtd:peb_access.obj
 0001:0006ecf0       __acrt_is_secure_process   000000018006fcf0 f   libucrtd:peb_access.obj
 0001:0006f0e0       __acrt_get_begin_thread_init_policy 00000001800700e0 f   libucrtd:win_policies.obj
 0001:0006f0f0       __acrt_get_developer_information_policy 00000001800700f0 f   libucrtd:win_policies.obj
 0001:0006f110       __acrt_get_process_end_policy 0000000180070110 f   libucrtd:win_policies.obj
 0001:0006f120       __acrt_get_windowing_model_policy 0000000180070120 f   libucrtd:win_policies.obj
 0001:0006f2c0       ?get_doserrno@__crt_cached_ptd_host@@QEAA@XZ 00000001800702c0 f i libucrtd:errno.obj
 0001:0006f2d0       ?set@?$cached@K@__crt_cached_ptd_host@@QEAAKK@Z 00000001800702d0 f i libucrtd:errno.obj
 0001:0006f300       __acrt_errno_from_os_error 0000000180070300 f   libucrtd:errno.obj
 0001:0006f3d0       __acrt_errno_map_os_error  00000001800703d0 f   libucrtd:errno.obj
 0001:0006f400       __acrt_errno_map_os_error_ptd 0000000180070400 f   libucrtd:errno.obj
 0001:0006f460       __doserrno                 0000000180070460 f   libucrtd:errno.obj
 0001:0006f490       _errno                     0000000180070490 f   libucrtd:errno.obj
 0001:0006f4c0       _get_doserrno              00000001800704c0 f   libucrtd:errno.obj
 0001:0006f580       _get_errno                 0000000180070580 f   libucrtd:errno.obj
 0001:0006f640       _set_doserrno              0000000180070640 f   libucrtd:errno.obj
 0001:0006f680       _set_errno                 0000000180070680 f   libucrtd:errno.obj
 0001:0006f720       ??$__acrt_convert_wcs_mbs_cp@D_WV<lambda_7c9dea7b4ca7285d2cdb541a38da6275>@@U__crt_win32_buffer_internal_dynamic_resizing@@@@YAHQEBDAEAV?$__crt_win32_buffer@_WU__crt_win32_buffer_internal_dynamic_resizing@@@@AEBV<lambda_7c9dea7b4ca7285d2cdb541a38da6275>@@I@Z 0000000180070720 f i libucrtd:argv_wildcards.obj
 0001:0006f8d0       ??$__acrt_convert_wcs_mbs_cp@_WDV<lambda_d8593a27d1aa8c02be35c86a17d324c4>@@U__crt_win32_buffer_internal_dynamic_resizing@@@@YAHQEB_WAEAV?$__crt_win32_buffer@DU__crt_win32_buffer_internal_dynamic_resizing@@@@AEBV<lambda_d8593a27d1aa8c02be35c86a17d324c4>@@I@Z 00000001800708d0 f i libucrtd:argv_wildcards.obj
 0001:0006fa80       ??$__acrt_mbs_to_wcs_cp@U__crt_win32_buffer_internal_dynamic_resizing@@@@YAHQEBDAEAV?$__crt_win32_buffer@_WU__crt_win32_buffer_internal_dynamic_resizing@@@@I@Z 0000000180070a80 f i libucrtd:argv_wildcards.obj
 0001:0006fad0       ??$__acrt_wcs_to_mbs_cp@U__crt_win32_buffer_internal_dynamic_resizing@@@@YAHQEB_WAEAV?$__crt_win32_buffer@DU__crt_win32_buffer_internal_dynamic_resizing@@@@I@Z 0000000180070ad0 f i libucrtd:argv_wildcards.obj
 0001:00070f70       ??$tcsncpy_s@AEAPEAD_KAEAPEADAEB_K@?$__crt_char_traits@D@@SAHAEAPEAD$$QEA_K0AEB_K@Z 0000000180071f70 f i libucrtd:argv_wildcards.obj
 0001:00070fc0       ??$tcsncpy_s@AEAPEA_W_KAEAPEA_WAEB_K@?$__crt_char_traits@_W@@SAHAEAPEA_W$$QEA_K0AEB_K@Z 0000000180071fc0 f i libucrtd:argv_wildcards.obj
 0001:00071010       ??$tcsncpy_s@PEADAEB_KAEBQEBDAEB_K@?$__crt_char_traits@D@@SAH$$QEAPEADAEB_KAEBQEBD1@Z 0000000180072010 f i libucrtd:argv_wildcards.obj
 0001:00071060       ??$tcsncpy_s@PEAD_KAEBQEBDAEB_K@?$__crt_char_traits@D@@SAH$$QEAPEAD$$QEA_KAEBQEBDAEB_K@Z 0000000180072060 f i libucrtd:argv_wildcards.obj
 0001:000710b0       ??$tcsncpy_s@PEA_WAEB_KAEBQEB_WAEB_K@?$__crt_char_traits@_W@@SAH$$QEAPEA_WAEB_KAEBQEB_W1@Z 00000001800720b0 f i libucrtd:argv_wildcards.obj
 0001:00071100       ??$tcsncpy_s@PEA_W_KAEBQEB_WAEB_K@?$__crt_char_traits@_W@@SAH$$QEAPEA_W$$QEA_KAEBQEB_WAEB_K@Z 0000000180072100 f i libucrtd:argv_wildcards.obj
 0001:00071150       ??$tcspbrk@AEAPEADAEAY02$$CBD@?$__crt_char_traits@D@@SAPEADAEAPEADAEAY02$$CBD@Z 0000000180072150 f i libucrtd:argv_wildcards.obj
 0001:00071180       ??$tcspbrk@AEAPEA_WAEAY02$$CB_W@?$__crt_char_traits@_W@@SAPEA_WAEAPEA_WAEAY02$$CB_W@Z 0000000180072180 f i libucrtd:argv_wildcards.obj
 0001:000711b0       ??0?$__crt_unique_handle_t@U__crt_findfile_traits@@@@QEAA@QEAX@Z 00000001800721b0 f i libucrtd:argv_wildcards.obj
 0001:000711d0       ??0?$__crt_win32_buffer@DU__crt_win32_buffer_internal_dynamic_resizing@@@@QEAA@XZ 00000001800721d0 f i libucrtd:argv_wildcards.obj
 0001:00071230       ??0?$__crt_win32_buffer@_WU__crt_win32_buffer_internal_dynamic_resizing@@@@QEAA@XZ 0000000180072230 f i libucrtd:argv_wildcards.obj
 0001:00071310       ??1?$__crt_unique_handle_t@U__crt_findfile_traits@@@@QEAA@XZ 0000000180072310 f i libucrtd:argv_wildcards.obj
 0001:00071330       ??1?$__crt_win32_buffer@DU__crt_win32_buffer_internal_dynamic_resizing@@@@QEAA@XZ 0000000180072330 f i libucrtd:argv_wildcards.obj
 0001:00071360       ??1?$__crt_win32_buffer@_WU__crt_win32_buffer_internal_dynamic_resizing@@@@QEAA@XZ 0000000180072360 f i libucrtd:argv_wildcards.obj
 0001:00071490       ??R<lambda_7c9dea7b4ca7285d2cdb541a38da6275>@@QEBA@IQEBDQEA_W_K@Z 0000000180072490 f i libucrtd:argv_wildcards.obj
 0001:00071600       ??R<lambda_d8593a27d1aa8c02be35c86a17d324c4>@@QEBA@IQEB_WQEAD_K@Z 0000000180072600 f i libucrtd:argv_wildcards.obj
 0001:00071660       ?__acrt_get_utf8_acp_compatibility_codepage@@YAIXZ 0000000180072660 f i libucrtd:argv_wildcards.obj
 0001:00071700       ?_deallocate@?$__crt_win32_buffer@DU__crt_win32_buffer_internal_dynamic_resizing@@@@AEAAXXZ 0000000180072700 f i libucrtd:argv_wildcards.obj
 0001:00071750       ?_deallocate@?$__crt_win32_buffer@_WU__crt_win32_buffer_internal_dynamic_resizing@@@@AEAAXXZ 0000000180072750 f i libucrtd:argv_wildcards.obj
 0001:000717a0       ?allocate@?$__crt_win32_buffer@DU__crt_win32_buffer_internal_dynamic_resizing@@@@QEAAH_K@Z 00000001800727a0 f i libucrtd:argv_wildcards.obj
 0001:00071820       ?allocate@?$__crt_win32_buffer@_WU__crt_win32_buffer_internal_dynamic_resizing@@@@QEAAH_K@Z 0000000180072820 f i libucrtd:argv_wildcards.obj
 0001:000718b0       ?allocate@__crt_win32_buffer_internal_dynamic_resizing@@SAHQEAPEAX_KAEBV__crt_win32_buffer_empty_debug_info@@@Z 00000001800728b0 f i libucrtd:argv_wildcards.obj
 0001:00071a10       ?capacity@?$__crt_win32_buffer@DU__crt_win32_buffer_internal_dynamic_resizing@@@@QEBA_KXZ 0000000180072a10 f i libucrtd:argv_wildcards.obj
 0001:00071a20       ?capacity@?$__crt_win32_buffer@_WU__crt_win32_buffer_internal_dynamic_resizing@@@@QEBA_KXZ 0000000180072a20 f i libucrtd:argv_wildcards.obj
 0001:00071a30       ?close@?$__crt_unique_handle_t@U__crt_findfile_traits@@@@QEAAXXZ 0000000180072a30 f i libucrtd:argv_wildcards.obj
 0001:00071a70       ?close@__crt_findfile_traits@@SA_NPEAX@Z 0000000180072a70 f i libucrtd:argv_wildcards.obj
 0001:00071ab0       ?data@?$__crt_win32_buffer@DU__crt_win32_buffer_internal_dynamic_resizing@@@@QEAAPEADXZ 0000000180072ab0 f i libucrtd:argv_wildcards.obj
 0001:00071ac0       ?data@?$__crt_win32_buffer@_WU__crt_win32_buffer_internal_dynamic_resizing@@@@QEAAPEA_WXZ 0000000180072ac0 f i libucrtd:argv_wildcards.obj
 0001:00071ad0       ?deallocate@__crt_win32_buffer_internal_dynamic_resizing@@SAXQEAXAEBV__crt_win32_buffer_empty_debug_info@@@Z 0000000180072ad0 f i libucrtd:argv_wildcards.obj
 0001:00071b00       ?debug_info@?$__crt_win32_buffer@DU__crt_win32_buffer_internal_dynamic_resizing@@@@QEBAAEBV__crt_win32_buffer_empty_debug_info@@XZ 0000000180072b00 f i libucrtd:argv_wildcards.obj
 0001:00071b10       ?debug_info@?$__crt_win32_buffer@_WU__crt_win32_buffer_internal_dynamic_resizing@@@@QEBAAEBV__crt_win32_buffer_empty_debug_info@@XZ 0000000180072b10 f i libucrtd:argv_wildcards.obj
 0001:00071f00       ?get@?$__crt_unique_handle_t@U__crt_findfile_traits@@@@QEBAPEAXXZ 0000000180072f00 f i libucrtd:argv_wildcards.obj
 0001:00071f70       ?get_invalid_value@__crt_findfile_traits@@SAPEAXXZ 0000000180072f70 f i libucrtd:argv_wildcards.obj
 0001:00072030       ?set_to_nullptr@?$__crt_win32_buffer@DU__crt_win32_buffer_internal_dynamic_resizing@@@@QEAAXXZ 0000000180073030 f i libucrtd:argv_wildcards.obj
 0001:00072070       ?set_to_nullptr@?$__crt_win32_buffer@_WU__crt_win32_buffer_internal_dynamic_resizing@@@@QEAAXXZ 0000000180073070 f i libucrtd:argv_wildcards.obj
 0001:000720b0       ?size@?$__crt_win32_buffer@DU__crt_win32_buffer_internal_dynamic_resizing@@@@QEAAX_K@Z 00000001800730b0 f i libucrtd:argv_wildcards.obj
 0001:000720d0       ?size@?$__crt_win32_buffer@_WU__crt_win32_buffer_internal_dynamic_resizing@@@@QEAAX_K@Z 00000001800730d0 f i libucrtd:argv_wildcards.obj
 0001:00072130       ?strpbrk@@YAPEADQEADQEBD@Z 0000000180073130 f i libucrtd:argv_wildcards.obj
 0001:00072160       ?wcspbrk@@YAPEA_WPEA_WPEB_W@Z 0000000180073160 f i libucrtd:argv_wildcards.obj
 0001:00072190       __acrt_expand_narrow_argv_wildcards 0000000180073190 f   libucrtd:argv_wildcards.obj
 0001:000721c0       __acrt_expand_wide_argv_wildcards 00000001800731c0 f   libucrtd:argv_wildcards.obj
 0001:000721f0       ??$__acrt_convert_wcs_mbs_cp@_WDV<lambda_f788ae46380686e8b737efdd8c720d07>@@U__crt_win32_buffer_no_resizing@@@@YAHQEB_WAEAV?$__crt_win32_buffer@DU__crt_win32_buffer_no_resizing@@@@AEBV<lambda_f788ae46380686e8b737efdd8c720d07>@@I@Z 00000001800731f0 f i libucrtd:getmodulefilenamea.obj
 0001:000723a0       ??$__acrt_wcs_to_mbs_cp@U__crt_win32_buffer_no_resizing@@@@YAHQEB_WAEAV?$__crt_win32_buffer@DU__crt_win32_buffer_no_resizing@@@@I@Z 00000001800733a0 f i libucrtd:getmodulefilenamea.obj
 0001:000723f0       ??0?$__crt_win32_buffer@DU__crt_win32_buffer_no_resizing@@@@QEAA@QEAD_K@Z 00000001800733f0 f i libucrtd:getmodulefilenamea.obj
 0001:00072460       ??1?$__crt_win32_buffer@DU__crt_win32_buffer_no_resizing@@@@QEAA@XZ 0000000180073460 f i libucrtd:getmodulefilenamea.obj
 0001:00072490       ??R<lambda_f788ae46380686e8b737efdd8c720d07>@@QEBA@IQEB_WQEAD_K@Z 0000000180073490 f i libucrtd:getmodulefilenamea.obj
 0001:000724f0       ?_deallocate@?$__crt_win32_buffer@DU__crt_win32_buffer_no_resizing@@@@AEAAXXZ 00000001800734f0 f i libucrtd:getmodulefilenamea.obj
 0001:00072540       ?allocate@?$__crt_win32_buffer@DU__crt_win32_buffer_no_resizing@@@@QEAAH_K@Z 0000000180073540 f i libucrtd:getmodulefilenamea.obj
 0001:000725c0       ?allocate@__crt_win32_buffer_no_resizing@@SAHQEAPEAX_KAEBV__crt_win32_buffer_empty_debug_info@@@Z 00000001800735c0 f i libucrtd:getmodulefilenamea.obj
 0001:000725f0       ?capacity@?$__crt_win32_buffer@DU__crt_win32_buffer_no_resizing@@@@QEBA_KXZ 00000001800735f0 f i libucrtd:getmodulefilenamea.obj
 0001:00072600       ?data@?$__crt_win32_buffer@DU__crt_win32_buffer_no_resizing@@@@QEAAPEADXZ 0000000180073600 f i libucrtd:getmodulefilenamea.obj
 0001:00072610       ?deallocate@__crt_win32_buffer_no_resizing@@SAXQEAXAEBV__crt_win32_buffer_empty_debug_info@@@Z 0000000180073610 f i libucrtd:getmodulefilenamea.obj
 0001:00072620       ?debug_info@?$__crt_win32_buffer@DU__crt_win32_buffer_no_resizing@@@@QEBAAEBV__crt_win32_buffer_empty_debug_info@@XZ 0000000180073620 f i libucrtd:getmodulefilenamea.obj
 0001:00072630       ?set_to_nullptr@?$__crt_win32_buffer@DU__crt_win32_buffer_no_resizing@@@@QEAAXXZ 0000000180073630 f i libucrtd:getmodulefilenamea.obj
 0001:00072670       ?size@?$__crt_win32_buffer@DU__crt_win32_buffer_no_resizing@@@@QEAAX_K@Z 0000000180073670 f i libucrtd:getmodulefilenamea.obj
 0001:00072690       ?size@?$__crt_win32_buffer@DU__crt_win32_buffer_no_resizing@@@@QEBA_KXZ 0000000180073690 f i libucrtd:getmodulefilenamea.obj
 0001:000726a0       __acrt_GetModuleFileNameA  00000001800736a0 f   libucrtd:getmodulefilenamea.obj
 0001:00072780       ??$?RU__crt_multibyte_data@@@__crt_internal_free_policy@@QEBAXQEBU__crt_multibyte_data@@@Z 0000000180073780 f i libucrtd:mbctype.obj
 0001:00072850       ??$initialize_from_array@$$BY10BAA@E@?$dual_state_global@PEAE@__crt_state_management@@QEAAXAEAY10BAA@E@Z 0000000180073850 f i libucrtd:mbctype.obj
 0001:000728c0       ??$initialize_from_array@$$BY10BAB@E@?$dual_state_global@PEAE@__crt_state_management@@QEAAXAEAY10BAB@E@Z 00000001800738c0 f i libucrtd:mbctype.obj
 0001:000729a0       ??0?$__crt_unique_heap_ptr@U__crt_multibyte_data@@U__crt_internal_free_policy@@@@QEAA@QEAU__crt_multibyte_data@@@Z 00000001800739a0 f i libucrtd:mbctype.obj
 0001:000729c0       ??1?$__crt_unique_heap_ptr@U__crt_multibyte_data@@U__crt_internal_free_policy@@@@QEAA@XZ 00000001800739c0 f i libucrtd:mbctype.obj
 0001:000729e0       ??B?$__crt_unique_heap_ptr@U__crt_multibyte_data@@U__crt_internal_free_policy@@@@QEBA_NXZ 00000001800739e0 f i libucrtd:mbctype.obj
 0001:00072c10       ?dangerous_get_state_array@?$dual_state_global@PEAE@__crt_state_management@@QEAAPEAPEAEXZ 0000000180073c10 f i libucrtd:mbctype.obj
 0001:00072c20       ?dangerous_get_state_array@?$dual_state_global@PEAU__crt_multibyte_data@@@__crt_state_management@@QEAAPEAPEAU__crt_multibyte_data@@XZ 0000000180073c20 f i libucrtd:mbctype.obj
 0001:00072c30       ?detach@?$__crt_unique_heap_ptr@U__crt_multibyte_data@@U__crt_internal_free_policy@@@@QEAAPEAU__crt_multibyte_data@@XZ 0000000180073c30 f i libucrtd:mbctype.obj
 0001:00072c60       ?get@?$__crt_unique_heap_ptr@U__crt_multibyte_data@@U__crt_internal_free_policy@@@@QEBAPEAU__crt_multibyte_data@@XZ 0000000180073c60 f i libucrtd:mbctype.obj
 0001:00072d50       ?initialize@?$dual_state_global@PEAU__crt_multibyte_data@@@__crt_state_management@@QEAAXQEAU__crt_multibyte_data@@@Z 0000000180073d50 f i libucrtd:mbctype.obj
 0001:00072da0       ?is_valid@?$__crt_unique_heap_ptr@U__crt_multibyte_data@@U__crt_internal_free_policy@@@@QEBA_NXZ 0000000180073da0 f i libucrtd:mbctype.obj
 0001:00072dd0       ?release@?$__crt_unique_heap_ptr@U__crt_multibyte_data@@U__crt_internal_free_policy@@@@QEAAXXZ 0000000180073dd0 f i libucrtd:mbctype.obj
 0001:000736c0       ?value@?$dual_state_global@PEAE@__crt_state_management@@QEAAAEAPEAEXZ 00000001800746c0 f i libucrtd:mbctype.obj
 0001:000736e0       ?value@?$dual_state_global@PEAU__crt_multibyte_data@@@__crt_state_management@@QEAAAEAPEAU__crt_multibyte_data@@XZ 00000001800746e0 f i libucrtd:mbctype.obj
 0001:00073700       __acrt_initialize_multibyte 0000000180074700 f   libucrtd:mbctype.obj
 0001:000737d0       __acrt_should_sync_with_global_locale 00000001800747d0 f i libucrtd:mbctype.obj
 0001:00073810       __acrt_update_thread_multibyte_data 0000000180074810 f   libucrtd:mbctype.obj
 0001:00073850       __p__mbcasemap             0000000180074850 f   libucrtd:mbctype.obj
 0001:00073870       __p__mbctype               0000000180074870 f   libucrtd:mbctype.obj
 0001:00073890       _getmbcp                   0000000180074890 f   libucrtd:mbctype.obj
 0001:00073910       _setmbcp                   0000000180074910 f   libucrtd:mbctype.obj
 0001:00073950       _setmbcp_nolock            0000000180074950 f   libucrtd:mbctype.obj
 0001:00074080       _ismbbalnum                0000000180075080 f   libucrtd:ismbbyte.obj
 0001:000740b0       _ismbbalnum_l              00000001800750b0 f   libucrtd:ismbbyte.obj
 0001:000740e0       _ismbbalpha                00000001800750e0 f   libucrtd:ismbbyte.obj
 0001:00074110       _ismbbalpha_l              0000000180075110 f   libucrtd:ismbbyte.obj
 0001:00074140       _ismbbblank                0000000180075140 f   libucrtd:ismbbyte.obj
 0001:00074180       _ismbbblank_l              0000000180075180 f   libucrtd:ismbbyte.obj
 0001:000741d0       _ismbbgraph                00000001800751d0 f   libucrtd:ismbbyte.obj
 0001:00074200       _ismbbgraph_l              0000000180075200 f   libucrtd:ismbbyte.obj
 0001:00074230       _ismbbkalnum               0000000180075230 f   libucrtd:ismbbyte.obj
 0001:00074260       _ismbbkalnum_l             0000000180075260 f   libucrtd:ismbbyte.obj
 0001:00074290       _ismbbkana                 0000000180075290 f   libucrtd:ismbbyte.obj
 0001:000742b0       _ismbbkana_l               00000001800752b0 f   libucrtd:ismbbyte.obj
 0001:00074340       _ismbbkprint               0000000180075340 f   libucrtd:ismbbyte.obj
 0001:00074370       _ismbbkprint_l             0000000180075370 f   libucrtd:ismbbyte.obj
 0001:000743a0       _ismbbkpunct               00000001800753a0 f   libucrtd:ismbbyte.obj
 0001:000743d0       _ismbbkpunct_l             00000001800753d0 f   libucrtd:ismbbyte.obj
 0001:00074400       _ismbblead                 0000000180075400 f   libucrtd:ismbbyte.obj
 0001:00074430       _ismbblead_l               0000000180075430 f   libucrtd:ismbbyte.obj
 0001:00074460       _ismbbprint                0000000180075460 f   libucrtd:ismbbyte.obj
 0001:00074490       _ismbbprint_l              0000000180075490 f   libucrtd:ismbbyte.obj
 0001:000744c0       _ismbbpunct                00000001800754c0 f   libucrtd:ismbbyte.obj
 0001:000744f0       _ismbbpunct_l              00000001800754f0 f   libucrtd:ismbbyte.obj
 0001:00074520       _ismbbtrail                0000000180075520 f   libucrtd:ismbbyte.obj
 0001:00074550       _ismbbtrail_l              0000000180075550 f   libucrtd:ismbbyte.obj
 0001:00074580       __acrt_initialize_command_line 0000000180075580 f   libucrtd:argv_data.obj
 0001:000745b0       __acrt_uninitialize_command_line 00000001800755b0 f   libucrtd:argv_data.obj
 0001:000745c0       __p___argc                 00000001800755c0 f   libucrtd:argv_data.obj
 0001:000745d0       __p___argv                 00000001800755d0 f   libucrtd:argv_data.obj
 0001:000745e0       __p___wargv                00000001800755e0 f   libucrtd:argv_data.obj
 0001:000745f0       __p__acmdln                00000001800755f0 f   libucrtd:argv_data.obj
 0001:00074600       __p__pgmptr                0000000180075600 f   libucrtd:argv_data.obj
 0001:00074610       __p__wcmdln                0000000180075610 f   libucrtd:argv_data.obj
 0001:00074620       __p__wpgmptr               0000000180075620 f   libucrtd:argv_data.obj
 0001:00074630       _get_pgmptr                0000000180075630 f   libucrtd:argv_data.obj
 0001:000747a0       _get_wpgmptr               00000001800757a0 f   libucrtd:argv_data.obj
 0001:00074e10       wcscpy_s                   0000000180075e10 f   libucrtd:wcscpy_s.obj
 0001:00076140       ??1?$__crt_simd_cleanup_guard@$00@@QEAA@XZ 0000000180077140 f i libucrtd:strnlen.obj
 0001:00076150       ??1?$__crt_simd_cleanup_guard@$0A@@@QEAA@XZ 0000000180077150 f i libucrtd:strnlen.obj
 0001:00076160       ?compare_equals@?$__crt_simd_traits@$00E@@SA?AT__m256i@@T2@0@Z 0000000180077160 f i libucrtd:strnlen.obj
 0001:000761a0       ?compare_equals@?$__crt_simd_traits@$00G@@SA?AT__m256i@@T2@0@Z 00000001800771a0 f i libucrtd:strnlen.obj
 0001:000761e0       ?compare_equals@?$__crt_simd_traits@$0A@E@@SA?AT__m128i@@T2@0@Z 00000001800771e0 f i libucrtd:strnlen.obj
 0001:00076210       ?compare_equals@?$__crt_simd_traits@$0A@G@@SA?AT__m128i@@T2@0@Z 0000000180077210 f i libucrtd:strnlen.obj
 0001:00076240       ?compute_byte_mask@?$__crt_simd_pack_traits@$00@@SAHT__m256i@@@Z 0000000180077240 f i libucrtd:strnlen.obj
 0001:00076260       ?compute_byte_mask@?$__crt_simd_pack_traits@$0A@@@SAHT__m128i@@@Z 0000000180077260 f i libucrtd:strnlen.obj
 0001:00076280       ?get_zero_pack@?$__crt_simd_pack_traits@$00@@SA?AT__m256i@@XZ 0000000180077280 f i libucrtd:strnlen.obj
 0001:000762b0       ?get_zero_pack@?$__crt_simd_pack_traits@$0A@@@SA?AT__m128i@@XZ 00000001800772b0 f i libucrtd:strnlen.obj
 0001:000762d0       strnlen                    00000001800772d0 f   libucrtd:strnlen.obj
 0001:00076300       wcslen                     0000000180077300 f   libucrtd:strnlen.obj
 0001:00076320       wcsnlen                    0000000180077320 f   libucrtd:strnlen.obj
 0001:00076460       __acrt_MultiByteToWideChar 0000000180077460 f   libucrtd:multibytetowidechar.obj
 0001:000765d0       __acrt_WideCharToMultiByte 00000001800775d0 f   libucrtd:widechartomultibyte.obj
 0001:00076870       __dcrt_get_narrow_environment_from_os 0000000180077870 f   libucrtd:get_environment_from_os.obj
 0001:00076aa0       __dcrt_get_wide_environment_from_os 0000000180077aa0 f   libucrtd:get_environment_from_os.obj
 0001:000782e0       ??$get_or_create_environment_nolock@$$V@?$__crt_char_traits@D@@SAPEAPEADXZ 00000001800792e0 f i libucrtd:setenv.obj
 0001:000782f0       ??$get_or_create_environment_nolock@$$V@?$__crt_char_traits@_W@@SAPEAPEA_WXZ 00000001800792f0 f i libucrtd:setenv.obj
 0001:00078300       ??$set_environment_variable@AEBQEADQEAD@?$__crt_char_traits@D@@SAHAEBQEAD$$QEBQEAD@Z 0000000180079300 f i libucrtd:setenv.obj
 0001:00078330       ??$set_environment_variable@AEBQEA_WQEA_W@?$__crt_char_traits@_W@@SAHAEBQEA_W$$QEBQEA_W@Z 0000000180079330 f i libucrtd:setenv.obj
 0001:00078360       ??$tcschr@AEBQEADD@?$__crt_char_traits@D@@SAPEADAEBQEAD$$QEAD@Z 0000000180079360 f i libucrtd:setenv.obj
 0001:000783a0       ??$tcschr@AEBQEA_WD@?$__crt_char_traits@_W@@SAPEA_WAEBQEA_W$$QEAD@Z 00000001800793a0 f i libucrtd:setenv.obj
 0001:000783e0       ??$tcscpy_s@AEAPEADAEB_KAEAPEAD@?$__crt_char_traits@D@@SAHAEAPEADAEB_K0@Z 00000001800793e0 f i libucrtd:setenv.obj
 0001:00078420       ??$tcscpy_s@AEAPEA_WAEB_KAEAPEA_W@?$__crt_char_traits@_W@@SAHAEAPEA_WAEB_K0@Z 0000000180079420 f i libucrtd:setenv.obj
 0001:00078460       ??$tcscpy_s@AEBQEADAEB_KAEBQEAD@?$__crt_char_traits@D@@SAHAEBQEADAEB_K0@Z 0000000180079460 f i libucrtd:setenv.obj
 0001:000784a0       ??$tcscpy_s@AEBQEA_WAEB_KAEBQEA_W@?$__crt_char_traits@_W@@SAHAEBQEA_WAEB_K0@Z 00000001800794a0 f i libucrtd:setenv.obj
 0001:000784e0       ??$tcslen@AEBQEAD@?$__crt_char_traits@D@@SA_KAEBQEAD@Z 00000001800794e0 f i libucrtd:setenv.obj
 0001:00078500       ??$tcslen@AEBQEA_W@?$__crt_char_traits@_W@@SA_KAEBQEA_W@Z 0000000180079500 f i libucrtd:setenv.obj
 0001:00078520       ??$tcsnicoll@AEBQEBDAEAPEADAEB_K@?$__crt_char_traits@D@@SAHAEBQEBDAEAPEADAEB_K@Z 0000000180079520 f i libucrtd:setenv.obj
 0001:00078560       ??$tcsnicoll@AEBQEB_WAEAPEA_WAEB_K@?$__crt_char_traits@_W@@SAHAEBQEB_WAEAPEA_WAEB_K@Z 0000000180079560 f i libucrtd:setenv.obj
 0001:000785a0       ??$tcsnlen@PEADH@?$__crt_char_traits@D@@SA_K$$QEAPEAD$$QEAH@Z 00000001800795a0 f i libucrtd:setenv.obj
 0001:000785d0       ??$tcsnlen@PEA_WH@?$__crt_char_traits@_W@@SA_K$$QEAPEA_W$$QEAH@Z 00000001800795d0 f i libucrtd:setenv.obj
 0001:000786a0       ?strchr@@YAPEADQEADH@Z     00000001800796a0 f i libucrtd:setenv.obj
 0001:000786c0       ?wcschr@@YAPEA_WPEA_W_W@Z  00000001800796c0 f i libucrtd:setenv.obj
 0001:000786f0       __dcrt_set_variable_in_narrow_environment_nolock 00000001800796f0 f   libucrtd:setenv.obj
 0001:00078710       __dcrt_set_variable_in_wide_environment_nolock 0000000180079710 f   libucrtd:setenv.obj
 0001:00078910       ?ReadPointerNoFence@@YAPEAXPEDSEAX@Z 0000000180079910 f i libucrtd:winapi_thunks.obj
 0001:000794e0       GetCurrentThreadEffectiveToken 000000018007a4e0 f i libucrtd:winapi_thunks.obj
 0001:000794f0       __acrt_AppPolicyGetProcessTerminationMethodInternal 000000018007a4f0 f   libucrtd:winapi_thunks.obj
 0001:00079550       __acrt_AppPolicyGetShowDeveloperDiagnosticInternal 000000018007a550 f   libucrtd:winapi_thunks.obj
 0001:000795b0       __acrt_AppPolicyGetThreadInitializationTypeInternal 000000018007a5b0 f   libucrtd:winapi_thunks.obj
 0001:00079610       __acrt_AppPolicyGetWindowingModelInternal 000000018007a610 f   libucrtd:winapi_thunks.obj
 0001:00079670       __acrt_AreFileApisANSI     000000018007a670 f   libucrtd:winapi_thunks.obj
 0001:000796b0       __acrt_CompareStringEx     000000018007a6b0 f   libucrtd:winapi_thunks.obj
 0001:000797c0       __acrt_EnumSystemLocalesEx 000000018007a7c0 f   libucrtd:winapi_thunks.obj
 0001:00079840       __acrt_FlsAlloc            000000018007a840 f   libucrtd:winapi_thunks.obj
 0001:00079860       __acrt_FlsFree             000000018007a860 f   libucrtd:winapi_thunks.obj
 0001:00079880       __acrt_FlsGetValue         000000018007a880 f   libucrtd:winapi_thunks.obj
 0001:000798a0       __acrt_FlsGetValue2        000000018007a8a0 f   libucrtd:winapi_thunks.obj
 0001:000798d0       __acrt_FlsSetValue         000000018007a8d0 f   libucrtd:winapi_thunks.obj
 0001:00079900       __acrt_GetDateFormatEx     000000018007a900 f   libucrtd:winapi_thunks.obj
 0001:000799d0       __acrt_GetEnabledXStateFeatures 000000018007a9d0 f   libucrtd:winapi_thunks.obj
 0001:00079a10       __acrt_GetFileInformationByName 000000018007aa10 f   libucrtd:winapi_thunks.obj
 0001:00079a80       __acrt_GetLocaleInfoEx     000000018007aa80 f   libucrtd:winapi_thunks.obj
 0001:00079b10       __acrt_GetSystemTimePreciseAsFileTime 000000018007ab10 f   libucrtd:winapi_thunks.obj
 0001:00079b60       __acrt_GetTempPath2W       000000018007ab60 f   libucrtd:winapi_thunks.obj
 0001:00079bc0       __acrt_GetTimeFormatEx     000000018007abc0 f   libucrtd:winapi_thunks.obj
 0001:00079c80       __acrt_GetUserDefaultLocaleName 000000018007ac80 f   libucrtd:winapi_thunks.obj
 0001:00079cf0       __acrt_GetXStateFeaturesMask 000000018007acf0 f   libucrtd:winapi_thunks.obj
 0001:00079d50       __acrt_InitializeCriticalSectionEx 000000018007ad50 f   libucrtd:winapi_thunks.obj
 0001:00079d80       __acrt_IsThreadAFiber      000000018007ad80 f   libucrtd:winapi_thunks.obj
 0001:00079d90       __acrt_IsValidLocaleName   000000018007ad90 f   libucrtd:winapi_thunks.obj
 0001:00079df0       __acrt_LCIDToLocaleName    000000018007adf0 f   libucrtd:winapi_thunks.obj
 0001:00079e70       __acrt_LCMapStringEx       000000018007ae70 f   libucrtd:winapi_thunks.obj
 0001:00079f70       __acrt_LocaleNameToLCID    000000018007af70 f   libucrtd:winapi_thunks.obj
 0001:00079fd0       __acrt_LocateXStateFeature 000000018007afd0 f   libucrtd:winapi_thunks.obj
 0001:0007a030       __acrt_MessageBoxA         000000018007b030 f   libucrtd:winapi_thunks.obj
 0001:0007a0a0       __acrt_MessageBoxW         000000018007b0a0 f   libucrtd:winapi_thunks.obj
 0001:0007a110       __acrt_RoInitialize        000000018007b110 f   libucrtd:winapi_thunks.obj
 0001:0007a160       __acrt_RoUninitialize      000000018007b160 f   libucrtd:winapi_thunks.obj
 0001:0007a190       __acrt_RtlGenRandom        000000018007b190 f   libucrtd:winapi_thunks.obj
 0001:0007a1f0       __acrt_SetThreadStackGuarantee 000000018007b1f0 f   libucrtd:winapi_thunks.obj
 0001:0007a240       __acrt_can_show_message_box 000000018007b240 f   libucrtd:winapi_thunks.obj
 0001:0007a280       __acrt_can_use_vista_locale_apis 000000018007b280 f   libucrtd:winapi_thunks.obj
 0001:0007a2b0       __acrt_can_use_xstate_apis 000000018007b2b0 f   libucrtd:winapi_thunks.obj
 0001:0007a2e0       __acrt_eagerly_load_locale_apis 000000018007b2e0 f   libucrtd:winapi_thunks.obj
 0001:0007a320       __acrt_get_parent_window   000000018007b320 f   libucrtd:winapi_thunks.obj
 0001:0007a3a0       __acrt_initialize_winapi_thunks 000000018007b3a0 f   libucrtd:winapi_thunks.obj
 0001:0007a3f0       __acrt_is_interactive      000000018007b3f0 f   libucrtd:winapi_thunks.obj
 0001:0007a4e0       __acrt_tls2_supported      000000018007b4e0 f   libucrtd:winapi_thunks.obj
 0001:0007a510       __acrt_uninitialize_winapi_thunks 000000018007b510 f   libucrtd:winapi_thunks.obj
 0001:0007a5b0       _get_heap_handle           000000018007b5b0 f   libucrtd:heap_handle.obj
 0001:0007a610       __acrt_initialize_heap     000000018007b610 f   libucrtd:heap_handle.obj
 0001:0007a640       __acrt_uninitialize_heap   000000018007b640 f   libucrtd:heap_handle.obj
 0001:0007a660       __acrt_getheap             000000018007b660 f   libucrtd:heap_handle.obj
 0001:0007aa70       __acrt_initialize_lowio    000000018007ba70 f   libucrtd:ioinit.obj
 0001:0007aac0       __acrt_uninitialize_lowio  000000018007bac0 f   libucrtd:ioinit.obj
 0001:0007ab40       __acrt_execute_initializers 000000018007bb40 f   libucrtd:shared_initialization.obj
 0001:0007ac30       __acrt_execute_uninitializers 000000018007bc30 f   libucrtd:shared_initialization.obj
 0001:0007acb0       _callnewh                  000000018007bcb0 f   libucrtd:new_handler.obj
 0001:0007ad10       __acrt_initialize_new_handler 000000018007bd10 f   libucrtd:new_handler.obj
 0001:0007ad40       _query_new_handler         000000018007bd40 f   libucrtd:new_handler.obj
 0001:0007ad90       _set_new_handler           000000018007bd90 f   libucrtd:new_handler.obj
 0001:0007ae00       ?_set_new_handler@@YAP6AH_K@ZH@Z 000000018007be00 f   libucrtd:new_handler.obj
 0001:0007ae70       ??$?B$$A6AH_K@Z@__crt_fast_encoded_nullptr_t@@QEBAP6AH_K@ZXZ 000000018007be70 f i libucrtd:new_handler.obj
 0001:0007ae90       ??$__crt_fast_decode_pointer@P6AH_K@Z@@YAP6AH_K@ZQ6AH0@Z@Z 000000018007be90 f i libucrtd:new_handler.obj
 0001:0007aed0       ??$__crt_fast_encode_pointer@P6AH_K@Z@@YAP6AH_K@ZQ6AH0@Z@Z 000000018007bed0 f i libucrtd:new_handler.obj
 0001:0007af10       ?initialize@?$dual_state_global@P6AH_K@Z@__crt_state_management@@QEAAXQ6AH_K@Z@Z 000000018007bf10 f i libucrtd:new_handler.obj
 0001:0007af60       ?value@?$dual_state_global@P6AH_K@Z@__crt_state_management@@QEAAAEAP6AH_K@ZXZ 000000018007bf60 f i libucrtd:new_handler.obj
 0001:0007af80       ??$?B$$A6AXH@Z@__crt_fast_encoded_nullptr_t@@QEBAP6AXH@ZXZ 000000018007bf80 f i libucrtd:signal.obj
 0001:0007b050       ??$__crt_fast_decode_pointer@P6AXH@Z@@YAP6AXH@ZQ6AXH@Z@Z 000000018007c050 f i libucrtd:signal.obj
 0001:0007b090       ??$__crt_fast_encode_pointer@P6AXH@Z@@YAP6AXH@ZQ6AXH@Z@Z 000000018007c090 f i libucrtd:signal.obj
 0001:0007b320       ?initialize@?$dual_state_global@P6AXH@Z@__crt_state_management@@QEAAXQ6AXH@Z@Z 000000018007c320 f i libucrtd:signal.obj
 0001:0007b4a0       ?value@?$dual_state_global@P6AXH@Z@__crt_state_management@@QEAAAEAP6AXH@ZXZ 000000018007c4a0 f i libucrtd:signal.obj
 0001:0007b4c0       __acrt_get_sigabrt_handler 000000018007c4c0 f   libucrtd:signal.obj
 0001:0007b4f0       __acrt_initialize_signal_handlers 000000018007c4f0 f   libucrtd:signal.obj
 0001:0007b550       __fpecode                  000000018007c550 f   libucrtd:signal.obj
 0001:0007b570       __pxcptinfoptrs            000000018007c570 f   libucrtd:signal.obj
 0001:0007b590       raise                      000000018007c590 f   libucrtd:signal.obj
 0001:0007ba90       signal                     000000018007ca90 f   libucrtd:signal.obj
 0001:0007bd60       ??$__crt_fast_decode_pointer@P6AHPEAU_exception@@@Z@@YAP6AHPEAU_exception@@@ZQ6AH0@Z@Z 000000018007cd60 f i libucrtd:matherr.obj
 0001:0007bd80       ??$__crt_fast_encode_pointer@P6AHPEAU_exception@@@Z@@YAP6AHPEAU_exception@@@ZQ6AH0@Z@Z 000000018007cd80 f i libucrtd:matherr.obj
 0001:0007bda0       ?initialize@?$dual_state_global@P6AHPEAU_exception@@@Z@__crt_state_management@@QEAAXQ6AHPEAU_exception@@@Z@Z 000000018007cda0 f i libucrtd:matherr.obj
 0001:0007bdb0       ?value@?$dual_state_global@P6AHPEAU_exception@@@Z@__crt_state_management@@QEAAAEAP6AHPEAU_exception@@@ZXZ 000000018007cdb0 f i libucrtd:matherr.obj
 0001:0007bdc0       __acrt_has_user_matherr    000000018007cdc0 f   libucrtd:matherr.obj
 0001:0007bde0       __acrt_initialize_user_matherr 000000018007cde0 f   libucrtd:matherr.obj
 0001:0007bdf0       __acrt_invoke_user_matherr 000000018007cdf0 f   libucrtd:matherr.obj
 0001:0007be20       __setusermatherr           000000018007ce20 f   libucrtd:matherr.obj
 0001:0007be50       __p___mb_cur_max           000000018007ce50 f   libucrtd:nlsdata.obj
 0001:0007be90       ?has_any_buffer@__crt_stdio_stream@@QEBA_NXZ 000000018007ce90 f i libucrtd:_sftbuf.obj
 0001:0007beb0       ?has_any_of@__crt_stdio_stream@@QEBA_NJ@Z 000000018007ceb0 f i libucrtd:_sftbuf.obj
 0001:0007bef0       ?has_temporary_buffer@__crt_stdio_stream@@QEBA_NXZ 000000018007cef0 f i libucrtd:_sftbuf.obj
 0001:0007bf10       ?set_flags@__crt_stdio_stream@@QEBA_NJ@Z 000000018007cf10 f i libucrtd:_sftbuf.obj
 0001:0007bf80       ?unset_flags@__crt_stdio_stream@@QEBA_NJ@Z 000000018007cf80 f i libucrtd:_sftbuf.obj
 0001:0007bfe0       __acrt_should_use_temporary_buffer 000000018007cfe0 f   libucrtd:_sftbuf.obj
 0001:0007c030       __acrt_stdio_begin_temporary_buffering_nolock 000000018007d030 f   libucrtd:_sftbuf.obj
 0001:0007c290       __acrt_stdio_end_temporary_buffering_nolock 000000018007d290 f   libucrtd:_sftbuf.obj
 0001:0007c330       _chvalidator               000000018007d330 f   libucrtd:isctype.obj
 0001:0007c3a0       _chvalidator_l             000000018007d3a0 f   libucrtd:isctype.obj
 0001:0007c450       _isctype                   000000018007d450 f   libucrtd:isctype.obj
 0001:0007c4a0       _isctype_l                 000000018007d4a0 f   libucrtd:isctype.obj
 0001:0007c6e0       _isleadbyte_fast_internal  000000018007d6e0 f i libucrtd:isctype.obj
 0001:0007c710       _free_base                 000000018007d710 f   libucrtd:free_base.obj
 0001:0007c780       _realloc_base              000000018007d780 f   libucrtd:realloc_base.obj
 0001:0007c830       _expand                    000000018007d830 f   libucrtd:expand.obj
 0001:0007c870       _expand_base               000000018007d870 f   libucrtd:expand.obj
 0001:0007ca70       ?value_explicit@?$dual_state_global@PEAU__crt_locale_data@@@__crt_state_management@@QEAAAEAPEAU__crt_locale_data@@_K@Z 000000018007da70 f i libucrtd:locale_update.obj
 0001:0007ca90       ?value_explicit@?$dual_state_global@PEAU__crt_multibyte_data@@@__crt_state_management@@QEAAAEAPEAU__crt_multibyte_data@@_K@Z 000000018007da90 f i libucrtd:locale_update.obj
 0001:0007cab0       __acrt_update_locale_info  000000018007dab0 f   libucrtd:locale_update.obj
 0001:0007cb00       __acrt_update_locale_info_explicit 000000018007db00 f   libucrtd:locale_update.obj
 0001:0007cb60       __acrt_update_multibyte_info 000000018007db60 f   libucrtd:locale_update.obj
 0001:0007cbb0       __acrt_update_multibyte_info_explicit 000000018007dbb0 f   libucrtd:locale_update.obj
 0001:0007cc10       _query_new_mode            000000018007dc10 f   libucrtd:new_mode.obj
 0001:0007cc40       _set_new_mode              000000018007dc40 f   libucrtd:new_mode.obj
 0001:0007cd10       ?value@?$dual_state_global@J@__crt_state_management@@QEAAAEAJXZ 000000018007dd10 f i libucrtd:new_mode.obj
 0001:0007cd30       _CrtDefaultAllocHook       000000018007dd30 f   libucrtd:debug_heap_hook.obj
 0001:0007cd60       ??$?RU__crt_locale_data@@@__crt_internal_free_policy@@QEBAXQEBU__crt_locale_data@@@Z 000000018007dd60 f i libucrtd:wsetlocale.obj
 0001:0007cd90       ??$?RU__crt_locale_pointers@@@__crt_internal_free_policy@@QEBAXQEBU__crt_locale_pointers@@@Z 000000018007dd90 f i libucrtd:wsetlocale.obj
 0001:0007d340       ??0?$__crt_unique_heap_ptr@U__crt_locale_data@@U__crt_internal_free_policy@@@@QEAA@QEAU__crt_locale_data@@@Z 000000018007e340 f i libucrtd:wsetlocale.obj
 0001:0007d360       ??0?$__crt_unique_heap_ptr@U__crt_locale_pointers@@U__crt_internal_free_policy@@@@QEAA@QEAU__crt_locale_pointers@@@Z 000000018007e360 f i libucrtd:wsetlocale.obj
 0001:0007d380       ??0_expandlocale_locale_name_cache@@QEAA@QEA_W_KQEAU__crt_qualified_locale_data@@@Z 000000018007e380 f i libucrtd:wsetlocale.obj
 0001:0007d430       ??1?$__crt_unique_heap_ptr@U__crt_locale_data@@U__crt_internal_free_policy@@@@QEAA@XZ 000000018007e430 f i libucrtd:wsetlocale.obj
 0001:0007d450       ??1?$__crt_unique_heap_ptr@U__crt_locale_pointers@@U__crt_internal_free_policy@@@@QEAA@XZ 000000018007e450 f i libucrtd:wsetlocale.obj
 0001:0007d470       ??1_expandlocale_locale_name_cache@@QEAA@XZ 000000018007e470 f i libucrtd:wsetlocale.obj
 0001:0007d4f0       ??B?$__crt_unique_heap_ptr@U__crt_locale_data@@U__crt_internal_free_policy@@@@QEBA_NXZ 000000018007e4f0 f i libucrtd:wsetlocale.obj
 0001:0007d510       ??B?$__crt_unique_heap_ptr@U__crt_locale_pointers@@U__crt_internal_free_policy@@@@QEBA_NXZ 000000018007e510 f i libucrtd:wsetlocale.obj
 0001:0007d9c0       ?commit_locale_name@_expandlocale_locale_name_cache@@QEAAXQEB_W_K@Z 000000018007e9c0 f i libucrtd:wsetlocale.obj
 0001:0007da40       ?commit_locale_name_cache_already_updated@_expandlocale_locale_name_cache@@QEAAXQEB_W_K@Z 000000018007ea40 f i libucrtd:wsetlocale.obj
 0001:0007dab0       ?detach@?$__crt_unique_heap_ptr@U__crt_locale_data@@U__crt_internal_free_policy@@@@QEAAPEAU__crt_locale_data@@XZ 000000018007eab0 f i libucrtd:wsetlocale.obj
 0001:0007dae0       ?detach@?$__crt_unique_heap_ptr@U__crt_locale_pointers@@U__crt_internal_free_policy@@@@QEAAPEAU__crt_locale_pointers@@XZ 000000018007eae0 f i libucrtd:wsetlocale.obj
 0001:0007db10       ?get@?$__crt_unique_heap_ptr@U__crt_locale_data@@U__crt_internal_free_policy@@@@QEBAPEAU__crt_locale_data@@XZ 000000018007eb10 f i libucrtd:wsetlocale.obj
 0001:0007db20       ?get@?$__crt_unique_heap_ptr@U__crt_locale_pointers@@U__crt_internal_free_policy@@@@QEBAPEAU__crt_locale_pointers@@XZ 000000018007eb20 f i libucrtd:wsetlocale.obj
 0001:0007db30       ?is_valid@?$__crt_unique_heap_ptr@U__crt_locale_data@@U__crt_internal_free_policy@@@@QEBA_NXZ 000000018007eb30 f i libucrtd:wsetlocale.obj
 0001:0007db60       ?is_valid@?$__crt_unique_heap_ptr@U__crt_locale_pointers@@U__crt_internal_free_policy@@@@QEBA_NXZ 000000018007eb60 f i libucrtd:wsetlocale.obj
 0001:0007db90       ?release@?$__crt_unique_heap_ptr@U__crt_locale_data@@U__crt_internal_free_policy@@@@QEAAXXZ 000000018007eb90 f i libucrtd:wsetlocale.obj
 0001:0007dbc0       ?release@?$__crt_unique_heap_ptr@U__crt_locale_pointers@@U__crt_internal_free_policy@@@@QEAAXXZ 000000018007ebc0 f i libucrtd:wsetlocale.obj
 0001:0007dbf0       __acrt_copy_locale_name    000000018007ebf0 f   libucrtd:wsetlocale.obj
 0001:0007dcd0       __acrt_set_locale_changed  000000018007ecd0 f   libucrtd:wsetlocale.obj
 0001:0007dce0       __acrt_uninitialize_locale 000000018007ece0 f   libucrtd:wsetlocale.obj
 0001:0007dd10       __ascii_tolower            000000018007ed10 f i libucrtd:wsetlocale.obj
 0001:0007dd30       __ascii_towlower           000000018007ed30 f i libucrtd:wsetlocale.obj
 0001:0007dd50       __lc_lctowcs               000000018007ed50 f   libucrtd:wsetlocale.obj
 0001:0007de40       __lc_wcstolc               000000018007ee40 f   libucrtd:wsetlocale.obj
 0001:0007e120       _configthreadlocale        000000018007f120 f   libucrtd:wsetlocale.obj
 0001:0007e2e0       _create_locale             000000018007f2e0 f   libucrtd:wsetlocale.obj
 0001:0007e9f0       _free_locale               000000018007f9f0 f   libucrtd:wsetlocale.obj
 0001:0007eae0       _get_current_locale        000000018007fae0 f   libucrtd:wsetlocale.obj
 0001:0007ec00       _wcreate_locale            000000018007fc00 f   libucrtd:wsetlocale.obj
 0001:0007ef00       _wcscats                   000000018007ff00 f   libucrtd:wsetlocale.obj
 0001:0007eff0       _wsetlocale                000000018007fff0 f   libucrtd:wsetlocale.obj
 0001:00080ca0       _CrtGetDebugFillThreshold  0000000180081ca0 f   libucrtd:debug_fill_threshold.obj
 0001:00080cb0       _CrtSetDebugFillThreshold  0000000180081cb0 f   libucrtd:debug_fill_threshold.obj
 0001:00080eb0       __acrt_report_runtime_error 0000000180081eb0 f   libucrtd:report_runtime_error.obj
 0001:00081130       _query_app_type            0000000180082130 f   libucrtd:report_runtime_error.obj
 0001:00081140       _set_app_type              0000000180082140 f   libucrtd:report_runtime_error.obj
 0001:00081150       ?__acrt_fp_classify@@YA?AW4__acrt_fp_class@@AEBN@Z 0000000180082150 f i libucrtd:cvt.obj
 0001:00081250       ?__acrt_fp_is_negative@@YA_NAEBN@Z 0000000180082250 f i libucrtd:cvt.obj
 0001:00082b90       ?strrchr@@YAPEADQEADH@Z    0000000180083b90 f i libucrtd:cvt.obj
 0001:00082bb0       __acrt_fp_format           0000000180083bb0 f   libucrtd:cvt.obj
 0001:00083280       ?value_or@?$cached@H@__crt_cached_ptd_host@@QEBAHH@Z 0000000180084280 f i libucrtd:wctomb.obj
 0001:000832b0       _wctomb_internal           00000001800842b0 f   libucrtd:wctomb.obj
 0001:00083810       _wctomb_l                  0000000180084810 f   libucrtd:wctomb.obj
 0001:000838c0       _wctomb_s_l                00000001800848c0 f   libucrtd:wctomb.obj
 0001:00083940       wctomb                     0000000180084940 f   libucrtd:wctomb.obj
 0001:000839e0       wctomb_s                   00000001800849e0 f   libucrtd:wctomb.obj
 0001:00083a60       _mbtowc_internal           0000000180084a60 f   libucrtd:mbtowc.obj
 0001:00083df0       _mbtowc_l                  0000000180084df0 f   libucrtd:mbtowc.obj
 0001:00083e60       mbtowc                     0000000180084e60 f   libucrtd:mbtowc.obj
 0001:00083ec0       ?__mblen_utf8@__crt_mbstring@@YAHPEBD@Z 0000000180084ec0 f   libucrtd:mbrtoc32.obj
 0001:00083f60       ?__mbrtoc32_utf8@__crt_mbstring@@YA_KPEA_UPEBD_KPEAU_Mbstatet@@AEAV__crt_cached_ptd_host@@@Z 0000000180084f60 f   libucrtd:mbrtoc32.obj
 0001:00084330       mbrtoc32                   0000000180085330 f   libucrtd:mbrtoc32.obj
 0001:000843b0       ?__c16rtomb_utf8@__crt_mbstring@@YA_KPEAD_SPEAU_Mbstatet@@AEAV__crt_cached_ptd_host@@@Z 00000001800853b0 f   libucrtd:c16rtomb.obj
 0001:000845f0       c16rtomb                   00000001800855f0 f   libucrtd:c16rtomb.obj
 0001:000846c0       ?__mbrtowc_utf8@__crt_mbstring@@YA_KPEA_WPEBD_KPEAU_Mbstatet@@AEAV__crt_cached_ptd_host@@@Z 00000001800856c0 f   libucrtd:mbrtowc.obj
 0001:00084750       ?__mbsrtowcs_utf8@__crt_mbstring@@YA_KPEA_WPEAPEBD_KPEAU_Mbstatet@@AEAV__crt_cached_ptd_host@@@Z 0000000180085750 f   libucrtd:mbrtowc.obj
 0001:00085950       btowc                      0000000180086950 f   libucrtd:mbrtowc.obj
 0001:00085a20       mbrlen                     0000000180086a20 f   libucrtd:mbrtowc.obj
 0001:00085ad0       mbrtowc                    0000000180086ad0 f   libucrtd:mbrtowc.obj
 0001:00085be0       mbsrtowcs                  0000000180086be0 f   libucrtd:mbrtowc.obj
 0001:00085c60       mbsrtowcs_s                0000000180086c60 f   libucrtd:mbrtowc.obj
 0001:00085cf0       ?lowio_handle@__crt_stdio_stream@@QEBAHXZ 0000000180086cf0 f i libucrtd:fileno.obj
 0001:00085d20       _fileno                    0000000180086d20 f   libucrtd:fileno.obj
 0001:00085e00       ??$?RPEAU__crt_stdio_stream_data@@@__crt_internal_free_policy@@QEBAXQEBQEAU__crt_stdio_stream_data@@@Z 0000000180086e00 f i libucrtd:_file.obj
 0001:00085e30       ??0?$__crt_unique_heap_ptr@PEAU__crt_stdio_stream_data@@U__crt_internal_free_policy@@@@QEAA@QEAPEAU__crt_stdio_stream_data@@@Z 0000000180086e30 f i libucrtd:_file.obj
 0001:00085e50       ??1?$__crt_unique_heap_ptr@PEAU__crt_stdio_stream_data@@U__crt_internal_free_policy@@@@QEAA@XZ 0000000180086e50 f i libucrtd:_file.obj
 0001:00085e70       ?detach@?$__crt_unique_heap_ptr@PEAU__crt_stdio_stream_data@@U__crt_internal_free_policy@@@@QEAAPEAPEAU__crt_stdio_stream_data@@XZ 0000000180086e70 f i libucrtd:_file.obj
 0001:00085ea0       ?release@?$__crt_unique_heap_ptr@PEAU__crt_stdio_stream_data@@U__crt_internal_free_policy@@@@QEAAXXZ 0000000180086ea0 f i libucrtd:_file.obj
 0001:00085ed0       __acrt_initialize_stdio    0000000180086ed0 f   libucrtd:_file.obj
 0001:000860c0       __acrt_iob_func            00000001800870c0 f   libucrtd:_file.obj
 0001:000860e0       __acrt_uninitialize_stdio  00000001800870e0 f   libucrtd:_file.obj
 0001:00086170       _get_stream_buffer_pointers 0000000180087170 f   libucrtd:_file.obj
 0001:000862a0       _lock_file                 00000001800872a0 f   libucrtd:_file.obj
 0001:000862e0       _unlock_file               00000001800872e0 f   libucrtd:_file.obj
 0001:00086320       _get_printf_count_output   0000000180087320 f   libucrtd:printf_count_output.obj
 0001:00086350       _set_printf_count_output   0000000180087350 f   libucrtd:printf_count_output.obj
 0001:00086590       _fputwc_nolock             0000000180087590 f   libucrtd:fputwc.obj
 0001:000865e0       _fputwc_nolock_internal    00000001800875e0 f   libucrtd:fputwc.obj
 0001:000868b0       _fputwchar                 00000001800878b0 f   libucrtd:fputwc.obj
 0001:000868e0       _putwc_nolock              00000001800878e0 f   libucrtd:fputwc.obj
 0001:00086910       fputwc                     0000000180087910 f   libucrtd:fputwc.obj
 0001:00086960       putwc                      0000000180087960 f   libucrtd:fputwc.obj
 0001:00086990       putwchar                   0000000180087990 f   libucrtd:fputwc.obj
 0001:00086cb0       _fputc_nolock              0000000180087cb0 f   libucrtd:fputc.obj
 0001:00086d00       _fputc_nolock_internal     0000000180087d00 f   libucrtd:fputc.obj
 0001:00086dc0       _fputchar                  0000000180087dc0 f   libucrtd:fputc.obj
 0001:00086df0       _putc_nolock               0000000180087df0 f   libucrtd:fputc.obj
 0001:00086e10       fputc                      0000000180087e10 f   libucrtd:fputc.obj
 0001:00086e60       putc                       0000000180087e60 f   libucrtd:fputc.obj
 0001:00086e80       putchar                    0000000180087e80 f   libucrtd:fputc.obj
 0001:00086ea0       _CrtGetReportHook          0000000180087ea0 f   libucrtd:dbgrptt.obj
 0001:00086eb0       _CrtSetReportFile          0000000180087eb0 f   libucrtd:dbgrptt.obj
 0001:00087010       _CrtSetReportHook          0000000180088010 f   libucrtd:dbgrptt.obj
 0001:00087040       _CrtSetReportMode          0000000180088040 f   libucrtd:dbgrptt.obj
 0001:00087200       _VCrtDbgReportA            0000000180088200 f   libucrtd:dbgrptt.obj
 0001:00087c20       _VCrtDbgReportW            0000000180088c20 f   libucrtd:dbgrptt.obj
 0001:00088800       _snprintf_s                0000000180089800 f i libucrtd:dbgrptt.obj
 0001:00088880       _vsnprintf_s               0000000180089880 f i libucrtd:dbgrptt.obj
 0001:000888d0       _vsnprintf_s_l             00000001800898d0 f i libucrtd:dbgrptt.obj
 0001:00088bd0       ??$message_box@$$TAEBQEBDAEBQEBDK@?$__crt_char_traits@D@@SAH$$QEA$$TAEBQEBD1$$QEAK@Z 0000000180089bd0 f i libucrtd:crtmbox.obj
 0001:00088c20       ??$message_box@$$TAEBQEB_WAEBQEB_WK@?$__crt_char_traits@_W@@SAH$$QEA$$TAEBQEB_W1$$QEAK@Z 0000000180089c20 f i libucrtd:crtmbox.obj
 0001:00088c70       ??$message_box@PEAUHWND__@@AEBQEBDAEBQEBDAEBI@?$__crt_char_traits@D@@SAH$$QEAPEAUHWND__@@AEBQEBD1AEBI@Z 0000000180089c70 f i libucrtd:crtmbox.obj
 0001:00088cc0       ??$message_box@PEAUHWND__@@AEBQEB_WAEBQEB_WAEBI@?$__crt_char_traits@_W@@SAH$$QEAPEAUHWND__@@AEBQEB_W1AEBI@Z 0000000180089cc0 f i libucrtd:crtmbox.obj
 0001:00088d10       ??$output_debug_string@AEBQEBD@?$__crt_char_traits@D@@SAXAEBQEBD@Z 0000000180089d10 f i libucrtd:crtmbox.obj
 0001:00088d30       ??$output_debug_string@AEBQEB_W@?$__crt_char_traits@_W@@SAXAEBQEB_W@Z 0000000180089d30 f i libucrtd:crtmbox.obj
 0001:00088d50       __acrt_show_narrow_message_box 0000000180089d50 f   libucrtd:crtmbox.obj
 0001:00088d80       __acrt_show_wide_message_box 0000000180089d80 f   libucrtd:crtmbox.obj
 0001:00088db0       _iswctype_l                0000000180089db0 f   libucrtd:iswctype.obj
 0001:00088de0       iswctype                   0000000180089de0 f   libucrtd:iswctype.obj
 0001:00088e70       __acrt_add_locale_ref      0000000180089e70 f   libucrtd:locale_refcounting.obj
 0001:00088fd0       __acrt_free_locale         0000000180089fd0 f   libucrtd:locale_refcounting.obj
 0001:00089350       __acrt_locale_add_lc_time_reference 000000018008a350 f   libucrtd:locale_refcounting.obj
 0001:00089390       __acrt_locale_free_lc_time_if_unreferenced 000000018008a390 f   libucrtd:locale_refcounting.obj
 0001:000893f0       __acrt_locale_release_lc_time_reference 000000018008a3f0 f   libucrtd:locale_refcounting.obj
 0001:00089430       __acrt_release_locale_ref  000000018008a430 f   libucrtd:locale_refcounting.obj
 0001:000895a0       __acrt_update_thread_locale_data 000000018008a5a0 f   libucrtd:locale_refcounting.obj
 0001:00089640       _updatetlocinfoEx_nolock   000000018008a640 f   libucrtd:locale_refcounting.obj
 0001:00089850       qsort                      000000018008a850 f   libucrtd:qsort.obj
 0001:0008a610       wcsncpy_s                  000000018008b610 f   libucrtd:wcsncpy_s.obj
 0001:0008a650       wcspbrk                    000000018008b650 f   libucrtd:wcspbrk.obj
 0001:0008ad40       strncpy_s                  000000018008bd40 f   libucrtd:strncpy_s.obj
 0001:0008ae90       strpbrk                    000000018008be90 f   libucrtd:strpbrk.obj
 0001:0008b7c0       _mbsdec                    000000018008c7c0 f   libucrtd:mbsdec.obj
 0001:0008b7f0       _mbsdec_l                  000000018008c7f0 f   libucrtd:mbsdec.obj
 0001:0008ba80       ??0?$__crt_scoped_stack_ptr@_W@@QEAA@U?$__crt_scoped_stack_ptr_tag@_W@@@Z 000000018008ca80 f i libucrtd:getstringtypea.obj
 0001:0008baa0       ??0?$__crt_scoped_stack_ptr_tag@_W@@QEAA@QEA_W@Z 000000018008caa0 f i libucrtd:getstringtypea.obj
 0001:0008bac0       ??1?$__crt_scoped_stack_ptr@_W@@QEAA@XZ 000000018008cac0 f i libucrtd:getstringtypea.obj
 0001:0008bae0       ?get@?$__crt_scoped_stack_ptr@_W@@QEBAPEA_WXZ 000000018008cae0 f i libucrtd:getstringtypea.obj
 0001:0008baf0       _MallocaComputeSize        000000018008caf0 f i libucrtd:getstringtypea.obj
 0001:0008bb30       _MarkAllocaS               000000018008cb30 f i libucrtd:getstringtypea.obj
 0001:0008bb60       __acrt_GetStringTypeA      000000018008cb60 f   libucrtd:getstringtypea.obj
 0001:0008bdc0       _freea_crt                 000000018008cdc0 f i libucrtd:getstringtypea.obj
 0001:0008be60       ??B?$__crt_scoped_stack_ptr@_W@@QEBA_NXZ 000000018008ce60 f i libucrtd:lcmapstringa.obj
 0001:0008c4a0       __acrt_LCMapStringA        000000018008d4a0 f   libucrtd:lcmapstringa.obj
 0001:0008c580       _wcsnicoll                 000000018008d580 f   libucrtd:wcsnicol.obj
 0001:0008c7d0       _wcsnicoll_l               000000018008d7d0 f   libucrtd:wcsnicol.obj
 0001:0008cb10       _strnicoll                 000000018008db10 f   libucrtd:strnicol.obj
 0001:0008cb70       _strnicoll_l               000000018008db70 f   libucrtd:strnicol.obj
 0001:0008cf80       __acrt_SetEnvironmentVariableA 000000018008df80 f   libucrtd:setenvironmentvariablea.obj
 0001:0008d1d0       __acrt_DownlevelLCIDToLocaleName 000000018008e1d0 f   libucrtd:lcidtoname_downlevel.obj
 0001:0008d2f0       __acrt_DownlevelLocaleNameToLCID 000000018008e2f0 f   libucrtd:lcidtoname_downlevel.obj
 0001:0008d350       ??$?RU__crt_lowio_handle_data@@@__crt_internal_free_policy@@QEBAXQEBU__crt_lowio_handle_data@@@Z 000000018008e350 f i libucrtd:osfinfo.obj
 0001:0008d380       ??0?$__crt_unique_heap_ptr@U__crt_lowio_handle_data@@U__crt_internal_free_policy@@@@QEAA@QEAU__crt_lowio_handle_data@@@Z 000000018008e380 f i libucrtd:osfinfo.obj
 0001:0008d3a0       ??1?$__crt_unique_heap_ptr@U__crt_lowio_handle_data@@U__crt_internal_free_policy@@@@QEAA@XZ 000000018008e3a0 f i libucrtd:osfinfo.obj
 0001:0008d3c0       ??B?$__crt_unique_heap_ptr@U__crt_lowio_handle_data@@U__crt_internal_free_policy@@@@QEBA_NXZ 000000018008e3c0 f i libucrtd:osfinfo.obj
 0001:0008d3e0       ?detach@?$__crt_unique_heap_ptr@U__crt_lowio_handle_data@@U__crt_internal_free_policy@@@@QEAAPEAU__crt_lowio_handle_data@@XZ 000000018008e3e0 f i libucrtd:osfinfo.obj
 0001:0008d410       ?get@?$__crt_unique_heap_ptr@U__crt_lowio_handle_data@@U__crt_internal_free_policy@@@@QEBAPEAU__crt_lowio_handle_data@@XZ 000000018008e410 f i libucrtd:osfinfo.obj
 0001:0008d420       ?is_valid@?$__crt_unique_heap_ptr@U__crt_lowio_handle_data@@U__crt_internal_free_policy@@@@QEBA_NXZ 000000018008e420 f i libucrtd:osfinfo.obj
 0001:0008d450       ?release@?$__crt_unique_heap_ptr@U__crt_lowio_handle_data@@U__crt_internal_free_policy@@@@QEAAXXZ 000000018008e450 f i libucrtd:osfinfo.obj
 0001:0008d480       __acrt_lowio_create_handle_array 000000018008e480 f   libucrtd:osfinfo.obj
 0001:0008d640       __acrt_lowio_destroy_handle_array 000000018008e640 f   libucrtd:osfinfo.obj
 0001:0008d6c0       __acrt_lowio_ensure_fh_exists 000000018008e6c0 f   libucrtd:osfinfo.obj
 0001:0008d820       __acrt_lowio_lock_fh       000000018008e820 f   libucrtd:osfinfo.obj
 0001:0008d860       __acrt_lowio_set_os_handle 000000018008e860 f   libucrtd:osfinfo.obj
 0001:0008d970       __acrt_lowio_unlock_fh     000000018008e970 f   libucrtd:osfinfo.obj
 0001:0008d9b0       _alloc_osfhnd              000000018008e9b0 f   libucrtd:osfinfo.obj
 0001:0008dbc0       _free_osfhnd               000000018008ebc0 f   libucrtd:osfinfo.obj
 0001:0008dcf0       _get_osfhandle             000000018008ecf0 f   libucrtd:osfinfo.obj
 0001:0008def0       _open_osfhandle            000000018008eef0 f   libucrtd:osfinfo.obj
 0001:0008e110       localeconv                 000000018008f110 f   libucrtd:localeconv.obj
 0001:0008e150       __pctype_func              000000018008f150 f   libucrtd:ctype.obj
 0001:0008e190       __pwctype_func             000000018008f190 f   libucrtd:ctype.obj
 0001:0008e1a0       _isatty                    000000018008f1a0 f   libucrtd:isatty.obj
 0001:0008e630       ??0__crt_stdio_stream@@QEAA@QEAU__crt_stdio_stream_data@@@Z 000000018008f630 f i libucrtd:fflush.obj
 0001:0008e8e0       ?__acrt_stdio_reset_buffer@@YAXV__crt_stdio_stream@@@Z 000000018008f8e0 f i libucrtd:fflush.obj
 0001:0008eab0       ?has_all_of@__crt_stdio_stream@@QEBA_NJ@Z 000000018008fab0 f i libucrtd:fflush.obj
 0001:0008eb90       __acrt_stdio_flush_nolock  000000018008fb90 f   libucrtd:fflush.obj
 0001:0008ecb0       _fflush_nolock             000000018008fcb0 f   libucrtd:fflush.obj
 0001:0008ecf0       _flushall                  000000018008fcf0 f   libucrtd:fflush.obj
 0001:0008ed00       fflush                     000000018008fd00 f   libucrtd:fflush.obj
 0001:0008ed90       _malloc_base               000000018008fd90 f   libucrtd:malloc_base.obj
 0001:0008ee30       ??$?RG@__crt_internal_free_policy@@QEBAXQEBG@Z 000000018008fe30 f i libucrtd:initctype.obj
 0001:0008ee60       ??$?RJ@__crt_internal_free_policy@@QEBAXQEBJ@Z 000000018008fe60 f i libucrtd:initctype.obj
 0001:0008ee90       ??0?$__crt_unique_heap_ptr@GU__crt_internal_free_policy@@@@QEAA@QEAG@Z 000000018008fe90 f i libucrtd:initctype.obj
 0001:0008eeb0       ??0?$__crt_unique_heap_ptr@JU__crt_internal_free_policy@@@@QEAA@QEAJ@Z 000000018008feb0 f i libucrtd:initctype.obj
 0001:0008eed0       ??1?$__crt_unique_heap_ptr@GU__crt_internal_free_policy@@@@QEAA@XZ 000000018008fed0 f i libucrtd:initctype.obj
 0001:0008eef0       ??1?$__crt_unique_heap_ptr@JU__crt_internal_free_policy@@@@QEAA@XZ 000000018008fef0 f i libucrtd:initctype.obj
 0001:0008ef10       ?detach@?$__crt_unique_heap_ptr@GU__crt_internal_free_policy@@@@QEAAPEAGXZ 000000018008ff10 f i libucrtd:initctype.obj
 0001:0008ef40       ?detach@?$__crt_unique_heap_ptr@JU__crt_internal_free_policy@@@@QEAAPEAJXZ 000000018008ff40 f i libucrtd:initctype.obj
 0001:0008ef70       ?release@?$__crt_unique_heap_ptr@GU__crt_internal_free_policy@@@@QEAAXXZ 000000018008ff70 f i libucrtd:initctype.obj
 0001:0008efa0       ?release@?$__crt_unique_heap_ptr@JU__crt_internal_free_policy@@@@QEAAXXZ 000000018008ffa0 f i libucrtd:initctype.obj
 0001:0008efd0       ___lc_codepage_func        000000018008ffd0 f   libucrtd:initctype.obj
 0001:0008f010       ___lc_collate_cp_func      0000000180090010 f   libucrtd:initctype.obj
 0001:0008f050       ___lc_locale_name_func     0000000180090050 f   libucrtd:initctype.obj
 0001:0008f090       ___mb_cur_max_func         0000000180090090 f   libucrtd:initctype.obj
 0001:0008f0d0       ___mb_cur_max_l_func       00000001800900d0 f   libucrtd:initctype.obj
 0001:0008f110       __acrt_locale_initialize_ctype 0000000180090110 f   libucrtd:initctype.obj
 0001:0008fc00       ??$?RUlconv@@@__crt_internal_free_policy@@QEBAXQEBUlconv@@@Z 0000000180090c00 f i libucrtd:initmon.obj
 0001:0008fc30       ??0?$__crt_unique_heap_ptr@Ulconv@@U__crt_internal_free_policy@@@@QEAA@QEAUlconv@@@Z 0000000180090c30 f i libucrtd:initmon.obj
 0001:0008fc50       ??1?$__crt_unique_heap_ptr@Ulconv@@U__crt_internal_free_policy@@@@QEAA@XZ 0000000180090c50 f i libucrtd:initmon.obj
 0001:0008fc70       ?detach@?$__crt_unique_heap_ptr@Ulconv@@U__crt_internal_free_policy@@@@QEAAPEAUlconv@@XZ 0000000180090c70 f i libucrtd:initmon.obj
 0001:0008fca0       ?release@?$__crt_unique_heap_ptr@Ulconv@@U__crt_internal_free_policy@@@@QEAAXXZ 0000000180090ca0 f i libucrtd:initmon.obj
 0001:0008fcd0       __acrt_locale_free_monetary 0000000180090cd0 f   libucrtd:initmon.obj
 0001:0008fee0       __acrt_locale_initialize_monetary 0000000180090ee0 f   libucrtd:initmon.obj
 0001:000908c0       __acrt_locale_free_numeric 00000001800918c0 f   libucrtd:initnum.obj
 0001:000909a0       __acrt_locale_initialize_numeric 00000001800919a0 f   libucrtd:initnum.obj
 0001:00090fe0       ??$?RU__crt_lc_time_data@@@__crt_internal_free_policy@@QEBAXQEBU__crt_lc_time_data@@@Z 0000000180091fe0 f i libucrtd:inittime.obj
 0001:000910d0       ??0?$__crt_unique_heap_ptr@U__crt_lc_time_data@@U__crt_internal_free_policy@@@@QEAA@QEAU__crt_lc_time_data@@@Z 00000001800920d0 f i libucrtd:inittime.obj
 0001:000910f0       ??1?$__crt_unique_heap_ptr@U__crt_lc_time_data@@U__crt_internal_free_policy@@@@QEAA@XZ 00000001800920f0 f i libucrtd:inittime.obj
 0001:00091110       ??B?$__crt_unique_heap_ptr@U__crt_lc_time_data@@U__crt_internal_free_policy@@@@QEBA_NXZ 0000000180092110 f i libucrtd:inittime.obj
 0001:00091130       ?detach@?$__crt_unique_heap_ptr@U__crt_lc_time_data@@U__crt_internal_free_policy@@@@QEAAPEAU__crt_lc_time_data@@XZ 0000000180092130 f i libucrtd:inittime.obj
 0001:000911c0       ?get@?$__crt_unique_heap_ptr@U__crt_lc_time_data@@U__crt_internal_free_policy@@@@QEBAPEAU__crt_lc_time_data@@XZ 00000001800921c0 f i libucrtd:inittime.obj
 0001:00091830       ?is_valid@?$__crt_unique_heap_ptr@U__crt_lc_time_data@@U__crt_internal_free_policy@@@@QEBA_NXZ 0000000180092830 f i libucrtd:inittime.obj
 0001:00091860       ?release@?$__crt_unique_heap_ptr@U__crt_lc_time_data@@U__crt_internal_free_policy@@@@QEAAXXZ 0000000180092860 f i libucrtd:inittime.obj
 0001:00091890       __acrt_locale_free_time    0000000180092890 f   libucrtd:inittime.obj
 0001:00091a00       __acrt_locale_initialize_time 0000000180092a00 f   libucrtd:inittime.obj
 0001:00092130       wcscat_s                   0000000180093130 f   libucrtd:wcscat_s.obj
 0001:00092900       wcsncat_s                  0000000180093900 f   libucrtd:wcsncat_s.obj
 0001:00092940       wcscmp                     0000000180093940 f   libucrtd:wcscmpc.obj
 0001:000929e0       wcscspn                    00000001800939e0 f   libucrtd:wcscspn.obj
 0001:00093770       __acrt_get_qualified_locale 0000000180094770 f   libucrtd:get_qualified_locale.obj
 0001:000948f0       __acrt_get_qualified_locale_downlevel 00000001800958f0 f   libucrtd:getqloc_downlevel.obj
 0001:00094c90       _set_error_mode            0000000180095c90 f   libucrtd:set_error_mode.obj
 0001:00094f50       __acrt_fp_strflt_to_string 0000000180095f50 f   libucrtd:_fptostr.obj
 0001:00095b10       ??0big_integer@__crt_strtox@@QEAA@AEBU01@@Z 0000000180096b10 f i libucrtd:cfout.obj
 0001:00095b70       ??0big_integer@__crt_strtox@@QEAA@XZ 0000000180096b70 f i libucrtd:cfout.obj
 0001:00095cc0       ??4big_integer@__crt_strtox@@QEAAAEAU01@AEBU01@@Z 0000000180096cc0 f i libucrtd:cfout.obj
 0001:00095d20       ??8__crt_strtox@@YA_NAEBUbig_integer@0@0@Z 0000000180096d20 f i libucrtd:cfout.obj
 0001:00095d90       ??9__crt_strtox@@YA_NAEBUbig_integer@0@0@Z 0000000180096d90 f i libucrtd:cfout.obj
 0001:00095dd0       ?add_carry@__crt_strtox@@YAIAEAIII@Z 0000000180096dd0 f i libucrtd:cfout.obj
 0001:00095e20       ?add_multiply_carry@__crt_strtox@@YAIAEAIIII@Z 0000000180096e20 f i libucrtd:cfout.obj
 0001:00095e80       ?bit_scan_reverse@__crt_strtox@@YAII@Z 0000000180096e80 f i libucrtd:cfout.obj
 0001:00095ec0       ?count_sequential_high_zeroes@__crt_strtox@@YAII@Z 0000000180096ec0 f i libucrtd:cfout.obj
 0001:00095f10       ?divide@__crt_strtox@@YA_KAEAUbig_integer@1@AEBU21@@Z 0000000180096f10 f i libucrtd:cfout.obj
 0001:000968e0       ?is_zero@__crt_strtox@@YA_NAEBUbig_integer@1@@Z 00000001800978e0 f i libucrtd:cfout.obj
 0001:00096910       ?make_big_integer@__crt_strtox@@YA?AUbig_integer@1@_K@Z 0000000180097910 f i libucrtd:cfout.obj
 0001:000969e0       ?make_big_integer_power_of_two@__crt_strtox@@YA?AUbig_integer@1@I@Z 00000001800979e0 f i libucrtd:cfout.obj
 0001:00096ab0       ?multiply@__crt_strtox@@YA_NAEAUbig_integer@1@AEBU21@@Z 0000000180097ab0 f i libucrtd:cfout.obj
 0001:00096e30       ?multiply@__crt_strtox@@YA_NAEAUbig_integer@1@I@Z 0000000180097e30 f i libucrtd:cfout.obj
 0001:00096f50       ?multiply_64_32@__crt_strtox@@YA_K_KI@Z 0000000180097f50 f i libucrtd:cfout.obj
 0001:00096f70       ?multiply_by_power_of_ten@__crt_strtox@@YA_NAEAUbig_integer@1@I@Z 0000000180097f70 f i libucrtd:cfout.obj
 0001:00097120       ?multiply_core@__crt_strtox@@YAIQEAIII@Z 0000000180098120 f i libucrtd:cfout.obj
 0001:000971a0       ?shift_left@__crt_strtox@@YA_NAEAUbig_integer@1@I@Z 00000001800981a0 f i libucrtd:cfout.obj
 0001:00097480       __acrt_fltout              0000000180098480 f   libucrtd:cfout.obj
 0001:000979b0       __fpe_flt_rounds           00000001800989b0 f   libucrtd:fegetround.obj
 0001:00097a00       fegetround                 0000000180098a00 f   libucrtd:fegetround.obj
 0001:00097a20       ?__c32rtomb_utf8@__crt_mbstring@@YA_KPEAD_UPEAU_Mbstatet@@AEAV__crt_cached_ptd_host@@@Z 0000000180098a20 f   libucrtd:c32rtomb.obj
 0001:00097cd0       c32rtomb                   0000000180098cd0 f   libucrtd:c32rtomb.obj
 0001:00097d30       ?reset_and_return@__crt_mbstring@@YA_K_KPEAU_Mbstatet@@@Z 0000000180098d30 f   libucrtd:common_utf8.obj
 0001:00097d70       ?return_illegal_sequence@__crt_mbstring@@YA_KPEAU_Mbstatet@@AEAV__crt_cached_ptd_host@@@Z 0000000180098d70 f   libucrtd:common_utf8.obj
 0001:00097dd0       ?is_in_use@__crt_stdio_stream@@QEBA_NXZ 0000000180098dd0 f i libucrtd:closeall.obj
 0001:00097e10       _fcloseall                 0000000180098e10 f   libucrtd:closeall.obj
 0001:00097f20       ?has_crt_buffer@__crt_stdio_stream@@QEBA_NXZ 0000000180098f20 f i libucrtd:_freebuf.obj
 0001:00097f40       __acrt_stdio_free_buffer_nolock 0000000180098f40 f   libucrtd:_freebuf.obj
 0001:00098a40       ?has_big_buffer@__crt_stdio_stream@@QEBA_NXZ 0000000180099a40 f i libucrtd:_flsbuf.obj
 0001:00098b90       __acrt_stdio_flush_and_write_narrow_nolock 0000000180099b90 f   libucrtd:_flsbuf.obj
 0001:00098bd0       __acrt_stdio_flush_and_write_wide_nolock 0000000180099bd0 f   libucrtd:_flsbuf.obj
 0001:0009a450       _i64toa                    000000018009b450 f   libucrtd:xtoa.obj
 0001:0009a4c0       _i64toa_s                  000000018009b4c0 f   libucrtd:xtoa.obj
 0001:0009a530       _i64tow                    000000018009b530 f   libucrtd:xtoa.obj
 0001:0009a5a0       _i64tow_s                  000000018009b5a0 f   libucrtd:xtoa.obj
 0001:0009a610       _itoa                      000000018009b610 f   libucrtd:xtoa.obj
 0001:0009a680       _itoa_s                    000000018009b680 f   libucrtd:xtoa.obj
 0001:0009a6e0       _itow                      000000018009b6e0 f   libucrtd:xtoa.obj
 0001:0009a750       _itow_s                    000000018009b750 f   libucrtd:xtoa.obj
 0001:0009a7b0       _ltoa                      000000018009b7b0 f   libucrtd:xtoa.obj
 0001:0009a820       _ltoa_s                    000000018009b820 f   libucrtd:xtoa.obj
 0001:0009a880       _ltow                      000000018009b880 f   libucrtd:xtoa.obj
 0001:0009a8f0       _ltow_s                    000000018009b8f0 f   libucrtd:xtoa.obj
 0001:0009a950       _ui64toa                   000000018009b950 f   libucrtd:xtoa.obj
 0001:0009a990       _ui64toa_s                 000000018009b990 f   libucrtd:xtoa.obj
 0001:0009a9d0       _ui64tow                   000000018009b9d0 f   libucrtd:xtoa.obj
 0001:0009aa10       _ui64tow_s                 000000018009ba10 f   libucrtd:xtoa.obj
 0001:0009aa50       _ultoa                     000000018009ba50 f   libucrtd:xtoa.obj
 0001:0009aa90       _ultoa_s                   000000018009ba90 f   libucrtd:xtoa.obj
 0001:0009aad0       _ultow                     000000018009bad0 f   libucrtd:xtoa.obj
 0001:0009ab10       _ultow_s                   000000018009bb10 f   libucrtd:xtoa.obj
 0001:0009b690       _mbstowcs_l                000000018009c690 f   libucrtd:mbstowcs.obj
 0001:0009b700       _mbstowcs_s_l              000000018009c700 f   libucrtd:mbstowcs.obj
 0001:0009b790       mbstowcs                   000000018009c790 f   libucrtd:mbstowcs.obj
 0001:0009b7f0       mbstowcs_s                 000000018009c7f0 f   libucrtd:mbstowcs.obj
 0001:0009c680       _wcstombs_l                000000018009d680 f   libucrtd:wcstombs.obj
 0001:0009c6f0       _wcstombs_s_l              000000018009d6f0 f   libucrtd:wcstombs.obj
 0001:0009c780       wcstombs                   000000018009d780 f   libucrtd:wcstombs.obj
 0001:0009c7e0       wcstombs_s                 000000018009d7e0 f   libucrtd:wcstombs.obj
 0001:0009ced0       strcat_s                   000000018009ded0 f   libucrtd:strcat_s.obj
 0001:0009cf00       __acrt_OutputDebugStringA  000000018009df00 f   libucrtd:outputdebugstringa.obj
 0001:0009cfc0       __acrt_GetStringTypeW      000000018009dfc0 f   libucrtd:getstringtypew.obj
 0001:0009cff8       _guard_check_icall         000000018009dff8 f i libucrtd:checkcfg.obj
 0001:0009d010       __strncnt                  000000018009e010 f   libucrtd:strncnt.obj
 0001:0009d070       __acrt_CompareStringW      000000018009e070 f   libucrtd:comparestringw.obj
 0001:0009d310       __ascii_wcsnicmp           000000018009e310 f   libucrtd:wcsnicmp.obj
 0001:0009d410       _towlower_fast_internal    000000018009e410 f i libucrtd:wcsnicmp.obj
 0001:0009d460       _towlower_internal         000000018009e460 f i libucrtd:wcsnicmp.obj
 0001:0009d4a0       _wcsnicmp                  000000018009e4a0 f   libucrtd:wcsnicmp.obj
 0001:0009d520       _wcsnicmp_l                000000018009e520 f   libucrtd:wcsnicmp.obj
 0001:0009da70       __ascii_strnicmp           000000018009ea70 f   libucrtd:strnicmp.obj
 0001:0009db70       _strnicmp                  000000018009eb70 f   libucrtd:strnicmp.obj
 0001:0009dc00       _strnicmp_l                000000018009ec00 f   libucrtd:strnicmp.obj
 0001:0009e660       __acrt_CompareStringA      000000018009f660 f   libucrtd:comparestringa.obj
 0001:0009e920       _commit                    000000018009f920 f   libucrtd:commit.obj
 0001:000a0350       _utf8_no_of_trailbytes     00000001800a1350 f i libucrtd:write.obj
 0001:000a0370       _write                     00000001800a1370 f   libucrtd:write.obj
 0001:000a03d0       _write_internal            00000001800a13d0 f   libucrtd:write.obj
 0001:000a0770       _write_nolock              00000001800a1770 f   libucrtd:write.obj
 0001:000a1060       __acrt_GetLocaleInfoA      00000001800a2060 f   libucrtd:getlocaleinfoa.obj
 0001:000a1630       __ascii_wcsicmp            00000001800a2630 f   libucrtd:wcsicmp.obj
 0001:000a1700       _wcsicmp                   00000001800a2700 f   libucrtd:wcsicmp.obj
 0001:000a1770       _wcsicmp_l                 00000001800a2770 f   libucrtd:wcsicmp.obj
 0001:000a1a50       log10                      00000001800a2a50 f   libucrtd:log10.obj
 0001:000a2000       ceil                       00000001800a3000 f   libucrtd:ceil.obj
 0001:000a20d0       _controlfp_s               00000001800a30d0 f   libucrtd:contrlfp.obj
 0001:000a21a0       fegetenv                   00000001800a31a0 f   libucrtd:fegetenv.obj
 0001:000a21c0       fesetenv                   00000001800a31c0 f   libucrtd:fesetenv.obj
 0001:000a2230       feholdexcept               00000001800a3230 f   libucrtd:feholdexcept.obj
 0001:000a2290       ??$__acrt_fenv_shift_bits@W4__acrt_fenv_abstract_control@@@@YA?AW4__acrt_fenv_abstract_control@@W40@0I@Z 00000001800a3290 f i libucrtd:_fenvutils.obj
 0001:000a22a0       ??$__acrt_fenv_shift_bits@W4__acrt_fenv_abstract_status@@@@YA?AW4__acrt_fenv_abstract_status@@W40@0I@Z 00000001800a32a0 f i libucrtd:_fenvutils.obj
 0001:000a22b0       ??$__acrt_fenv_translate_bit@W4__acrt_fenv_abstract_control@@W4__acrt_fenv_machine_sse_control@@@@YA?AW4__acrt_fenv_abstract_control@@W4__acrt_fenv_machine_sse_control@@0W40@1@Z 00000001800a32b0 f i libucrtd:_fenvutils.obj
 0001:000a22c0       ??$__acrt_fenv_translate_bit@W4__acrt_fenv_abstract_status@@W4__acrt_fenv_machine_sse_status@@@@YA?AW4__acrt_fenv_abstract_status@@W4__acrt_fenv_machine_sse_status@@0W40@1@Z 00000001800a32c0 f i libucrtd:_fenvutils.obj
 0001:000a22d0       ??$__acrt_fenv_translate_bit@W4__acrt_fenv_machine_sse_control@@W4__acrt_fenv_abstract_control@@@@YA?AW4__acrt_fenv_machine_sse_control@@W4__acrt_fenv_abstract_control@@0W40@1@Z 00000001800a32d0 f i libucrtd:_fenvutils.obj
 0001:000a22e0       ??$__acrt_fenv_translate_bit@W4__acrt_fenv_machine_sse_status@@W4__acrt_fenv_abstract_status@@@@YA?AW4__acrt_fenv_machine_sse_status@@W4__acrt_fenv_abstract_status@@0W40@1@Z 00000001800a32e0 f i libucrtd:_fenvutils.obj
 0001:000a22f0       ??$__acrt_fenv_unshift_bits@W4__acrt_fenv_abstract_control@@@@YA?AW4__acrt_fenv_abstract_control@@W40@0I@Z 00000001800a32f0 f i libucrtd:_fenvutils.obj
 0001:000a2300       ??$__acrt_fenv_unshift_bits@W4__acrt_fenv_abstract_status@@@@YA?AW4__acrt_fenv_abstract_status@@W40@0I@Z 00000001800a3300 f i libucrtd:_fenvutils.obj
 0001:000a2510       ??I@YA?AW4__acrt_fenv_abstract_control@@W40@0@Z 00000001800a3510 f i libucrtd:_fenvutils.obj
 0001:000a2520       ??I@YA?AW4__acrt_fenv_abstract_status@@W40@0@Z 00000001800a3520 f i libucrtd:_fenvutils.obj
 0001:000a2530       ??I@YA?AW4__acrt_fenv_machine_sse_control@@W40@0@Z 00000001800a3530 f i libucrtd:_fenvutils.obj
 0001:000a2540       ??I@YA?AW4__acrt_fenv_machine_sse_status@@W40@0@Z 00000001800a3540 f i libucrtd:_fenvutils.obj
 0001:000a2550       ??U@YA?AW4__acrt_fenv_abstract_control@@W40@0@Z 00000001800a3550 f i libucrtd:_fenvutils.obj
 0001:000a2560       ??U@YA?AW4__acrt_fenv_abstract_status@@W40@0@Z 00000001800a3560 f i libucrtd:_fenvutils.obj
 0001:000a2570       ??U@YA?AW4__acrt_fenv_machine_sse_control@@W40@0@Z 00000001800a3570 f i libucrtd:_fenvutils.obj
 0001:000a2580       ??_5@YAAEAW4__acrt_fenv_abstract_control@@AEAW40@W40@@Z 00000001800a3580 f i libucrtd:_fenvutils.obj
 0001:000a2590       ??_5@YAAEAW4__acrt_fenv_abstract_status@@AEAW40@W40@@Z 00000001800a3590 f i libucrtd:_fenvutils.obj
 0001:000a25a0       ??_5@YAAEAW4__acrt_fenv_machine_sse_control@@AEAW40@W40@@Z 00000001800a35a0 f i libucrtd:_fenvutils.obj
 0001:000a25b0       ??_5@YAAEAW4__acrt_fenv_machine_sse_status@@AEAW40@W40@@Z 00000001800a35b0 f i libucrtd:_fenvutils.obj
 0001:000a25c0       ?__acrt_fenv_shift_abstract_sse_control@@YA?AW4__acrt_fenv_abstract_control@@W41@@Z 00000001800a35c0 f i libucrtd:_fenvutils.obj
 0001:000a25e0       ?__acrt_fenv_shift_abstract_sse_status@@YA?AW4__acrt_fenv_abstract_status@@W41@@Z 00000001800a35e0 f i libucrtd:_fenvutils.obj
 0001:000a25f0       ?__acrt_fenv_unshift_abstract_sse_control@@YA?AW4__acrt_fenv_abstract_control@@W41@@Z 00000001800a35f0 f i libucrtd:_fenvutils.obj
 0001:000a2610       ?__acrt_fenv_unshift_abstract_sse_status@@YA?AW4__acrt_fenv_abstract_status@@W41@@Z 00000001800a3610 f i libucrtd:_fenvutils.obj
 0001:000a2920       __acrt_fenv_expand_round_control 00000001800a3920 f   libucrtd:_fenvutils.obj
 0001:000a2940       __acrt_fenv_get_common_round_control 00000001800a3940 f   libucrtd:_fenvutils.obj
 0001:000a2950       __acrt_fenv_get_control    00000001800a3950 f   libucrtd:_fenvutils.obj
 0001:000a2a30       __acrt_fenv_get_fp_status_word_from_exception_mask 00000001800a3a30 f   libucrtd:_fenvutils.obj
 0001:000a2a40       __acrt_fenv_get_status     00000001800a3a40 f   libucrtd:_fenvutils.obj
 0001:000a2aa0       __acrt_fenv_set_control    00000001800a3aa0 f   libucrtd:_fenvutils.obj
 0001:000a2bd0       __acrt_fenv_set_status     00000001800a3bd0 f   libucrtd:_fenvutils.obj
 0001:000a2f60       _fclose_nolock             00000001800a3f60 f   libucrtd:fclose.obj
 0001:000a2fa0       fclose                     00000001800a3fa0 f   libucrtd:fclose.obj
 0001:000a3b30       _lseek                     00000001800a4b30 f   libucrtd:lseek.obj
 0001:000a3b90       _lseek_internal            00000001800a4b90 f   libucrtd:lseek.obj
 0001:000a3bd0       _lseek_nolock              00000001800a4bd0 f   libucrtd:lseek.obj
 0001:000a3c30       _lseek_nolock_internal     00000001800a4c30 f   libucrtd:lseek.obj
 0001:000a3c70       _lseeki64                  00000001800a4c70 f   libucrtd:lseek.obj
 0001:000a3cd0       _lseeki64_internal         00000001800a4cd0 f   libucrtd:lseek.obj
 0001:000a3d10       _lseeki64_nolock           00000001800a4d10 f   libucrtd:lseek.obj
 0001:000a3d70       _lseeki64_nolock_internal  00000001800a4d70 f   libucrtd:lseek.obj
 0001:000a3db0       __acrt_stdio_allocate_buffer_nolock 00000001800a4db0 f   libucrtd:_getbuf.obj
 0001:000a3f30       ?__wcsrtombs_utf8@__crt_mbstring@@YA_KPEADPEAPEB_W_KPEAU_Mbstatet@@AEAV__crt_cached_ptd_host@@@Z 00000001800a4f30 f   libucrtd:wcrtomb.obj
 0001:000a4bb0       wcrtomb                    00000001800a5bb0 f   libucrtd:wcrtomb.obj
 0001:000a4c30       wcrtomb_s                  00000001800a5c30 f   libucrtd:wcrtomb.obj
 0001:000a4cb0       wcsrtombs                  00000001800a5cb0 f   libucrtd:wcrtomb.obj
 0001:000a4d30       wcsrtombs_s                00000001800a5d30 f   libucrtd:wcrtomb.obj
 0001:000a5370       wctob                      00000001800a6370 f   libucrtd:wcrtomb.obj
 0001:000a5480       _towlower_l                00000001800a6480 f   libucrtd:towlower.obj
 0001:000a5630       towlower                   00000001800a6630 f   libucrtd:towlower.obj
 0001:000a57c0       _putwch                    00000001800a67c0 f   libucrtd:putwch.obj
 0001:000a57f0       _putwch_nolock             00000001800a67f0 f   libucrtd:putwch.obj
 0001:000a5840       _putwch_nolock_internal    00000001800a6840 f   libucrtd:putwch.obj
 0001:000a6740       _read                      00000001800a7740 f   libucrtd:read.obj
 0001:000a6a90       _read_nolock               00000001800a7a90 f   libucrtd:read.obj
 0001:000a7880       __acrt_initialize_fma3     00000001800a8880 f   libucrtd:fma3_available.obj
 0001:000a7940       _get_FMA3_enable           00000001800a8940 f   libucrtd:fma3_available.obj
 0001:000a7950       _set_FMA3_enable           00000001800a8950 f   libucrtd:fma3_available.obj
 0001:000a7990       _log10_special             00000001800a8990 f   libucrtd:log_special.obj
 0001:000a79b0       _log10f_special            00000001800a89b0 f   libucrtd:log_special.obj
 0001:000a79d0       _log_special               00000001800a89d0 f   libucrtd:log_special.obj
 0001:000a7a90       _logf_special              00000001800a8a90 f   libucrtd:log_special.obj
 0001:000a7cd0       _handle_error              00000001800a8cd0 f   libucrtd:libm_error.obj
 0001:000a7e10       _handle_errorf             00000001800a8e10 f   libucrtd:libm_error.obj
 0001:000a7f50       _handle_nan                00000001800a8f50 f   libucrtd:libm_error.obj
 0001:000a7f70       _handle_nanf               00000001800a8f70 f   libucrtd:libm_error.obj
 0001:000a7f80       round_sse41                00000001800a8f80 f   libucrtd:floorceil_sse41.obj
 0001:000a7fb0       roundf_sse41               00000001800a8fb0 f   libucrtd:floorceil_sse41.obj
 0001:000a7fd0       floor_sse41                00000001800a8fd0 f   libucrtd:floorceil_sse41.obj
 0001:000a7fe0       floorf_sse41               00000001800a8fe0 f   libucrtd:floorceil_sse41.obj
 0001:000a7ff0       ceil_sse41                 00000001800a8ff0 f   libucrtd:floorceil_sse41.obj
 0001:000a8000       ceilf_sse41                00000001800a9000 f   libucrtd:floorceil_sse41.obj
 0001:000a8010       trunc_sse41                00000001800a9010 f   libucrtd:floorceil_sse41.obj
 0001:000a8020       truncl_sse41               00000001800a9020 f   libucrtd:floorceil_sse41.obj
 0001:000a8030       truncf_sse41               00000001800a9030 f   libucrtd:floorceil_sse41.obj
 0001:000a8040       nearbyint_sse41            00000001800a9040 f   libucrtd:floorceil_sse41.obj
 0001:000a8050       nearbyintl_sse41           00000001800a9050 f   libucrtd:floorceil_sse41.obj
 0001:000a8060       nearbyintf_sse41           00000001800a9060 f   libucrtd:floorceil_sse41.obj
 0001:000a8070       rint_sse41                 00000001800a9070 f   libucrtd:floorceil_sse41.obj
 0001:000a8080       rintl_sse41                00000001800a9080 f   libucrtd:floorceil_sse41.obj
 0001:000a8090       rintf_sse41                00000001800a9090 f   libucrtd:floorceil_sse41.obj
 0001:000a81c0       _clearfp                   00000001800a91c0 f   libucrtd:ieee.obj
 0001:000a8230       _control87                 00000001800a9230 f   libucrtd:ieee.obj
 0001:000a8240       _controlfp                 00000001800a9240 f   libucrtd:ieee.obj
 0001:000a8250       _fpreset                   00000001800a9250 f   libucrtd:ieee.obj
 0001:000a8320       _set_controlfp             00000001800a9320 f   libucrtd:ieee.obj
 0001:000a8350       _statusfp                  00000001800a9350 f   libucrtd:ieee.obj
 0001:000a8990       _close                     00000001800a9990 f   libucrtd:close.obj
 0001:000a89d0       _close_internal            00000001800a99d0 f   libucrtd:close.obj
 0001:000a8c90       _close_nolock              00000001800a9c90 f   libucrtd:close.obj
 0001:000a8cd0       _close_nolock_internal     00000001800a9cd0 f   libucrtd:close.obj
 0001:000a8d40       ??$?RU__crt_stdio_stream_data@@@__crt_internal_free_policy@@QEBAXQEBU__crt_stdio_stream_data@@@Z 00000001800a9d40 f i libucrtd:stream.obj
 0001:000a8d70       ??0?$__crt_unique_heap_ptr@U__crt_stdio_stream_data@@U__crt_internal_free_policy@@@@QEAA@QEAU__crt_stdio_stream_data@@@Z 00000001800a9d70 f i libucrtd:stream.obj
 0001:000a8d90       ??0__crt_stdio_stream@@QEAA@XZ 00000001800a9d90 f i libucrtd:stream.obj
 0001:000a8db0       ??1?$__crt_unique_heap_ptr@U__crt_stdio_stream_data@@U__crt_internal_free_policy@@@@QEAA@XZ 00000001800a9db0 f i libucrtd:stream.obj
 0001:000a8dd0       ?__acrt_stdio_allocate_stream@@YA?AV__crt_stdio_stream@@XZ 00000001800a9dd0 f   libucrtd:stream.obj
 0001:000a8e90       ?__acrt_stdio_free_stream@@YAXV__crt_stdio_stream@@@Z 00000001800a9e90 f   libucrtd:stream.obj
 0001:000a8f30       ?deallocate@__crt_stdio_stream@@QEAAXXZ 00000001800a9f30 f i libucrtd:stream.obj
 0001:000a8f50       ?detach@?$__crt_unique_heap_ptr@U__crt_stdio_stream_data@@U__crt_internal_free_policy@@@@QEAAPEAU__crt_stdio_stream_data@@XZ 00000001800a9f50 f i libucrtd:stream.obj
 0001:000a9130       ?lock@__crt_stdio_stream@@QEBAXXZ 00000001800aa130 f i libucrtd:stream.obj
 0001:000a9150       ?release@?$__crt_unique_heap_ptr@U__crt_stdio_stream_data@@U__crt_internal_free_policy@@@@QEAAXXZ 00000001800aa150 f i libucrtd:stream.obj
 0001:000a9180       ?try_allocate@__crt_stdio_stream@@QEAA_NXZ 00000001800aa180 f i libucrtd:stream.obj
 0001:000a91f0       ?unlock@__crt_stdio_stream@@QEBAXXZ 00000001800aa1f0 f i libucrtd:stream.obj
 0001:000a9210       __acrt_LCMapStringW        00000001800aa210 f   libucrtd:lcmapstringw.obj
 0001:000a9410       __dcrt_lowio_ensure_console_output_initialized 00000001800aa410 f   libucrtd:initcon.obj
 0001:000a9440       __dcrt_terminate_console_output 00000001800aa440 f   libucrtd:initcon.obj
 0001:000a9470       __dcrt_write_console       00000001800aa470 f   libucrtd:initcon.obj
 0001:000a94b0       _clrfp                     00000001800aa4b0 f   libucrtd:fpctrl.obj
 0001:000a94d0       _ctrlfp                    00000001800aa4d0 f   libucrtd:fpctrl.obj
 0001:000a9550       _get_fpcsr                 00000001800aa550 f   libucrtd:fpctrl.obj
 0001:000a9560       _get_fpsr                  00000001800aa560 f i libucrtd:fpctrl.obj
 0001:000a9570       _set_fpcsr                 00000001800aa570 f   libucrtd:fpctrl.obj
 0001:000a9580       _set_fpsr                  00000001800aa580 f i libucrtd:fpctrl.obj
 0001:000a9590       _set_statfp                00000001800aa590 f   libucrtd:fpctrl.obj
 0001:000a95b0       _statfp                    00000001800aa5b0 f   libucrtd:fpctrl.obj
 0001:000a9670       ?should_round_up@__crt_strtox@@YA_N_N000@Z 00000001800aa670 f i libucrtd:fpexcept.obj
 0001:000a9730       _errcode                   00000001800aa730 f   libucrtd:fpexcept.obj
 0001:000a9770       _except1                   00000001800aa770 f   libucrtd:fpexcept.obj
 0001:000a98f0       _except2                   00000001800aa8f0 f   libucrtd:fpexcept.obj
 0001:000a9aa0       _fperrraise                00000001800aaaa0 f   libucrtd:fpexcept.obj
 0001:000a9bb0       _handle_exc                00000001800aabb0 f   libucrtd:fpexcept.obj
 0001:000a9f70       _handle_qnan2              00000001800aaf70 f   libucrtd:fpexcept.obj
 0001:000a9f80       _raise_exc                 00000001800aaf80 f   libucrtd:fpexcept.obj
 0001:000a9fb0       _raise_exc_ex              00000001800aafb0 f   libucrtd:fpexcept.obj
 0001:000aa2c0       _raise_excf                00000001800ab2c0 f   libucrtd:fpexcept.obj
 0001:000aa2f0       _set_errno_from_matherr    00000001800ab2f0 f   libucrtd:fpexcept.obj
 0001:000aa330       _umatherr                  00000001800ab330 f   libucrtd:fpexcept.obj
 0001:000aa490       ??_4@YAAEAW4__acrt_fenv_abstract_status@@AEAW40@W40@@Z 00000001800ab490 f i libucrtd:fegetexceptflag.obj
 0001:000aa4a0       fegetexceptflag            00000001800ab4a0 f   libucrtd:fegetexceptflag.obj
 0001:000aa4f0       ??S@YA?AW4__acrt_fenv_abstract_status@@W40@@Z 00000001800ab4f0 f i libucrtd:fesetexceptflag.obj
 0001:000aa500       fesetexceptflag            00000001800ab500 f   libucrtd:fesetexceptflag.obj
 0001:000aa580       _decomp                    00000001800ab580 f i libucrtd:frexp.obj
 0001:000aa680       _set_exp                   00000001800ab680 f i libucrtd:frexp.obj
 0001:000aa6b0       _sptype                    00000001800ab6b0 f i libucrtd:frexp.obj
 0001:000aa740       frexp                      00000001800ab740 f   libucrtd:frexp.obj
 0001:000aa980       fetestexcept               00000001800ab980 f   libucrtd:fetestexcept.obj
 0001:000aa9b0       _FindPESection             00000001800ab9b0 f   LIBCMTD:pesect.obj
 0001:000aaa60       _IsNonwritableInCurrentImage 00000001800aba60 f   LIBCMTD:pesect.obj
 0001:000aaaf0       _ValidateImageBase         00000001800abaf0 f   LIBCMTD:pesect.obj
 0001:000aab70       ??1type_info@@UEAA@XZ      00000001800abb70 f   LIBCMTD:std_type_info_static.obj
 0001:000aab90       ??_Etype_info@@UEAAPEAXI@Z 00000001800abb90 f i LIBCMTD:std_type_info_static.obj
 0001:000aab90       ??_Gtype_info@@UEAAPEAXI@Z 00000001800abb90 f i LIBCMTD:std_type_info_static.obj
 0001:000aabd0       ??3@YAXPEAX_K@Z            00000001800abbd0 f   LIBCMTD:delete_scalar_size.obj
 0001:000aabf0       __GSHandlerCheck_SEH       00000001800abbf0 f   LIBCMTD:gshandlerseh.obj
 0001:000aacb0       __GSHandlerCheck_EH        00000001800abcb0 f   LIBCMTD:gshandlereh.obj
 0001:000aad70       __chkstk                   00000001800abd70 f   LIBCMTD:chkstk.obj
 0001:000aad70       _alloca_probe              00000001800abd70 f   LIBCMTD:chkstk.obj
 0001:000aadc0       ??3@YAXPEAX@Z              00000001800abdc0 f   LIBCMTD:delete_scalar.obj
 0001:000aadde       RtlUnwindEx                00000001800abdde f   kernel32:KERNEL32.dll
 0001:000aade4       InterlockedPushEntrySList  00000001800abde4 f   kernel32:KERNEL32.dll
 0001:000aadea       InterlockedFlushSList      00000001800abdea f   kernel32:KERNEL32.dll
 0001:000aadf0       GetLastError               00000001800abdf0 f   kernel32:KERNEL32.dll
 0001:000aadf6       SetLastError               00000001800abdf6 f   kernel32:KERNEL32.dll
 0001:000aadfc       EnterCriticalSection       00000001800abdfc f   kernel32:KERNEL32.dll
 0001:000aae02       LeaveCriticalSection       00000001800abe02 f   kernel32:KERNEL32.dll
 0001:000aae08       DeleteCriticalSection      00000001800abe08 f   kernel32:KERNEL32.dll
 0001:000aae0e       InitializeCriticalSectionAndSpinCount 00000001800abe0e f   kernel32:KERNEL32.dll
 0001:000aae14       TlsAlloc                   00000001800abe14 f   kernel32:KERNEL32.dll
 0001:000aae1a       TlsGetValue                00000001800abe1a f   kernel32:KERNEL32.dll
 0001:000aae20       TlsSetValue                00000001800abe20 f   kernel32:KERNEL32.dll
 0001:000aae26       TlsFree                    00000001800abe26 f   kernel32:KERNEL32.dll
 0001:000aae2c       FreeLibrary                00000001800abe2c f   kernel32:KERNEL32.dll
 0001:000aae32       GetProcAddress             00000001800abe32 f   kernel32:KERNEL32.dll
 0001:000aae38       LoadLibraryExW             00000001800abe38 f   kernel32:KERNEL32.dll
 0001:000aae3e       EncodePointer              00000001800abe3e f   kernel32:KERNEL32.dll
 0001:000aae44       RaiseException             00000001800abe44 f   kernel32:KERNEL32.dll
 0001:000aae4a       RtlPcToFileHeader          00000001800abe4a f   kernel32:KERNEL32.dll
 0001:000aae50       ExitProcess                00000001800abe50 f   kernel32:KERNEL32.dll
 0001:000aae56       GetModuleHandleExW         00000001800abe56 f   kernel32:KERNEL32.dll
 0001:000aae5c       GetModuleFileNameW         00000001800abe5c f   kernel32:KERNEL32.dll
 0001:000aae62       HeapAlloc                  00000001800abe62 f   kernel32:KERNEL32.dll
 0001:000aae68       HeapSize                   00000001800abe68 f   kernel32:KERNEL32.dll
 0001:000aae6e       HeapValidate               00000001800abe6e f   kernel32:KERNEL32.dll
 0001:000aae74       GetSystemInfo              00000001800abe74 f   kernel32:KERNEL32.dll
 0001:000aae7a       GetCurrentThread           00000001800abe7a f   kernel32:KERNEL32.dll
 0001:000aae80       FindClose                  00000001800abe80 f   kernel32:KERNEL32.dll
 0001:000aae86       FindFirstFileExW           00000001800abe86 f   kernel32:KERNEL32.dll
 0001:000aae8c       FindNextFileW              00000001800abe8c f   kernel32:KERNEL32.dll
 0001:000aae92       IsValidCodePage            00000001800abe92 f   kernel32:KERNEL32.dll
 0001:000aae98       GetACP                     00000001800abe98 f   kernel32:KERNEL32.dll
 0001:000aae9e       GetOEMCP                   00000001800abe9e f   kernel32:KERNEL32.dll
 0001:000aaea4       GetCPInfo                  00000001800abea4 f   kernel32:KERNEL32.dll
 0001:000aaeaa       GetCommandLineA            00000001800abeaa f   kernel32:KERNEL32.dll
 0001:000aaeb0       GetCommandLineW            00000001800abeb0 f   kernel32:KERNEL32.dll
 0001:000aaeb6       MultiByteToWideChar        00000001800abeb6 f   kernel32:KERNEL32.dll
 0001:000aaebc       WideCharToMultiByte        00000001800abebc f   kernel32:KERNEL32.dll
 0001:000aaec2       GetEnvironmentStringsW     00000001800abec2 f   kernel32:KERNEL32.dll
 0001:000aaec8       FreeEnvironmentStringsW    00000001800abec8 f   kernel32:KERNEL32.dll
 0001:000aaece       SetEnvironmentVariableW    00000001800abece f   kernel32:KERNEL32.dll
 0001:000aaed4       GetTempPathW               00000001800abed4 f   kernel32:KERNEL32.dll
 0001:000aaeda       FlsAlloc                   00000001800abeda f   kernel32:KERNEL32.dll
 0001:000aaee0       FlsGetValue                00000001800abee0 f   kernel32:KERNEL32.dll
 0001:000aaee6       FlsSetValue                00000001800abee6 f   kernel32:KERNEL32.dll
 0001:000aaeec       FlsFree                    00000001800abeec f   kernel32:KERNEL32.dll
 0001:000aaef2       IsThreadAFiber             00000001800abef2 f   kernel32:KERNEL32.dll
 0001:000aaef8       InitializeCriticalSectionEx 00000001800abef8 f   kernel32:KERNEL32.dll
 0001:000aaefe       VirtualProtect             00000001800abefe f   kernel32:KERNEL32.dll
 0001:000aaf04       GetDateFormatW             00000001800abf04 f   kernel32:KERNEL32.dll
 0001:000aaf0a       GetTimeFormatW             00000001800abf0a f   kernel32:KERNEL32.dll
 0001:000aaf10       CompareStringW             00000001800abf10 f   kernel32:KERNEL32.dll
 0001:000aaf16       LCMapStringW               00000001800abf16 f   kernel32:KERNEL32.dll
 0001:000aaf1c       GetLocaleInfoW             00000001800abf1c f   kernel32:KERNEL32.dll
 0001:000aaf22       IsValidLocale              00000001800abf22 f   kernel32:KERNEL32.dll
 0001:000aaf28       GetUserDefaultLCID         00000001800abf28 f   kernel32:KERNEL32.dll
 0001:000aaf2e       EnumSystemLocalesW         00000001800abf2e f   kernel32:KERNEL32.dll
 0001:000aaf34       GetProcessHeap             00000001800abf34 f   kernel32:KERNEL32.dll
 0001:000aaf3a       GetStdHandle               00000001800abf3a f   kernel32:KERNEL32.dll
 0001:000aaf40       GetFileType                00000001800abf40 f   kernel32:KERNEL32.dll
 0001:000aaf46       SetConsoleCtrlHandler      00000001800abf46 f   kernel32:KERNEL32.dll
 0001:000aaf4c       HeapFree                   00000001800abf4c f   kernel32:KERNEL32.dll
 0001:000aaf52       HeapReAlloc                00000001800abf52 f   kernel32:KERNEL32.dll
 0001:000aaf58       HeapQueryInformation       00000001800abf58 f   kernel32:KERNEL32.dll
 0001:000aaf5e       WriteFile                  00000001800abf5e f   kernel32:KERNEL32.dll
 0001:000aaf64       OutputDebugStringW         00000001800abf64 f   kernel32:KERNEL32.dll
 0001:000aaf6a       WriteConsoleW              00000001800abf6a f   kernel32:KERNEL32.dll
 0001:000aaf70       GetStringTypeW             00000001800abf70 f   kernel32:KERNEL32.dll
 0001:000aaf76       SetStdHandle               00000001800abf76 f   kernel32:KERNEL32.dll
 0001:000aaf7c       GetFileSizeEx              00000001800abf7c f   kernel32:KERNEL32.dll
 0001:000aaf82       SetFilePointerEx           00000001800abf82 f   kernel32:KERNEL32.dll
 0001:000aaf88       FlushFileBuffers           00000001800abf88 f   kernel32:KERNEL32.dll
 0001:000aaf8e       GetConsoleOutputCP         00000001800abf8e f   kernel32:KERNEL32.dll
 0001:000aaf94       GetConsoleMode             00000001800abf94 f   kernel32:KERNEL32.dll
 0001:000aaf9a       ReadFile                   00000001800abf9a f   kernel32:KERNEL32.dll
 0001:000aafa0       ReadConsoleW               00000001800abfa0 f   kernel32:KERNEL32.dll
 0001:000aafa6       CloseHandle                00000001800abfa6 f   kernel32:KERNEL32.dll
 0001:000aafac       CreateFileW                00000001800abfac f   kernel32:KERNEL32.dll
 0001:000aafc0       __C_specific_handler_noexcept 00000001800abfc0 f   libvcruntimed:chandler_noexcept.obj
 0001:000ab050       strchr                     00000001800ac050 f   libvcruntimed:strchr.obj
 0001:000ab1e0       wcschr                     00000001800ac1e0 f   libvcruntimed:wcschr.obj
 0001:000ab330       strrchr                    00000001800ac330 f   libvcruntimed:strrchr.obj
 0001:000ab760       _local_unwind              00000001800ac760 f   libvcruntimed:jmpuwind.obj
 0001:000ab78a       RtlUnwind                  00000001800ac78a f   kernel32:KERNEL32.dll
 0001:000ab7a0       _guard_dispatch_icall_nop  00000001800ac7a0 f   LIBCMTD:guard_dispatch.obj
 0001:000ab7c0       _guard_xfg_dispatch_icall_nop 00000001800ac7c0 f   LIBCMTD:guard_xfg_dispatch.obj
 0001:000ab7e0       _guard_dispatch_icall      00000001800ac7e0 f   libucrtd:dispatchcfg.obj
 0001:000ab7e0       _guard_dispatch_icall_$fo_default$ 00000001800ac7e0     libucrtd:dispatchcfg.obj
 0001:000ab810       memcpy_repmovs             00000001800ac810 f   libvcruntimed:memcpy.obj
 0001:000ab820       memcpy                     00000001800ac820 f   libvcruntimed:memcpy.obj
 0001:000ab820       memcpy_$fo_default$        00000001800ac820     libvcruntimed:memcpy.obj
 0001:000ab820       memmove                    00000001800ac820 f   libvcruntimed:memcpy.obj
 0001:000abeb0       memset_repstos             00000001800aceb0 f   libvcruntimed:memset.obj
 0001:000abec0       memset                     00000001800acec0 f   libvcruntimed:memset.obj
 0001:000ac260       strcmp                     00000001800ad260 f   libucrtd:strcmp.obj
 0001:000ac2e0       strlen                     00000001800ad2e0 f   libucrtd:strlen.obj
 0001:000ac3a0       strncmp                    00000001800ad3a0 f   libucrtd:strncmp.obj
 0001:000ac430       memcmp                     00000001800ad430 f   libvcruntimed:memcmp.obj
 0002:00000000       __imp_QueryPerformanceCounter 00000001800af000     kernel32:KERNEL32.dll
 0002:00000008       __imp_GetCurrentProcessId  00000001800af008     kernel32:KERNEL32.dll
 0002:00000010       __imp_GetCurrentThreadId   00000001800af010     kernel32:KERNEL32.dll
 0002:00000018       __imp_GetSystemTimeAsFileTime 00000001800af018     kernel32:KERNEL32.dll
 0002:00000020       __imp_InitializeSListHead  00000001800af020     kernel32:KERNEL32.dll
 0002:00000028       __imp_RtlCaptureContext    00000001800af028     kernel32:KERNEL32.dll
 0002:00000030       __imp_RtlLookupFunctionEntry 00000001800af030     kernel32:KERNEL32.dll
 0002:00000038       __imp_RtlVirtualUnwind     00000001800af038     kernel32:KERNEL32.dll
 0002:00000040       __imp_IsDebuggerPresent    00000001800af040     kernel32:KERNEL32.dll
 0002:00000048       __imp_UnhandledExceptionFilter 00000001800af048     kernel32:KERNEL32.dll
 0002:00000050       __imp_SetUnhandledExceptionFilter 00000001800af050     kernel32:KERNEL32.dll
 0002:00000058       __imp_GetStartupInfoW      00000001800af058     kernel32:KERNEL32.dll
 0002:00000060       __imp_IsProcessorFeaturePresent 00000001800af060     kernel32:KERNEL32.dll
 0002:00000068       __imp_GetModuleHandleW     00000001800af068     kernel32:KERNEL32.dll
 0002:00000070       __imp_GetCurrentProcess    00000001800af070     kernel32:KERNEL32.dll
 0002:00000078       __imp_TerminateProcess     00000001800af078     kernel32:KERNEL32.dll
 0002:00000080       __imp_CreateFileW          00000001800af080     kernel32:KERNEL32.dll
 0002:00000088       __imp_RtlUnwindEx          00000001800af088     kernel32:KERNEL32.dll
 0002:00000090       __imp_InterlockedPushEntrySList 00000001800af090     kernel32:KERNEL32.dll
 0002:00000098       __imp_InterlockedFlushSList 00000001800af098     kernel32:KERNEL32.dll
 0002:000000a0       __imp_GetLastError         00000001800af0a0     kernel32:KERNEL32.dll
 0002:000000a8       __imp_SetLastError         00000001800af0a8     kernel32:KERNEL32.dll
 0002:000000b0       __imp_EnterCriticalSection 00000001800af0b0     kernel32:KERNEL32.dll
 0002:000000b8       __imp_LeaveCriticalSection 00000001800af0b8     kernel32:KERNEL32.dll
 0002:000000c0       __imp_DeleteCriticalSection 00000001800af0c0     kernel32:KERNEL32.dll
 0002:000000c8       __imp_InitializeCriticalSectionAndSpinCount 00000001800af0c8     kernel32:KERNEL32.dll
 0002:000000d0       __imp_TlsAlloc             00000001800af0d0     kernel32:KERNEL32.dll
 0002:000000d8       __imp_TlsGetValue          00000001800af0d8     kernel32:KERNEL32.dll
 0002:000000e0       __imp_TlsSetValue          00000001800af0e0     kernel32:KERNEL32.dll
 0002:000000e8       __imp_TlsFree              00000001800af0e8     kernel32:KERNEL32.dll
 0002:000000f0       __imp_FreeLibrary          00000001800af0f0     kernel32:KERNEL32.dll
 0002:000000f8       __imp_GetProcAddress       00000001800af0f8     kernel32:KERNEL32.dll
 0002:00000100       __imp_LoadLibraryExW       00000001800af100     kernel32:KERNEL32.dll
 0002:00000108       __imp_EncodePointer        00000001800af108     kernel32:KERNEL32.dll
 0002:00000110       __imp_RaiseException       00000001800af110     kernel32:KERNEL32.dll
 0002:00000118       __imp_RtlPcToFileHeader    00000001800af118     kernel32:KERNEL32.dll
 0002:00000120       __imp_ExitProcess          00000001800af120     kernel32:KERNEL32.dll
 0002:00000128       __imp_GetModuleHandleExW   00000001800af128     kernel32:KERNEL32.dll
 0002:00000130       __imp_GetModuleFileNameW   00000001800af130     kernel32:KERNEL32.dll
 0002:00000138       __imp_HeapAlloc            00000001800af138     kernel32:KERNEL32.dll
 0002:00000140       __imp_HeapSize             00000001800af140     kernel32:KERNEL32.dll
 0002:00000148       __imp_HeapValidate         00000001800af148     kernel32:KERNEL32.dll
 0002:00000150       __imp_GetSystemInfo        00000001800af150     kernel32:KERNEL32.dll
 0002:00000158       __imp_GetCurrentThread     00000001800af158     kernel32:KERNEL32.dll
 0002:00000160       __imp_FindClose            00000001800af160     kernel32:KERNEL32.dll
 0002:00000168       __imp_FindFirstFileExW     00000001800af168     kernel32:KERNEL32.dll
 0002:00000170       __imp_FindNextFileW        00000001800af170     kernel32:KERNEL32.dll
 0002:00000178       __imp_IsValidCodePage      00000001800af178     kernel32:KERNEL32.dll
 0002:00000180       __imp_GetACP               00000001800af180     kernel32:KERNEL32.dll
 0002:00000188       __imp_GetOEMCP             00000001800af188     kernel32:KERNEL32.dll
 0002:00000190       __imp_GetCPInfo            00000001800af190     kernel32:KERNEL32.dll
 0002:00000198       __imp_GetCommandLineA      00000001800af198     kernel32:KERNEL32.dll
 0002:000001a0       __imp_GetCommandLineW      00000001800af1a0     kernel32:KERNEL32.dll
 0002:000001a8       __imp_MultiByteToWideChar  00000001800af1a8     kernel32:KERNEL32.dll
 0002:000001b0       __imp_WideCharToMultiByte  00000001800af1b0     kernel32:KERNEL32.dll
 0002:000001b8       __imp_GetEnvironmentStringsW 00000001800af1b8     kernel32:KERNEL32.dll
 0002:000001c0       __imp_FreeEnvironmentStringsW 00000001800af1c0     kernel32:KERNEL32.dll
 0002:000001c8       __imp_SetEnvironmentVariableW 00000001800af1c8     kernel32:KERNEL32.dll
 0002:000001d0       __imp_GetTempPathW         00000001800af1d0     kernel32:KERNEL32.dll
 0002:000001d8       __imp_FlsAlloc             00000001800af1d8     kernel32:KERNEL32.dll
 0002:000001e0       __imp_FlsGetValue          00000001800af1e0     kernel32:KERNEL32.dll
 0002:000001e8       __imp_FlsSetValue          00000001800af1e8     kernel32:KERNEL32.dll
 0002:000001f0       __imp_FlsFree              00000001800af1f0     kernel32:KERNEL32.dll
 0002:000001f8       __imp_IsThreadAFiber       00000001800af1f8     kernel32:KERNEL32.dll
 0002:00000200       __imp_InitializeCriticalSectionEx 00000001800af200     kernel32:KERNEL32.dll
 0002:00000208       __imp_VirtualProtect       00000001800af208     kernel32:KERNEL32.dll
 0002:00000210       __imp_GetDateFormatW       00000001800af210     kernel32:KERNEL32.dll
 0002:00000218       __imp_GetTimeFormatW       00000001800af218     kernel32:KERNEL32.dll
 0002:00000220       __imp_CompareStringW       00000001800af220     kernel32:KERNEL32.dll
 0002:00000228       __imp_LCMapStringW         00000001800af228     kernel32:KERNEL32.dll
 0002:00000230       __imp_GetLocaleInfoW       00000001800af230     kernel32:KERNEL32.dll
 0002:00000238       __imp_IsValidLocale        00000001800af238     kernel32:KERNEL32.dll
 0002:00000240       __imp_GetUserDefaultLCID   00000001800af240     kernel32:KERNEL32.dll
 0002:00000248       __imp_EnumSystemLocalesW   00000001800af248     kernel32:KERNEL32.dll
 0002:00000250       __imp_GetProcessHeap       00000001800af250     kernel32:KERNEL32.dll
 0002:00000258       __imp_GetStdHandle         00000001800af258     kernel32:KERNEL32.dll
 0002:00000260       __imp_GetFileType          00000001800af260     kernel32:KERNEL32.dll
 0002:00000268       __imp_SetConsoleCtrlHandler 00000001800af268     kernel32:KERNEL32.dll
 0002:00000270       __imp_HeapFree             00000001800af270     kernel32:KERNEL32.dll
 0002:00000278       __imp_HeapReAlloc          00000001800af278     kernel32:KERNEL32.dll
 0002:00000280       __imp_HeapQueryInformation 00000001800af280     kernel32:KERNEL32.dll
 0002:00000288       __imp_WriteFile            00000001800af288     kernel32:KERNEL32.dll
 0002:00000290       __imp_OutputDebugStringW   00000001800af290     kernel32:KERNEL32.dll
 0002:00000298       __imp_WriteConsoleW        00000001800af298     kernel32:KERNEL32.dll
 0002:000002a0       __imp_GetStringTypeW       00000001800af2a0     kernel32:KERNEL32.dll
 0002:000002a8       __imp_SetStdHandle         00000001800af2a8     kernel32:KERNEL32.dll
 0002:000002b0       __imp_GetFileSizeEx        00000001800af2b0     kernel32:KERNEL32.dll
 0002:000002b8       __imp_SetFilePointerEx     00000001800af2b8     kernel32:KERNEL32.dll
 0002:000002c0       __imp_FlushFileBuffers     00000001800af2c0     kernel32:KERNEL32.dll
 0002:000002c8       __imp_GetConsoleOutputCP   00000001800af2c8     kernel32:KERNEL32.dll
 0002:000002d0       __imp_GetConsoleMode       00000001800af2d0     kernel32:KERNEL32.dll
 0002:000002d8       __imp_ReadFile             00000001800af2d8     kernel32:KERNEL32.dll
 0002:000002e0       __imp_ReadConsoleW         00000001800af2e0     kernel32:KERNEL32.dll
 0002:000002e8       __imp_CloseHandle          00000001800af2e8     kernel32:KERNEL32.dll
 0002:000002f0       __imp_RtlUnwind            00000001800af2f0     kernel32:KERNEL32.dll
 0002:000002f8       \177KERNEL32_NULL_THUNK_DATA 00000001800af2f8     kernel32:KERNEL32.dll
 0002:00000300       __guard_check_icall_fptr   00000001800af300     LIBCMTD:guard_support.obj
 0002:00000308       __guard_xfg_check_icall_fptr 00000001800af308     LIBCMTD:guard_support.obj
 0002:00000310       __guard_dispatch_icall_fptr 00000001800af310     LIBCMTD:guard_support.obj
 0002:00000318       __guard_xfg_dispatch_icall_fptr 00000001800af318     LIBCMTD:guard_support.obj
 0002:00000320       __guard_xfg_table_dispatch_icall_fptr 00000001800af320     LIBCMTD:guard_support.obj
 0002:00000328       __castguard_check_failure_os_handled_fptr 00000001800af328     LIBCMTD:guard_support.obj
 0002:00000330       __guard_memcpy_fptr        00000001800af330     libvcruntimed:softmemtag.obj
 0002:00000338       __xc_a                     00000001800af338     LIBCMTD:initializers.obj
 0002:00000340       __xc_z                     00000001800af340     LIBCMTD:initializers.obj
 0002:00000348       __xi_a                     00000001800af348     LIBCMTD:initializers.obj
 0002:00000350       __acrt_multibyte_initializer 00000001800af350     libucrtd:multibyte_initializer.obj
 0002:00000358       __acrt_stdio_initializer   00000001800af358     libucrtd:stdio_initializer.obj
 0002:00000360       __acrt_tran_fma3_initializer 00000001800af360     libucrtd:fma3_initializer.obj
 0002:00000368       __xi_z                     00000001800af368     LIBCMTD:initializers.obj
 0002:00000370       __xp_a                     00000001800af370     LIBCMTD:initializers.obj
 0002:00000378       __acrt_locale_terminator   00000001800af378     libucrtd:locale_initializer.obj
 0002:00000380       __dcrt_console_output_terminator 00000001800af380     libucrtd:console_output_initializer.obj
 0002:00000388       __acrt_stdio_terminator    00000001800af388     libucrtd:stdio_initializer.obj
 0002:00000390       __xp_z                     00000001800af390     LIBCMTD:initializers.obj
 0002:00000398       __xt_a                     00000001800af398     LIBCMTD:initializers.obj
 0002:000003a0       __xt_z                     00000001800af3a0     LIBCMTD:initializers.obj
 0002:000003b0       _pDefaultRawDllMain        00000001800af3b0     LIBCMTD:dll_dllmain.obj
 0002:000003b0       _pRawDllMain               00000001800af3b0     LIBCMTD:dll_dllmain.obj
 0002:000003d0       ??_C@_0EC@CDJPIOJK@D?3?2a?2_work?21?2s?2src?2vctools?2crt?2@ 00000001800af3d0     libvcruntimed:std_type_info.obj
 0002:00000418       _pDestructExceptionObject  00000001800af418     libvcruntimed:ehhelpers.obj
 0002:00000b30       ??_C@_08EHJDFFNH@__based?$CI@ 00000001800afb30     libvcruntimed:undname.obj
 0002:00000b40       ??_C@_07KOLFKCDI@__cdecl@  00000001800afb40     libvcruntimed:undname.obj
 0002:00000b48       ??_C@_09IFJBGAPI@__stdcall@ 00000001800afb48     libvcruntimed:undname.obj
 0002:00000b58       ??_C@_0L@NPHFGOKO@__thiscall@ 00000001800afb58     libvcruntimed:undname.obj
 0002:00000b68       ??_C@_0L@JMKHOMEK@__fastcall@ 00000001800afb68     libvcruntimed:undname.obj
 0002:00000b78       ??_C@_0N@BCKKPABJ@__vectorcall@ 00000001800afb78     libvcruntimed:undname.obj
 0002:00000b88       ??_C@_0BA@NAGGFLJK@__preserve_none@ 00000001800afb88     libvcruntimed:undname.obj
 0002:00000b98       ??_C@_09HIJEGCPM@__clrcall@ 00000001800afb98     libvcruntimed:undname.obj
 0002:00000ba4       ??_C@_06GHPCKEAG@__eabi@   00000001800afba4     libvcruntimed:undname.obj
 0002:00000bb0       ??_C@_09IOPIDJLG@__swift_1@ 00000001800afbb0     libvcruntimed:undname.obj
 0002:00000bc0       ??_C@_09KFNFGKHF@__swift_2@ 00000001800afbc0     libvcruntimed:undname.obj
 0002:00000bd0       ??_C@_09LMMOFLDE@__swift_3@ 00000001800afbd0     libvcruntimed:undname.obj
 0002:00000be0       ??_C@_07JOMMBBKO@__ptr64@  00000001800afbe0     libvcruntimed:undname.obj
 0002:00000be8       ??_C@_0L@PILCLIHE@__restrict@ 00000001800afbe8     libvcruntimed:undname.obj
 0002:00000bf8       ??_C@_0M@GFIIJFMG@__unaligned@ 00000001800afbf8     libvcruntimed:undname.obj
 0002:00000c08       ??_C@_09DHDLOLLB@restrict?$CI@ 00000001800afc08     libvcruntimed:undname.obj
 0002:00000c12       ??_C@_00CNPNBAHC@@         00000001800afc12     libvcruntimed:undname.obj
 0002:00000c14       ??_C@_04NIHEBCM@?5new@     00000001800afc14     libvcruntimed:undname.obj
 0002:00000c20       ??_C@_07FPCDHGMM@?5delete@ 00000001800afc20     libvcruntimed:undname.obj
 0002:00000c28       ??_C@_01NEMOKFLO@?$DN@     00000001800afc28     libvcruntimed:undname.obj
 0002:00000c2c       ??_C@_02GPIOPFAK@?$DO?$DO@ 00000001800afc2c     libvcruntimed:undname.obj
 0002:00000c30       ??_C@_02FODMEDOG@?$DM?$DM@ 00000001800afc30     libvcruntimed:undname.obj
 0002:00000c34       ??_C@_01DCLJPIOD@?$CB@     00000001800afc34     libvcruntimed:undname.obj
 0002:00000c38       ??_C@_02EGOFBIJA@?$DN?$DN@ 00000001800afc38     libvcruntimed:undname.obj
 0002:00000c3c       ??_C@_02FDNJECIE@?$CB?$DN@ 00000001800afc3c     libvcruntimed:undname.obj
 0002:00000c40       ??_C@_02GPECMEKF@?$FL?$FN@ 00000001800afc40     libvcruntimed:undname.obj
 0002:00000c48       ??_C@_08LHJFAFGD@operator@ 00000001800afc48     libvcruntimed:undname.obj
 0002:00000c54       ??_C@_02HBOOOICD@?9?$DO@   00000001800afc54     libvcruntimed:undname.obj
 0002:00000c58       ??_C@_01NBENCBCI@?$CK@     00000001800afc58     libvcruntimed:undname.obj
 0002:00000c5c       ??_C@_02ECNGHCIF@?$CL?$CL@ 00000001800afc5c     libvcruntimed:undname.obj
 0002:00000c60       ??_C@_02BAABKJLB@?9?9@     00000001800afc60     libvcruntimed:undname.obj
 0002:00000c64       ??_C@_01JOAMLHOP@?9@       00000001800afc64     libvcruntimed:undname.obj
 0002:00000c68       ??_C@_01MIFGBAGJ@?$CL@     00000001800afc68     libvcruntimed:undname.obj
 0002:00000c6c       ??_C@_01HNPIGOCE@?$CG@     00000001800afc6c     libvcruntimed:undname.obj
 0002:00000c70       ??_C@_03MNHNFDLC@?9?$DO?$CK@ 00000001800afc70     libvcruntimed:undname.obj
 0002:00000c74       ??_C@_01KMDKNFGN@?1@       00000001800afc74     libvcruntimed:undname.obj
 0002:00000c78       ??_C@_01FGNFDNOH@?$CF@     00000001800afc78     libvcruntimed:undname.obj
 0002:00000c7c       ??_C@_01MNNFJEPP@?$DM@     00000001800afc7c     libvcruntimed:undname.obj
 0002:00000c80       ??_C@_02EHCHHCKH@?$DM?$DN@ 00000001800afc80     libvcruntimed:undname.obj
 0002:00000c84       ??_C@_01PPODPGHN@?$DO@     00000001800afc84     libvcruntimed:undname.obj
 0002:00000c88       ??_C@_02EEKDKGMJ@?$DO?$DN@ 00000001800afc88     libvcruntimed:undname.obj
 0002:00000c8c       ??_C@_01IHBHIGKO@?0@       00000001800afc8c     libvcruntimed:undname.obj
 0002:00000c90       ??_C@_02HCKGKOFO@?$CI?$CJ@ 00000001800afc90     libvcruntimed:undname.obj
 0002:00000c94       ??_C@_01PJKLJHI@?$HO@      00000001800afc94     libvcruntimed:undname.obj
 0002:00000c98       ??_C@_01JKBOJNNK@?$FO@     00000001800afc98     libvcruntimed:undname.obj
 0002:00000c9c       ??_C@_01DNKMNLPK@?$HM@     00000001800afc9c     libvcruntimed:undname.obj
 0002:00000ca0       ??_C@_02PPKAJPJL@?$CG?$CG@ 00000001800afca0     libvcruntimed:undname.obj
 0002:00000ca4       ??_C@_02NONPIBCD@?$HM?$HM@ 00000001800afca4     libvcruntimed:undname.obj
 0002:00000ca8       ??_C@_02FPIMKNGF@?$CK?$DN@ 00000001800afca8     libvcruntimed:undname.obj
 0002:00000cac       ??_C@_02FOEOMHFC@?$CL?$DN@ 00000001800afcac     libvcruntimed:undname.obj
 0002:00000cb0       ??_C@_02FKMDLLOA@?9?$DN@   00000001800afcb0     libvcruntimed:undname.obj
 0002:00000cb4       ??_C@_02FJEHGPIO@?1?$DN@   00000001800afcb4     libvcruntimed:undname.obj
 0002:00000cb8       ??_C@_02FENAOKFI@?$CF?$DN@ 00000001800afcb8     libvcruntimed:undname.obj
 0002:00000cbc       ??_C@_03IKFCCPFF@?$DO?$DO?$DN@ 00000001800afcbc     libvcruntimed:undname.obj
 0002:00000cc0       ??_C@_03CDNPDDLA@?$DM?$DM?$DN@ 00000001800afcc0     libvcruntimed:undname.obj
 0002:00000cc4       ??_C@_02FGJGFEAB@?$CG?$DN@ 00000001800afcc4     libvcruntimed:undname.obj
 0002:00000cc8       ??_C@_02DHLNPPGH@?$HM?$DN@ 00000001800afcc8     libvcruntimed:undname.obj
 0002:00000ccc       ??_C@_02MHEGNOJ@?$FO?$DN@  00000001800afccc     libvcruntimed:undname.obj
 0002:00000cd0       ??_C@_09IFPLHPGF@?$GAvftable?8@ 00000001800afcd0     libvcruntimed:undname.obj
 0002:00000ce0       ??_C@_09BLBHBJP@?$GAvbtable?8@ 00000001800afce0     libvcruntimed:undname.obj
 0002:00000cf0       ??_C@_07FEEIOKP@?$GAvcall?8@ 00000001800afcf0     libvcruntimed:undname.obj
 0002:00000cf8       ??_C@_08LLFFHHDJ@?$GAtypeof?8@ 00000001800afcf8     libvcruntimed:undname.obj
 0002:00000d08       ??_C@_0BF@KDPPACIK@?$GAlocal?5static?5guard?8@ 00000001800afd08     libvcruntimed:undname.obj
 0002:00000d20       ??_C@_08OBABFOLI@?$GAstring?8@ 00000001800afd20     libvcruntimed:undname.obj
 0002:00000d30       ??_C@_0BD@JDLKDPAB@?$GAvbase?5destructor?8@ 00000001800afd30     libvcruntimed:undname.obj
 0002:00000d48       ??_C@_0BN@DEGPLNFK@?$GAvector?5deleting?5destructor?8@ 00000001800afd48     libvcruntimed:undname.obj
 0002:00000d68       ??_C@_0BO@OBMKPJIG@?$GAdefault?5constructor?5closure?8@ 00000001800afd68     libvcruntimed:undname.obj
 0002:00000d88       ??_C@_0BN@IMDCHIKM@?$GAscalar?5deleting?5destructor?8@ 00000001800afd88     libvcruntimed:undname.obj
 0002:00000da8       ??_C@_0BO@PFGOCPJJ@?$GAvector?5constructor?5iterator?8@ 00000001800afda8     libvcruntimed:undname.obj
 0002:00000dc8       ??_C@_0BN@LFPFMEDL@?$GAvector?5destructor?5iterator?8@ 00000001800afdc8     libvcruntimed:undname.obj
 0002:00000de8       ??_C@_0CE@IKBNEHA@?$GAvector?5vbase?5constructor?5itera@ 00000001800afde8     libvcruntimed:undname.obj
 0002:00000e10       ??_C@_0BL@NILFHHPC@?$GAvirtual?5displacement?5map?8@ 00000001800afe10     libvcruntimed:undname.obj
 0002:00000e30       ??_C@_0CB@JONCMFFK@?$GAeh?5vector?5constructor?5iterator@ 00000001800afe30     libvcruntimed:undname.obj
 0002:00000e58       ??_C@_0CA@GCEOPDGL@?$GAeh?5vector?5destructor?5iterator?8@ 00000001800afe58     libvcruntimed:undname.obj
 0002:00000e78       ??_C@_0CH@OOJPLCPH@?$GAeh?5vector?5vbase?5constructor?5it@ 00000001800afe78     libvcruntimed:undname.obj
 0002:00000ea0       ??_C@_0BL@LLKPOHJI@?$GAcopy?5constructor?5closure?8@ 00000001800afea0     libvcruntimed:undname.obj
 0002:00000ec0       ??_C@_0BA@KBCDOMBN@?$GAudt?5returning?8@ 00000001800afec0     libvcruntimed:undname.obj
 0002:00000ed0       ??_C@_03KLGMFNMG@?$GAEH@   00000001800afed0     libvcruntimed:undname.obj
 0002:00000ed4       ??_C@_05KHLCHHI@?$GARTTI@  00000001800afed4     libvcruntimed:undname.obj
 0002:00000ee0       ??_C@_0BA@KKLDJDLB@?$GAlocal?5vftable?8@ 00000001800afee0     libvcruntimed:undname.obj
 0002:00000ef0       ??_C@_0CE@IIHCMGGL@?$GAlocal?5vftable?5constructor?5clos@ 00000001800afef0     libvcruntimed:undname.obj
 0002:00000f14       ??_C@_06FHBGPFGH@?5new?$FL?$FN@ 00000001800aff14     libvcruntimed:undname.obj
 0002:00000f20       ??_C@_09LBNFPBCA@?5delete?$FL?$FN@ 00000001800aff20     libvcruntimed:undname.obj
 0002:00000f30       ??_C@_0P@HJKNJFNN@?$GAomni?5callsig?8@ 00000001800aff30     libvcruntimed:undname.obj
 0002:00000f40       ??_C@_0BL@CNOONJFP@?$GAplacement?5delete?5closure?8@ 00000001800aff40     libvcruntimed:undname.obj
 0002:00000f60       ??_C@_0BN@CKNJLHMB@?$GAplacement?5delete?$FL?$FN?5closure?8@ 00000001800aff60     libvcruntimed:undname.obj
 0002:00000f80       ??_C@_0CG@CFDHKGGD@?$GAmanaged?5vector?5constructor?5ite@ 00000001800aff80     libvcruntimed:undname.obj
 0002:00000fa8       ??_C@_0CF@IMGKMJNO@?$GAmanaged?5vector?5destructor?5iter@ 00000001800affa8     libvcruntimed:undname.obj
 0002:00000fd0       ??_C@_0CG@HLDDJMAG@?$GAeh?5vector?5copy?5constructor?5ite@ 00000001800affd0     libvcruntimed:undname.obj
 0002:00000ff8       ??_C@_0CM@FCBBDIGB@?$GAeh?5vector?5vbase?5copy?5construct@ 00000001800afff8     libvcruntimed:undname.obj
 0002:00001028       ??_C@_0BL@CLIPGLGB@?$GAdynamic?5initializer?5for?5?8@ 00000001800b0028     libvcruntimed:undname.obj
 0002:00001048       ??_C@_0CB@PDBIFEP@?$GAdynamic?5atexit?5destructor?5for?5@ 00000001800b0048     libvcruntimed:undname.obj
 0002:00001070       ??_C@_0CD@CGAJBKEJ@?$GAvector?5copy?5constructor?5iterat@ 00000001800b0070     libvcruntimed:undname.obj
 0002:00001098       ??_C@_0CJ@GJELGAMM@?$GAvector?5vbase?5copy?5constructor?5@ 00000001800b0098     libvcruntimed:undname.obj
 0002:000010c8       ??_C@_0CL@FGIJHLCE@?$GAmanaged?5vector?5copy?5constructo@ 00000001800b00c8     libvcruntimed:undname.obj
 0002:000010f8       ??_C@_0BM@PMGGMLDN@?$GAlocal?5static?5thread?5guard?8@ 00000001800b00f8     libvcruntimed:undname.obj
 0002:00001118       ??_C@_0N@BDNMDMOL@operator?5?$CC?$CC?5@ 00000001800b0118     libvcruntimed:undname.obj
 0002:00001128       ??_C@_0BC@GGEBGALA@operator?5co_await@ 00000001800b0128     libvcruntimed:undname.obj
 0002:00001140       ??_C@_0M@GAAIMMOH@operator?$DM?$DN?$DO@ 00000001800b0140     libvcruntimed:undname.obj
 0002:00001150       ??_C@_0BC@DAFEJGAK@?5Type?5Descriptor?8@ 00000001800b0150     libvcruntimed:undname.obj
 0002:00001168       ??_C@_0BM@LDKODKLH@?5Base?5Class?5Descriptor?5at?5?$CI@ 00000001800b0168     libvcruntimed:undname.obj
 0002:00001188       ??_C@_0BD@LGICGFMM@?5Base?5Class?5Array?8@ 00000001800b0188     libvcruntimed:undname.obj
 0002:000011a0       ??_C@_0BN@MECKDCOJ@?5Class?5Hierarchy?5Descriptor?8@ 00000001800b01a0     libvcruntimed:undname.obj
 0002:000011c0       ??_C@_0BK@CFCOFLF@?5Complete?5Object?5Locator?8@ 00000001800b01c0     libvcruntimed:undname.obj
 0002:000011e0       ??_C@_0BG@JNJLAMPM@?$GAanonymous?5namespace?8@ 00000001800b01e0     libvcruntimed:undname.obj
 0002:000011f6       ?in_place@std@@3Uin_place_t@1@B 00000001800b01f6     libvcruntimed:undname.obj
 0002:000011f8       ??_C@_04HEJADOOB@CV?3?5@   00000001800b01f8     libvcruntimed:undname.obj
 0002:00001200       ??_C@_03GDILBHBJ@$$h@      00000001800b0200     libvcruntimed:undname.obj
 0002:00001204       ??_C@_02MOLJINC@?3?3@      00000001800b0204     libvcruntimed:undname.obj
 0002:00001208       ??_C@_0BE@JAEOCHPE@template?9parameter?9@ 00000001800b0208     libvcruntimed:undname.obj
 0002:00001220       ??_C@_0BF@LNLGBBNL@?$GAtemplate?9parameter?9@ 00000001800b0220     libvcruntimed:undname.obj
 0002:00001238       ??_C@_0O@KHGCOMHP@generic?9type?9@ 00000001800b0238     libvcruntimed:undname.obj
 0002:00001248       ??_C@_0P@ODDENDLM@?$GAgeneric?9type?9@ 00000001800b0248     libvcruntimed:undname.obj
 0002:00001258       ??_C@_02OHHJMEON@?8?8@     00000001800b0258     libvcruntimed:undname.obj
 0002:00001260       ??_C@_0BN@IBLMMFAP@?$GAnon?9type?9template?9parameter@ 00000001800b0260     libvcruntimed:undname.obj
 0002:00001280       ??_C@_03DLDNIBIK@?$CFlf@   00000001800b0280     libvcruntimed:undname.obj
 0002:00001284       ??_C@_04OFALKAJ@?$DP?$DP_C@ 00000001800b0284     libvcruntimed:undname.obj
 0002:0000128c       ??_C@_03KHICJKCI@?4?4?4@   00000001800b028c     libvcruntimed:undname.obj
 0002:00001290       ??_C@_04HIBGFPH@NULL@      00000001800b0290     libvcruntimed:undname.obj
 0002:00001298       ??_C@_02DPKJAMEF@?$CFd@    00000001800b0298     libvcruntimed:undname.obj
 0002:000012a0       ??_C@_0BK@IHCCFNEL@?$GAtemplate?9type?9parameter?9@ 00000001800b02a0     libvcruntimed:undname.obj
 0002:000012c0       ??_C@_0BK@OFCNNNKO@?$GAgeneric?9class?9parameter?9@ 00000001800b02c0     libvcruntimed:undname.obj
 0002:000012e0       ??_C@_0BL@NGJBLFIL@?$GAgeneric?9method?9parameter?9@ 00000001800b02e0     libvcruntimed:undname.obj
 0002:00001300       ??_C@_07OHNGEDJK@nullptr@  00000001800b0300     libvcruntimed:undname.obj
 0002:00001308       ??_C@_06COJIGPIB@lambda@   00000001800b0308     libvcruntimed:undname.obj
 0002:00001310       ??_C@_04GKJNKENE@void@     00000001800b0310     libvcruntimed:undname.obj
 0002:00001318       ??_C@_0BE@EODMJLIF@?$GAtemplate?9parameter@ 00000001800b0318     libvcruntimed:undname.obj
 0002:0000132c       ??_C@_03OPGICMGF@?$HN?8?5@ 00000001800b032c     libvcruntimed:undname.obj
 0002:00001330       ??_C@_02IGFCGPIL@?$HN?8@   00000001800b0330     libvcruntimed:undname.obj
 0002:00001338       ??_C@_0N@CBHHHENL@?$GAvtordispex?$HL@ 00000001800b0338     libvcruntimed:undname.obj
 0002:00001348       ??_C@_0L@GHPFDFH@?$GAvtordisp?$HL@ 00000001800b0348     libvcruntimed:undname.obj
 0002:00001358       ??_C@_0L@HNGCOGAE@?$GAadjustor?$HL@ 00000001800b0358     libvcruntimed:undname.obj
 0002:00001368       ??_C@_0CB@KJDOOODE@?$GAlocal?5static?5destructor?5helper@ 00000001800b0368     libvcruntimed:undname.obj
 0002:00001390       ??_C@_0DB@ILEFOCIJ@?$GAtemplate?5static?5data?5member?5co@ 00000001800b0390     libvcruntimed:undname.obj
 0002:000013c8       ??_C@_0DA@HGFJFBBE@?$GAtemplate?5static?5data?5member?5de@ 00000001800b03c8     libvcruntimed:undname.obj
 0002:000013f8       ??_C@_07PGOEDBHP@static?5@ 00000001800b03f8     libvcruntimed:undname.obj
 0002:00001400       ??_C@_08NIEOINHE@virtual?5@ 00000001800b0400     libvcruntimed:undname.obj
 0002:00001410       ??_C@_09LAPHOOG@private?3?5@ 00000001800b0410     libvcruntimed:undname.obj
 0002:00001420       ??_C@_0M@GAIFPFIP@protected?3?5@ 00000001800b0420     libvcruntimed:undname.obj
 0002:00001430       ??_C@_08GPDDCMKI@public?3?5@ 00000001800b0430     libvcruntimed:undname.obj
 0002:00001440       ??_C@_08KJLFOPNE@?$FLthunk?$FN?3@ 00000001800b0440     libvcruntimed:undname.obj
 0002:00001450       ??_C@_0M@DHNBOJMP@extern?5?$CCC?$CC?5@ 00000001800b0450     libvcruntimed:undname.obj
 0002:0000145c       ??_C@_02KCKGHPCA@?$CJ?5@   00000001800b045c     libvcruntimed:undname.obj
 0002:00001460       ??_C@_05CIHEBHNO@char?5@   00000001800b0460     libvcruntimed:undname.obj
 0002:00001468       ??_C@_06EHJMALKF@short?5@  00000001800b0468     libvcruntimed:undname.obj
 0002:00001470       ??_C@_04LAHKHJMA@int?5@    00000001800b0470     libvcruntimed:undname.obj
 0002:00001478       ??_C@_05CJIMAING@long?5@   00000001800b0478     libvcruntimed:undname.obj
 0002:00001480       ??_C@_09EBBEKKIH@unsigned?5@ 00000001800b0480     libvcruntimed:undname.obj
 0002:0000148c       ??_C@_05BEFAKPML@void?5@   00000001800b048c     libvcruntimed:undname.obj
 0002:00001498       ??_C@_09GAIEOBLP@volatile?5@ 00000001800b0498     libvcruntimed:undname.obj
 0002:000014a8       ??_C@_08PABEKFH@volatile@  00000001800b04a8     libvcruntimed:undname.obj
 0002:000014b8       ??_C@_0BA@LKIJLKPP@std?3?3nullptr_t?5@ 00000001800b04b8     libvcruntimed:undname.obj
 0002:000014c8       ??_C@_0P@GCOCNKDM@std?3?3nullptr_t@ 00000001800b04c8     libvcruntimed:undname.obj
 0002:000014d8       ??_C@_0L@EGPHHEKN@?$DMellipsis?$DO@ 00000001800b04d8     libvcruntimed:undname.obj
 0002:000014e4       ??_C@_04EENFHACM@?0?4?4?4@ 00000001800b04e4     libvcruntimed:undname.obj
 0002:000014f0       ??_C@_0M@ELJOJFFH@?0?$DMellipsis?$DO@ 00000001800b04f0     libvcruntimed:undname.obj
 0002:00001500       ??_C@_09DNHFEOJI@?5noexcept@ 00000001800b0500     libvcruntimed:undname.obj
 0002:0000150c       ??_C@_03PBJBJNON@cpu@      00000001800b050c     libvcruntimed:undname.obj
 0002:00001510       ??_C@_03DCBBJBAA@amp@      00000001800b0510     libvcruntimed:undname.obj
 0002:00001514       ??_C@_02KEGNLNML@?0?5@     00000001800b0514     libvcruntimed:undname.obj
 0002:00001518       ??_C@_04ENMBGAPA@char@     00000001800b0518     libvcruntimed:undname.obj
 0002:00001520       ??_C@_05BFKKPKCG@short@    00000001800b0520     libvcruntimed:undname.obj
 0002:00001528       ??_C@_03JBIPMCLC@int@      00000001800b0528     libvcruntimed:undname.obj
 0002:0000152c       ??_C@_04GOKPGOLB@long@     00000001800b052c     libvcruntimed:undname.obj
 0002:00001534       ??_C@_05KNFBNCOH@float@    00000001800b0534     libvcruntimed:undname.obj
 0002:0000153c       ??_C@_06BNJCAIGJ@double@   00000001800b053c     libvcruntimed:undname.obj
 0002:00001544       ??_C@_04DDKJGDCM@bool@     00000001800b0544     libvcruntimed:undname.obj
 0002:0000154c       ??_C@_06EBGKOKIG@__int8@   00000001800b054c     libvcruntimed:undname.obj
 0002:00001558       ??_C@_07ICFHOGAF@__int16@  00000001800b0558     libvcruntimed:undname.obj
 0002:00001560       ??_C@_07OFLPPHGP@__int32@  00000001800b0560     libvcruntimed:undname.obj
 0002:00001568       ??_C@_07LFCOJCAC@__int64@  00000001800b0568     libvcruntimed:undname.obj
 0002:00001570       ??_C@_08GAHOLHEO@__int128@ 00000001800b0570     libvcruntimed:undname.obj
 0002:00001580       ??_C@_09EEKGDCPH@?$DMunknown?$DO@ 00000001800b0580     libvcruntimed:undname.obj
 0002:00001590       ??_C@_07CFHGOPCN@char8_t@  00000001800b0590     libvcruntimed:undname.obj
 0002:00001598       ??_C@_08HBIPOFJB@char16_t@ 00000001800b0598     libvcruntimed:undname.obj
 0002:000015a8       ??_C@_08IECNCBKG@char32_t@ 00000001800b05a8     libvcruntimed:undname.obj
 0002:000015b8       ??_C@_07CLGGIAMF@wchar_t@  00000001800b05b8     libvcruntimed:undname.obj
 0002:000015c0       ??_C@_04HAPDLBFF@auto@     00000001800b05c0     libvcruntimed:undname.obj
 0002:000015c8       ??_C@_0P@LHCGKIGK@decltype?$CIauto?$CJ@ 00000001800b05c8     libvcruntimed:undname.obj
 0002:000015d8       ??_C@_05PCNBGHCF@this?5@   00000001800b05d8     libvcruntimed:undname.obj
 0002:000015e0       ??_C@_06GCICPBLB@__w64?5@  00000001800b05e0     libvcruntimed:undname.obj
 0002:000015e8       ??_C@_07NFANNNEC@UNKNOWN@  00000001800b05e8     libvcruntimed:undname.obj
 0002:000015f0       ??_C@_07EDHNAJHC@signed?5@ 00000001800b05f0     libvcruntimed:undname.obj
 0002:000015f8       ??_C@_05BNCCCJPP@const@    00000001800b05f8     libvcruntimed:undname.obj
 0002:00001600       ??_C@_09EFNPDFFP@?5volatile@ 00000001800b0600     libvcruntimed:undname.obj
 0002:00001610       ??_C@_0P@GCIFDJCJ@?$GAunknown?5ecsu?8@ 00000001800b0610     libvcruntimed:undname.obj
 0002:00001620       ??_C@_06MOJHIBMG@union?5@  00000001800b0620     libvcruntimed:undname.obj
 0002:00001628       ??_C@_07DIBCDNGL@struct?5@ 00000001800b0628     libvcruntimed:undname.obj
 0002:00001630       ??_C@_06LJBABKPM@class?5@  00000001800b0630     libvcruntimed:undname.obj
 0002:00001638       ??_C@_08KOFANOFK@coclass?5@ 00000001800b0638     libvcruntimed:undname.obj
 0002:00001648       ??_C@_0N@DLIEFKNA@cointerface?5@ 00000001800b0648     libvcruntimed:undname.obj
 0002:00001658       ??_C@_05LJGMCFOG@enum?5@   00000001800b0658     libvcruntimed:undname.obj
 0002:00001660       ??_C@_06LIJLOJAG@const?5@  00000001800b0660     libvcruntimed:undname.obj
 0002:00001668       ??_C@_02KJPKDIBN@?$CG?5@   00000001800b0668     libvcruntimed:undname.obj
 0002:0000166c       ??_C@_03PCKGMOPB@?$CG?$CG?5@ 00000001800b066c     libvcruntimed:undname.obj
 0002:00001670       ??_C@_0M@EALIELKG@cli?3?3array?$DM@ 00000001800b0670     libvcruntimed:undname.obj
 0002:00001680       ??_C@_0O@GKABPPIF@cli?3?3pin_ptr?$DM@ 00000001800b0680     libvcruntimed:undname.obj
 0002:00001690       ??_C@_02GOGNNPBN@?$CJ?$FL@ 00000001800b0690     libvcruntimed:undname.obj
 0002:00001694       ??_C@_06EEGAIFAK@?$HLflat?$HN@ 00000001800b0694     libvcruntimed:undname.obj
 0002:0000169c       ??_C@_05JIBOFOHK@?$HLfor?5@ 00000001800b069c     libvcruntimed:undname.obj
 0002:000016a4       ??_C@_02MDINNEEG@s?5@      00000001800b06a4     libvcruntimed:undname.obj
 0002:000016b0       ??_7DNameNode@@6B@         00000001800b06b0     libvcruntimed:undname.obj
 0002:000016d8       ??_7charNode@@6B@          00000001800b06d8     libvcruntimed:undname.obj
 0002:00001700       ??_7pcharNode@@6B@         00000001800b0700     libvcruntimed:undname.obj
 0002:00001728       ??_7pDNameNode@@6B@        00000001800b0728     libvcruntimed:undname.obj
 0002:00001750       ??_7DNameStatusNode@@6B@   00000001800b0750     libvcruntimed:undname.obj
 0002:00001778       ??_7pairNode@@6B@          00000001800b0778     libvcruntimed:undname.obj
 0002:000018a0       ??_C@_04OKOHEJBO@?5?$DP?$DP?5@ 00000001800b08a0     libvcruntimed:undname.obj
 0002:000018b0       ?nodes@?1??make@DNameStatusNode@@SAPEBV2@W4DNameStatus@@@Z@4QBV2@B 00000001800b08b0     libvcruntimed:undname.obj
 0002:000018f0       ??_C@_0CF@ONAOGJIP@operator?$CK?$CI?$CJ?5called?5on?5empty?5opt@ 00000001800b08f0     libvcruntimed:undname.obj
 0002:00001918       ??_C@_02DKCKIIND@?$CFs@    00000001800b0918     libvcruntimed:undname.obj
 0002:00001920       ??_C@_0CO@DDKCBJPP@D?3?2a?2_work?21?2s?2binaries?2amd64re@ 00000001800b0920     libvcruntimed:undname.obj
 0002:00001950       ??_C@_0EK@HNOIOKGA@D?3?2a?2_work?21?2s?2src?2vctools?2crt?2@ 00000001800b0950     libvcruntimed:per_thread_data.obj
 0002:000019a0       ?s_negLengthTab@FH4@@3QBCB 00000001800b09a0     libvcruntimed:risctrnsctrl.obj
 0002:000019b0       ?s_shiftTab@FH4@@3QBEB     00000001800b09b0     libvcruntimed:risctrnsctrl.obj
 0002:00001b10       ??_C@_1DM@KHCHBNEB@?$AAa?$AAp?$AAi?$AA?9?$AAm?$AAs?$AA?9?$AAw?$AAi?$AAn?$AA?9?$AAc?$AAo?$AAr?$AAe@ 00000001800b0b10     libvcruntimed:winapi_downlevel.obj
 0002:00001b50       ??_C@_1DK@LPPGFMPP@?$AAa?$AAp?$AAi?$AA?9?$AAm?$AAs?$AA?9?$AAw?$AAi?$AAn?$AA?9?$AAc?$AAo?$AAr?$AAe@ 00000001800b0b50     libvcruntimed:winapi_downlevel.obj
 0002:00001b90       ??_C@_1BC@GDMECMAK@?$AAk?$AAe?$AAr?$AAn?$AAe?$AAl?$AA3?$AA2@ 00000001800b0b90     libvcruntimed:winapi_downlevel.obj
 0002:00001ba8       ??_C@_17CNPHIMPH@?$AA?$CF?$AAl?$AAs@ 00000001800b0ba8     libvcruntimed:winapi_downlevel.obj
 0002:00001bb0       ??_C@_1BA@PFFKHIOG@?$AAa?$AAp?$AAi?$AA?9?$AAm?$AAs?$AA?9@ 00000001800b0bb0     libvcruntimed:winapi_downlevel.obj
 0002:00001bc0       ??_C@_1EM@LBIFGLGH@?$AAc?$AAa?$AAc?$AAh?$AAe?$AAd?$AA_?$AAh?$AAa?$AAn?$AAd?$AAl?$AAe?$AA?5?$AA?$DN@ 00000001800b0bc0     libvcruntimed:winapi_downlevel.obj
 0002:00001c10       ??_C@_1JG@EAIBPIGC@?$AAD?$AA?3?$AA?2?$AAa?$AA?2?$AA_?$AAw?$AAo?$AAr?$AAk?$AA?2?$AA1?$AA?2?$AAs?$AA?2@ 00000001800b0c10     libvcruntimed:winapi_downlevel.obj
 0002:00001ca8       ??_C@_1DI@MAHEDLDB@?$AAc?$AAa?$AAc?$AAh?$AAe?$AAd?$AA_?$AAh?$AAa?$AAn?$AAd?$AAl?$AAe?$AA?5?$AA?$DN@ 00000001800b0ca8     libvcruntimed:winapi_downlevel.obj
 0002:00001ce0       ??_C@_1FC@IBNCGNKL@?$AAc?$AAa?$AAc?$AAh?$AAe?$AAd?$AA_?$AAf?$AAp?$AA?5?$AA?$DN?$AA?$DN?$AA?5?$AAi?$AAn@ 00000001800b0ce0     libvcruntimed:winapi_downlevel.obj
 0002:00001d38       ??_C@_1CI@GDJBAGLP@?$AAc?$AAa?$AAc?$AAh?$AAe?$AAd?$AA_?$AAf?$AAp?$AA?5?$AA?$DN?$AA?$DN?$AA?5?$AAn?$AAe@ 00000001800b0d38     libvcruntimed:winapi_downlevel.obj
 0002:00001d68       ??_C@_08KNHFBNJ@FlsAlloc@  00000001800b0d68     libvcruntimed:winapi_downlevel.obj
 0002:00001d80       ??_C@_07PEJMOBNF@FlsFree@  00000001800b0d80     libvcruntimed:winapi_downlevel.obj
 0002:00001d90       ??_C@_0M@GDNOONDI@FlsGetValue@ 00000001800b0d90     libvcruntimed:winapi_downlevel.obj
 0002:00001da8       ??_C@_0M@JCPCPOEF@FlsSetValue@ 00000001800b0da8     libvcruntimed:winapi_downlevel.obj
 0002:00001dc0       ??_C@_0BM@HCFOFFN@InitializeCriticalSectionEx@ 00000001800b0dc0     libvcruntimed:winapi_downlevel.obj
 0002:00001de8       ??_7exception@std@@6B@     00000001800b0de8     libvcruntimed:frame.obj
 0002:00001df8       ??_C@_0BC@EOODALEL@Unknown?5exception@ 00000001800b0df8     libvcruntimed:frame.obj
 0002:00001e18       ??_7bad_exception@std@@6B@ 00000001800b0e18     libvcruntimed:frame.obj
 0002:00001e28       ??_C@_0O@DPKOEFFH@bad?5exception@ 00000001800b0e28     libvcruntimed:frame.obj
 0002:00001e40       ??_C@_1FK@OACNEHHA@?$AAt?$AAo?$AA?9?$AA?$DO?$AA_?$AAW?$AAh?$AAa?$AAt?$AA?5?$AA?$DN?$AA?$DN?$AA?5?$AAn?$AAu@ 00000001800b0e40     libvcruntimed:std_exception.obj
 0002:00001ea0       ??_C@_1IE@BLOAAGCK@?$AAD?$AA?3?$AA?2?$AAa?$AA?2?$AA_?$AAw?$AAo?$AAr?$AAk?$AA?2?$AA1?$AA?2?$AAs?$AA?2@ 00000001800b0ea0     libvcruntimed:std_exception.obj
 0002:00001f30       __acrt_exception_action_table 00000001800b0f30     libucrtd:exception_filter.obj
 0002:00001ff0       __acrt_signal_action_table_count 00000001800b0ff0     libucrtd:exception_filter.obj
 0002:00001ff8       __acrt_signal_action_table_size 00000001800b0ff8     libucrtd:exception_filter.obj
 0002:00002000       __acrt_signal_action_first_fpe_index 00000001800b1000     libucrtd:exception_filter.obj
 0002:00002008       __acrt_signal_action_fpe_count 00000001800b1008     libucrtd:exception_filter.obj
 0002:00002088       ??_C@_1BI@BGOHAHKC@?$AAm?$AAs?$AAc?$AAo?$AAr?$AAe?$AAe?$AA?4?$AAd?$AAl?$AAl@ 00000001800b1088     libucrtd:exit.obj
 0002:000020a0       ??_C@_0P@MIGLKIOC@CorExitProcess@ 00000001800b10a0     libucrtd:exit.obj
 0002:00002100       ??_C@_0DI@KNDIGDEP@minkernel?2crts?2ucrt?2src?2appcrt?2@ 00000001800b1100     libucrtd:argv_parsing.obj
 0002:00002140       ??_C@_1JO@PGBIJBAM@?$AAm?$AAo?$AAd?$AAe?$AA?5?$AA?$DN?$AA?$DN?$AA?5?$AA_?$AAc?$AAr?$AAt?$AA_?$AAa?$AAr@ 00000001800b1140     libucrtd:argv_parsing.obj
 0002:000021e0       ??_C@_1HA@JMLCANEE@?$AAm?$AAi?$AAn?$AAk?$AAe?$AAr?$AAn?$AAe?$AAl?$AA?2?$AAc?$AAr?$AAt?$AAs?$AA?2@ 00000001800b11e0     libucrtd:argv_parsing.obj
 0002:00002250       ??_C@_1CM@LHOJELIC@?$AAc?$AAo?$AAm?$AAm?$AAo?$AAn?$AA_?$AAc?$AAo?$AAn?$AAf?$AAi?$AAg?$AAu?$AAr@ 00000001800b1250     libucrtd:argv_parsing.obj
 0002:00002320       ??_C@_0EG@LEHKHOEH@minkernel?2crts?2ucrt?2src?2desktop@ 00000001800b1320     libucrtd:environment_initialization.obj
 0002:00002370       ??_C@_1IM@IMOFFPLG@?$AAm?$AAi?$AAn?$AAk?$AAe?$AAr?$AAn?$AAe?$AAl?$AA?2?$AAc?$AAr?$AAt?$AAs?$AA?2@ 00000001800b1370     libucrtd:environment_initialization.obj
 0002:00002400       ??_C@_1CG@MNNNBNAK@?$AAc?$AAr?$AAe?$AAa?$AAt?$AAe?$AA_?$AAe?$AAn?$AAv?$AAi?$AAr?$AAo?$AAn?$AAm@ 00000001800b1400     libucrtd:environment_initialization.obj
 0002:00002430       ??_C@_1HI@OOPIFFGA@?$AAt?$AAr?$AAa?$AAi?$AAt?$AAs?$AA?3?$AA?3?$AAt?$AAc?$AAs?$AAc?$AAp?$AAy?$AA_@ 00000001800b1430     libucrtd:environment_initialization.obj
 0002:00002520       ??_C@_0DC@NBHMIIKL@minkernel?2crts?2ucrt?2src?2appcrt?2@ 00000001800b1520     libucrtd:onexit.obj
 0002:000026b0       ??_C@_04HJMOFLDF@Free@     00000001800b16b0     libucrtd:debug_heap.obj
 0002:000026b8       ??_C@_06EFAGIKOH@Normal@   00000001800b16b8     libucrtd:debug_heap.obj
 0002:000026c0       ??_C@_03OGPFLFLO@CRT@      00000001800b16c0     libucrtd:debug_heap.obj
 0002:000026c4       ??_C@_06KMEJCCGM@Ignore@   00000001800b16c4     libucrtd:debug_heap.obj
 0002:000026cc       ??_C@_06PJIGMIJB@Client@   00000001800b16cc     libucrtd:debug_heap.obj
 0002:00002750       ??_C@_1CE@LJFEPPMP@?$AA_?$AAC?$AAr?$AAt?$AAC?$AAh?$AAe?$AAc?$AAk?$AAM?$AAe?$AAm?$AAo?$AAr?$AAy@ 00000001800b1750     libucrtd:debug_heap.obj
 0002:00002780       ??_C@_1GG@OCLHPJPK@?$AAm?$AAi?$AAn?$AAk?$AAe?$AAr?$AAn?$AAe?$AAl?$AA?2?$AAc?$AAr?$AAt?$AAs?$AA?2@ 00000001800b1780     libucrtd:debug_heap.obj
 0002:000027e8       ??_C@_0DF@BBEGIFEK@Client?5hook?5allocation?5failure?5@ 00000001800b17e8     libucrtd:debug_heap.obj
 0002:00002820       ??_C@_0CB@CCLOLAHO@Client?5hook?5allocation?5failure?4@ 00000001800b1820     libucrtd:debug_heap.obj
 0002:00002848       ??_C@_0DC@JEMAGEKG@Error?3?5memory?5allocation?3?5bad?5m@ 00000001800b1848     libucrtd:debug_heap.obj
 0002:00002880       ??_C@_0DI@KKJPDPGM@Client?5hook?5re?9allocation?5failu@ 00000001800b1880     libucrtd:debug_heap.obj
 0002:000028b8       ??_C@_0CE@DOFMDOL@Client?5hook?5re?9allocation?5failu@ 00000001800b18b8     libucrtd:debug_heap.obj
 0002:000028e0       ??_C@_0FA@EFEIGJKG@Error?3?5memory?5allocation?3?5bad?5m@ 00000001800b18e0     libucrtd:debug_heap.obj
 0002:00002930       ??_C@_0EM@LGFLMAGJ@The?5Block?5at?50x?$CFp?5was?5allocated@ 00000001800b1930     libucrtd:debug_heap.obj
 0002:00002980       ??_C@_1DM@DEDLGNML@?$AA_?$AAC?$AAr?$AAt?$AAI?$AAs?$AAV?$AAa?$AAl?$AAi?$AAd?$AAH?$AAe?$AAa?$AAp@ 00000001800b1980     libucrtd:debug_heap.obj
 0002:000029c0       ??_C@_1PC@MCGKJLN@?$AAo?$AAl?$AAd?$AA_?$AAh?$AAe?$AAa?$AAd?$AA?9?$AA?$DO?$AA_?$AAl?$AAi?$AAn?$AAe@ 00000001800b19c0     libucrtd:debug_heap.obj
 0002:00002ab8       ??_C@_0DA@HFBKENN@Error?3?5possible?5heap?5corruption@ 00000001800b1ab8     libucrtd:debug_heap.obj
 0002:00002af0       ??_C@_1JM@MCMEPJEP@?$AAr?$AAe?$AAa?$AAl?$AAl?$AAo?$AAc?$AAa?$AAt?$AAi?$AAo?$AAn?$AA_?$AAi?$AAs@ 00000001800b1af0     libucrtd:debug_heap.obj
 0002:00002b90       ??_C@_1DM@LNOPKAIJ@?$AA_?$AA_?$AAa?$AAc?$AAr?$AAt?$AA_?$AAl?$AAa?$AAs?$AAt?$AA_?$AAb?$AAl?$AAo@ 00000001800b1b90     libucrtd:debug_heap.obj
 0002:00002bd0       ??_C@_1DO@HABCJBHO@?$AA_?$AA_?$AAa?$AAc?$AAr?$AAt?$AA_?$AAf?$AAi?$AAr?$AAs?$AAt?$AA_?$AAb?$AAl@ 00000001800b1bd0     libucrtd:debug_heap.obj
 0002:00002c10       ??_C@_1CC@CKEAHJPH@?$AAb?$AAl?$AAo?$AAc?$AAk?$AA?5?$AA?$CB?$AA?$DN?$AA?5?$AAn?$AAu?$AAl?$AAl?$AAp?$AAt@ 00000001800b1c10     libucrtd:debug_heap.obj
 0002:00002c38       ??_C@_1BI@HAPNGHDP@?$AA_?$AAe?$AAx?$AAp?$AAa?$AAn?$AAd?$AA_?$AAd?$AAb?$AAg@ 00000001800b1c38     libucrtd:debug_heap.obj
 0002:00002c50       ??_C@_0EJ@HEIBCIMJ@The?5Block?5at?50x?$CFp?5was?5allocated@ 00000001800b1c50     libucrtd:debug_heap.obj
 0002:00002ca0       ??_C@_0BL@KEIPLFAC@Client?5hook?5free?5failure?4?6@ 00000001800b1ca0     libucrtd:debug_heap.obj
 0002:00002cc0       ??_C@_1FA@KDNEBILF@?$AAi?$AAs?$AA_?$AAb?$AAl?$AAo?$AAc?$AAk?$AA_?$AAt?$AAy?$AAp?$AAe?$AA_?$AAv@ 00000001800b1cc0     libucrtd:debug_heap.obj
 0002:00002d10       ??_C@_0KI@JGFOHMEB@HEAP?5CORRUPTION?5DETECTED?3?5befor@ 00000001800b1d10     libucrtd:debug_heap.obj
 0002:00002dc0       ??_C@_0IK@PJCGLBOB@HEAP?5CORRUPTION?5DETECTED?3?5befor@ 00000001800b1dc0     libucrtd:debug_heap.obj
 0002:00002e50       ??_C@_0KE@MBMNHHHN@HEAP?5CORRUPTION?5DETECTED?3?5after@ 00000001800b1e50     libucrtd:debug_heap.obj
 0002:00002f00       ??_C@_0IG@LEMBDCJK@HEAP?5CORRUPTION?5DETECTED?3?5after@ 00000001800b1f00     libucrtd:debug_heap.obj
 0002:00002f90       ??_C@_1OK@GFEOEJAF@?$AAh?$AAe?$AAa?$AAd?$AAe?$AAr?$AA?9?$AA?$DO?$AA_?$AAl?$AAi?$AAn?$AAe?$AA_?$AAn@ 00000001800b1f90     libucrtd:debug_heap.obj
 0002:00003080       ??_C@_1ME@GFALMLNA@?$AAh?$AAe?$AAa?$AAd?$AAe?$AAr?$AA?9?$AA?$DO?$AA_?$AAb?$AAl?$AAo?$AAc?$AAk?$AA_@ 00000001800b2080     libucrtd:debug_heap.obj
 0002:00003148       ??_C@_1DI@ILNOPEPI@?$AA_?$AA_?$AAa?$AAc?$AAr?$AAt?$AA_?$AAl?$AAa?$AAs?$AAt?$AA_?$AAb?$AAl?$AAo@ 00000001800b2148     libucrtd:debug_heap.obj
 0002:00003180       ??_C@_1DK@KEHFGDIJ@?$AA_?$AA_?$AAa?$AAc?$AAr?$AAt?$AA_?$AAf?$AAi?$AAr?$AAs?$AAt?$AA_?$AAb?$AAl@ 00000001800b2180     libucrtd:debug_heap.obj
 0002:000031c0       ??_C@_1BG@MBKOGDLD@?$AA_?$AAm?$AAs?$AAi?$AAz?$AAe?$AA_?$AAd?$AAb?$AAg@ 00000001800b21c0     libucrtd:debug_heap.obj
 0002:000031d8       ??_C@_07OHKEFPKJ@DAMAGED@  00000001800b21d8     libucrtd:debug_heap.obj
 0002:000031e0       ??_C@_0KA@IHNJJKPL@HEAP?5CORRUPTION?5DETECTED?3?5on?5to@ 00000001800b21e0     libucrtd:debug_heap.obj
 0002:00003280       ??_C@_0IC@BBJIOOJH@HEAP?5CORRUPTION?5DETECTED?3?5on?5to@ 00000001800b2280     libucrtd:debug_heap.obj
 0002:00003310       ??_C@_0EG@DGJMPDBH@?$CFhs?5located?5at?50x?$CFp?5is?5?$CFIu?5byte@ 00000001800b2310     libucrtd:debug_heap.obj
 0002:00003358       ??_C@_0CI@JMLBEDHJ@?$CFhs?5located?5at?50x?$CFp?5is?5?$CFIu?5byte@ 00000001800b2358     libucrtd:debug_heap.obj
 0002:00003380       ??_C@_0EG@GPFHANHO@Cycle?5in?5block?5list?5detected?5wh@ 00000001800b2380     libucrtd:debug_heap.obj
 0002:000033c8       ??_C@_0BJ@ELMAOCAJ@Heap?5validation?5failed?4?6@ 00000001800b23c8     libucrtd:debug_heap.obj
 0002:000033f0       ??_C@_1IE@BBIFDGEB@?$AAn?$AAe?$AAw?$AA_?$AAb?$AAi?$AAt?$AAs?$AA?5?$AA?$DN?$AA?$DN?$AA?5?$AA_?$AAC?$AAR@ 00000001800b23f0     libucrtd:debug_heap.obj
 0002:00003478       ??_C@_1BO@GJFDNMNF@?$AA_?$AAC?$AAr?$AAt?$AAS?$AAe?$AAt?$AAD?$AAb?$AAg?$AAF?$AAl?$AAa?$AAg@ 00000001800b2478     libucrtd:debug_heap.obj
 0002:00003498       ??_C@_1CI@CEIBPAIA@?$AAc?$AAa?$AAl?$AAl?$AAb?$AAa?$AAc?$AAk?$AA?5?$AA?$CB?$AA?$DN?$AA?5?$AAn?$AAu?$AAl@ 00000001800b2498     libucrtd:debug_heap.obj
 0002:000034c0       ??_C@_1DE@GJCKCKEC@?$AA_?$AAC?$AAr?$AAt?$AAD?$AAo?$AAF?$AAo?$AAr?$AAA?$AAl?$AAl?$AAC?$AAl?$AAi@ 00000001800b24c0     libucrtd:debug_heap.obj
 0002:000034f8       ??_C@_1CC@BBKMONGA@?$AAs?$AAt?$AAa?$AAt?$AAe?$AA?5?$AA?$CB?$AA?$DN?$AA?5?$AAn?$AAu?$AAl?$AAl?$AAp?$AAt@ 00000001800b24f8     libucrtd:debug_heap.obj
 0002:00003520       ??_C@_1CE@NJJKELF@?$AA_?$AAC?$AAr?$AAt?$AAM?$AAe?$AAm?$AAC?$AAh?$AAe?$AAc?$AAk?$AAp?$AAo?$AAi@ 00000001800b2520     libucrtd:debug_heap.obj
 0002:00003548       ??_C@_0DP@LEFMFBOD@Bad?5memory?5block?5found?5at?50x?$CFp?4@ 00000001800b2548     libucrtd:debug_heap.obj
 0002:00003588       ??_C@_0CB@EAAIGELO@Bad?5memory?5block?5found?5at?50x?$CFp?4@ 00000001800b2588     libucrtd:debug_heap.obj
 0002:000035b0       ??_C@_1CE@PDIENACM@?$AA_?$AAC?$AAr?$AAt?$AAM?$AAe?$AAm?$AAD?$AAi?$AAf?$AAf?$AAe?$AAr?$AAe?$AAn@ 00000001800b25b0     libucrtd:debug_heap.obj
 0002:000035d8       ??_C@_1CK@FFKLBHMD@?$AAo?$AAl?$AAd?$AA_?$AAs?$AAt?$AAa?$AAt?$AAe?$AA?5?$AA?$CB?$AA?$DN?$AA?5?$AAn?$AAu@ 00000001800b25d8     libucrtd:debug_heap.obj
 0002:00003608       ??_C@_1CK@NJPPHDJP@?$AAn?$AAe?$AAw?$AA_?$AAs?$AAt?$AAa?$AAt?$AAe?$AA?5?$AA?$CB?$AA?$DN?$AA?5?$AAn?$AAu@ 00000001800b2608     libucrtd:debug_heap.obj
 0002:00003634       ??_C@_05MKKEDADM@?$CF?42X?5@ 00000001800b2634     libucrtd:debug_heap.obj
 0002:00003640       ??_C@_1CC@DIJAHFFJ@?$AAp?$AAr?$AAi?$AAn?$AAt?$AA_?$AAb?$AAl?$AAo?$AAc?$AAk?$AA_?$AAd?$AAa?$AAt@ 00000001800b2640     libucrtd:debug_heap.obj
 0002:00003668       ??_C@_1BI@KALLJECN@?$AA?$CI?$AA?$CK?$AA_?$AAe?$AAr?$AAr?$AAn?$AAo?$AA?$CI?$AA?$CJ?$AA?$CJ@ 00000001800b2668     libucrtd:debug_heap.obj
 0002:00003680       ??_C@_0BA@HJBKCELP@?5Data?3?5?$DM?$CFs?$DO?5?$CFs?6@ 00000001800b2680     libucrtd:debug_heap.obj
 0002:00003690       ??_C@_0BE@KCIPKCIA@Dumping?5objects?5?9?$DO?6@ 00000001800b2690     libucrtd:debug_heap.obj
 0002:000036a8       ??_C@_0BE@OIEFNFL@?$CDFile?5Error?$CD?$CI?$CFd?$CJ?5?3?5@ 00000001800b26a8     libucrtd:debug_heap.obj
 0002:000036c0       ??_C@_0L@JMEFFCCJ@?$CFhs?$CI?$CFd?$CJ?5?3?5@ 00000001800b26c0     libucrtd:debug_heap.obj
 0002:000036cc       ??_C@_06PKLGBFGM@?$HL?$CFld?$HN?5@ 00000001800b26cc     libucrtd:debug_heap.obj
 0002:000036d8       ??_C@_0DD@GHNAAKBB@client?5block?5at?50x?$CFp?0?5subtype?5?$CF@ 00000001800b26d8     libucrtd:debug_heap.obj
 0002:00003710       ??_C@_0CH@FAGDDGPN@normal?5block?5at?50x?$CFp?0?5?$CFIu?5bytes@ 00000001800b2710     libucrtd:debug_heap.obj
 0002:00003738       ??_C@_0DA@MDLBNIBM@crt?5block?5at?50x?$CFp?0?5subtype?5?$CFx?0?5@ 00000001800b2738     libucrtd:debug_heap.obj
 0002:00003768       ??_C@_0BH@GFGKJDCO@Object?5dump?5complete?4?6@ 00000001800b2768     libucrtd:debug_heap.obj
 0002:00003780       ??_C@_0BI@JBFPOEJA@Detected?5memory?5leaks?$CB?6@ 00000001800b2780     libucrtd:debug_heap.obj
 0002:00003798       ??_C@_1CM@MPNIBKGK@?$AA_?$AAC?$AAr?$AAt?$AAM?$AAe?$AAm?$AAD?$AAu?$AAm?$AAp?$AAS?$AAt?$AAa?$AAt@ 00000001800b2798     libucrtd:debug_heap.obj
 0002:000037c8       ??_C@_0BO@DACNIABB@?$CFId?5bytes?5in?5?$CFId?5?$CFhs?5Blocks?4?6@ 00000001800b27c8     libucrtd:debug_heap.obj
 0002:000037e8       ??_C@_0CB@BLHDAFNE@Largest?5number?5used?3?5?$CFId?5bytes?4@ 00000001800b27e8     libucrtd:debug_heap.obj
 0002:00003810       ??_C@_0BP@DEDHGGGI@Total?5allocations?3?5?$CFId?5bytes?4?6@ 00000001800b2810     libucrtd:debug_heap.obj
 0002:00003830       ??_C@_1CM@JKMDHENJ@?$AAI?$AAS?$AA_?$AA2?$AA_?$AAP?$AAO?$AAW?$AA_?$AAN?$AA?$CI?$AAa?$AAl?$AAi?$AAg@ 00000001800b2830     libucrtd:debug_heap.obj
 0002:00003860       ??_C@_1DG@DONCJBBJ@?$AA_?$AAa?$AAl?$AAi?$AAg?$AAn?$AAe?$AAd?$AA_?$AAo?$AAf?$AAf?$AAs?$AAe?$AAt@ 00000001800b2860     libucrtd:debug_heap.obj
 0002:00003898       ??_C@_1DK@LFLKFPDA@?$AAo?$AAf?$AAf?$AAs?$AAe?$AAt?$AA?5?$AA?$DN?$AA?$DN?$AA?5?$AA0?$AA?5?$AA?$HM?$AA?$HM?$AA?5@ 00000001800b2898     libucrtd:debug_heap.obj
 0002:000038e0       ??_C@_0EI@NDNJMAJK@The?5block?5at?50x?$CFp?5was?5not?5alloc@ 00000001800b28e0     libucrtd:debug_heap.obj
 0002:00003928       ??_C@_0DL@PGHMMKNE@Damage?5before?50x?$CFp?5which?5was?5al@ 00000001800b2928     libucrtd:debug_heap.obj
 0002:00003968       ??_C@_1DI@NINIKFFK@?$AA_?$AAa?$AAl?$AAi?$AAg?$AAn?$AAe?$AAd?$AA_?$AAo?$AAf?$AAf?$AAs?$AAe?$AAt@ 00000001800b2968     libucrtd:debug_heap.obj
 0002:000039a0       ??_C@_1CG@CEGMHIMN@?$AA_?$AAa?$AAl?$AAi?$AAg?$AAn?$AAe?$AAd?$AA_?$AAm?$AAs?$AAi?$AAz?$AAe?$AA_@ 00000001800b29a0     libucrtd:debug_heap.obj
 0002:000039d0       ??_C@_0EF@PGELACII@The?5block?5at?50x?$CFp?5was?5not?5alloc@ 00000001800b29d0     libucrtd:debug_heap.obj
 0002:00003a20       ??_C@_1GI@BBAEIKL@?$AA?$CI?$AA?$CI?$AAd?$AAe?$AAs?$AAt?$AAi?$AAn?$AAa?$AAt?$AAi?$AAo?$AAn?$AA?$CJ?$AA?$CJ@ 00000001800b2a20     libucrtd:strcpy_s.obj
 0002:00003a90       ??_C@_1HI@PBJPCEBC@?$AAm?$AAi?$AAn?$AAk?$AAe?$AAr?$AAn?$AAe?$AAl?$AA?2?$AAc?$AAr?$AAt?$AAs?$AA?2@ 00000001800b2a90     libucrtd:strcpy_s.obj
 0002:00003b08       ??_C@_1CA@FHIAGDFH@?$AAc?$AAo?$AAm?$AAm?$AAo?$AAn?$AA_?$AAt?$AAc?$AAs?$AAc?$AAp?$AAy?$AA_?$AAs@ 00000001800b2b08     libucrtd:strcpy_s.obj
 0002:00003b28       ??_C@_1CK@EIOKGPJL@?$AA?$CI?$AA?$CI?$AA?$CI?$AAs?$AAo?$AAu?$AAr?$AAc?$AAe?$AA?$CJ?$AA?$CJ?$AA?$CJ?$AA?5?$AA?$CB?$AA?$DN@ 00000001800b2b28     libucrtd:strcpy_s.obj
 0002:00003b58       ??_C@_1CI@HCPHDDLE@?$AAB?$AAu?$AAf?$AAf?$AAe?$AAr?$AA?5?$AAi?$AAs?$AA?5?$AAt?$AAo?$AAo?$AA?5?$AAs@ 00000001800b2b58     libucrtd:strcpy_s.obj
 0002:00003b80       ??_C@_1DM@MADKGDLO@?$AA?$CI?$AAL?$AA?$CC?$AAB?$AAu?$AAf?$AAf?$AAe?$AAr?$AA?5?$AAi?$AAs?$AA?5?$AAt?$AAo@ 00000001800b2b80     libucrtd:strcpy_s.obj
 0002:00003bc0       ??_C@_1DA@LLLMNMKI@?$AAa?$AAb?$AAo?$AAr?$AAt?$AA?$CI?$AA?$CJ?$AA?5?$AAh?$AAa?$AAs?$AA?5?$AAb?$AAe?$AAe@ 00000001800b2bc0     libucrtd:abort.obj
 0002:00003bf0       _Fenv1                     00000001800b2bf0     libucrtd:output.obj
 0002:00003c00       ?standard_lookup_table_spectre@__crt_stdio_output@@3V?$spectre_mitigated_lookup_table@Ustate_transition_pair@__crt_stdio_output@@$0IA@@1@B 00000001800b2c00     libucrtd:output.obj
 0002:00003d00       ?format_validation_lookup_table_spectre@__crt_stdio_output@@3V?$spectre_mitigated_lookup_table@Ustate_transition_pair@__crt_stdio_output@@$0IA@@1@B 00000001800b2d00     libucrtd:output.obj
 0002:00004530       ??_C@_1BDG@MKBKGHOH@?$AA?$CI?$AA?5?$AA?$CI?$AA_?$AAS?$AAt?$AAr?$AAe?$AAa?$AAm?$AA?4?$AAi?$AAs?$AA_?$AAs@ 00000001800b3530     libucrtd:output.obj
 0002:00004670       ??_C@_1GC@LCDLABEA@?$AAm?$AAi?$AAn?$AAk?$AAe?$AAr?$AAn?$AAe?$AAl?$AA?2?$AAc?$AAr?$AAt?$AAs?$AA?2@ 00000001800b3670     libucrtd:output.obj
 0002:000046e0       ??_C@_1II@DIIMCJOK@?$AA_?$AA_?$AAa?$AAc?$AAr?$AAt?$AA_?$AAs?$AAt?$AAd?$AAi?$AAo?$AA_?$AAc?$AAh@ 00000001800b36e0     libucrtd:output.obj
 0002:00004770       ??_C@_1GE@DPGDJKLM@?$AAm?$AAi?$AAn?$AAk?$AAe?$AAr?$AAn?$AAe?$AAl?$AA?2?$AAc?$AAr?$AAt?$AAs?$AA?2@ 00000001800b3770     libucrtd:output.obj
 0002:000047d8       ??_C@_1CE@JLIJLEKO@?$AAs?$AAt?$AAr?$AAe?$AAa?$AAm?$AA?5?$AA?$CB?$AA?$DN?$AA?5?$AAn?$AAu?$AAl?$AAl?$AAp@ 00000001800b37d8     libucrtd:output.obj
 0002:00004800       ??_C@_1GA@MOBAPGIO@?$AAm?$AAi?$AAn?$AAk?$AAe?$AAr?$AAn?$AAe?$AAl?$AA?2?$AAc?$AAr?$AAt?$AAs?$AA?2@ 00000001800b3800     libucrtd:output.obj
 0002:00004860       ??_C@_1CA@GELIJBMC@?$AAc?$AAo?$AAm?$AAm?$AAo?$AAn?$AA_?$AAv?$AAf?$AAp?$AAr?$AAi?$AAn?$AAt?$AAf@ 00000001800b3860     libucrtd:output.obj
 0002:00004880       ??_C@_1CE@EAKLPBKK@?$AAf?$AAo?$AAr?$AAm?$AAa?$AAt?$AA?5?$AA?$CB?$AA?$DN?$AA?5?$AAn?$AAu?$AAl?$AAl?$AAp@ 00000001800b3880     libucrtd:output.obj
 0002:000048a8       ??_C@_1CA@PIMGHCEK@?$AAc?$AAo?$AAm?$AAm?$AAo?$AAn?$AA_?$AAv?$AAs?$AAp?$AAr?$AAi?$AAn?$AAt?$AAf@ 00000001800b38a8     libucrtd:output.obj
 0002:000048d0       ??_C@_1EO@EGEEFEFM@?$AAb?$AAu?$AAf?$AAf?$AAe?$AAr?$AA_?$AAc?$AAo?$AAu?$AAn?$AAt?$AA?5?$AA?$DN?$AA?$DN@ 00000001800b38d0     libucrtd:output.obj
 0002:00004920       ??_C@_1CE@JEILLNB@?$AAc?$AAo?$AAm?$AAm?$AAo?$AAn?$AA_?$AAv?$AAs?$AAp?$AAr?$AAi?$AAn?$AAt?$AAf@ 00000001800b3920     libucrtd:output.obj
 0002:00004950       ??_C@_1EM@OAFHAOLH@?$AAb?$AAu?$AAf?$AAf?$AAe?$AAr?$AA?5?$AA?$CB?$AA?$DN?$AA?5?$AAn?$AAu?$AAl?$AAl?$AAp@ 00000001800b3950     libucrtd:output.obj
 0002:000049a0       ??_C@_1DA@HPBFKMEB@?$AA?$CI?$AA?$CC?$AAB?$AAu?$AAf?$AAf?$AAe?$AAr?$AA?5?$AAt?$AAo?$AAo?$AA?5?$AAs?$AAm@ 00000001800b39a0     libucrtd:output.obj
 0002:000049d0       ??_C@_1CG@LHFJHFBB@?$AAc?$AAo?$AAm?$AAm?$AAo?$AAn?$AA_?$AAv?$AAs?$AAn?$AAp?$AAr?$AAi?$AAn?$AAt@ 00000001800b39d0     libucrtd:output.obj
 0002:000049f8       ??_C@_1CM@JOIJBMEM@?$AA_?$AAf?$AAo?$AAr?$AAm?$AAa?$AAt?$AA_?$AAi?$AAt?$AA?5?$AA?$CB?$AA?$DN?$AA?5?$AAn@ 00000001800b39f8     libucrtd:output.obj
 0002:00004a30       ??_C@_1HA@DMAAKIJP@?$AAm?$AAi?$AAn?$AAk?$AAe?$AAr?$AAn?$AAe?$AAl?$AA?2?$AAc?$AAr?$AAt?$AAs?$AA?2@ 00000001800b3a30     libucrtd:output.obj
 0002:00004aa0       ??_C@_1BNA@OIIAGHJI@?$AA_?$AA_?$AAc?$AAr?$AAt?$AA_?$AAs?$AAt?$AAd?$AAi?$AAo?$AA_?$AAo?$AAu?$AAt@ 00000001800b3aa0     libucrtd:output.obj
 0002:00004c70       ??_C@_1EE@DMAIGNBG@?$AA?$CI?$AA?$CC?$AAI?$AAn?$AAc?$AAo?$AAr?$AAr?$AAe?$AAc?$AAt?$AA?5?$AAf?$AAo?$AAr@ 00000001800b3c70     libucrtd:output.obj
 0002:00004cc0       ??_C@_1BLI@EGFICANE@?$AA_?$AA_?$AAc?$AAr?$AAt?$AA_?$AAs?$AAt?$AAd?$AAi?$AAo?$AA_?$AAo?$AAu?$AAt@ 00000001800b3cc0     libucrtd:output.obj
 0002:00004e80       ??_C@_1BLI@IKDKMDHI@?$AA_?$AA_?$AAc?$AAr?$AAt?$AA_?$AAs?$AAt?$AAd?$AAi?$AAo?$AA_?$AAo?$AAu?$AAt@ 00000001800b3e80     libucrtd:output.obj
 0002:00005040       ??_C@_1BKA@DNADAJMC@?$AA_?$AA_?$AAc?$AAr?$AAt?$AA_?$AAs?$AAt?$AAd?$AAi?$AAo?$AA_?$AAo?$AAu?$AAt@ 00000001800b4040     libucrtd:output.obj
 0002:000051e0       ??_C@_1BNA@HGLCOOBP@?$AA_?$AA_?$AAc?$AAr?$AAt?$AA_?$AAs?$AAt?$AAd?$AAi?$AAo?$AA_?$AAo?$AAu?$AAt@ 00000001800b41e0     libucrtd:output.obj
 0002:000053b0       ??_C@_1BLI@FOCNEPKJ@?$AA_?$AA_?$AAc?$AAr?$AAt?$AA_?$AAs?$AAt?$AAd?$AAi?$AAo?$AA_?$AAo?$AAu?$AAt@ 00000001800b43b0     libucrtd:output.obj
 0002:00005570       ??_C@_1BMK@CPBKHDIH@?$AA_?$AA_?$AAc?$AAr?$AAt?$AA_?$AAs?$AAt?$AAd?$AAi?$AAo?$AA_?$AAo?$AAu?$AAt@ 00000001800b4570     libucrtd:output.obj
 0002:00005740       ??_C@_1BLC@PMCLHHAE@?$AA_?$AA_?$AAc?$AAr?$AAt?$AA_?$AAs?$AAt?$AAd?$AAi?$AAo?$AA_?$AAo?$AAu?$AAt@ 00000001800b4740     libucrtd:output.obj
 0002:00005900       ??_C@_1BLI@EEAAPJD@?$AA_?$AA_?$AAc?$AAr?$AAt?$AA_?$AAs?$AAt?$AAd?$AAi?$AAo?$AA_?$AAo?$AAu?$AAt@ 00000001800b4900     libucrtd:output.obj
 0002:00005ac0       ??_C@_1BKA@IIAAOGBO@?$AA_?$AA_?$AAc?$AAr?$AAt?$AA_?$AAs?$AAt?$AAd?$AAi?$AAo?$AA_?$AAo?$AAu?$AAt@ 00000001800b4ac0     libucrtd:output.obj
 0002:00005c60       ??_C@_1FG@OBJBDPAC@?$AA?$CI?$AA?$CC?$AAN?$AA?5?$AAl?$AAe?$AAn?$AAg?$AAt?$AAh?$AA?5?$AAm?$AAo?$AAd?$AAi@ 00000001800b4c60     libucrtd:output.obj
 0002:00005cc0       ??_C@_1BOA@BMEGDMHF@?$AA_?$AA_?$AAc?$AAr?$AAt?$AA_?$AAs?$AAt?$AAd?$AAi?$AAo?$AA_?$AAo?$AAu?$AAt@ 00000001800b4cc0     libucrtd:output.obj
 0002:00005ea0       ??_C@_1EC@GJPNJDCN@?$AA_?$AAl?$AAe?$AAn?$AAg?$AAt?$AAh?$AA?5?$AA?$DN?$AA?$DN?$AA?5?$AAl?$AAe?$AAn?$AAg@ 00000001800b4ea0     libucrtd:output.obj
 0002:00005ee8       ??_C@_1DG@CEJKFDMO@?$AAs?$AAt?$AAa?$AAt?$AAe?$AA_?$AAc?$AAa?$AAs?$AAe?$AA_?$AAn?$AAo?$AAr?$AAm@ 00000001800b4ee8     libucrtd:output.obj
 0002:00005f20       ??_C@_1BOE@IPKNNOEE@?$AA_?$AA_?$AAc?$AAr?$AAt?$AA_?$AAs?$AAt?$AAd?$AAi?$AAo?$AA_?$AAo?$AAu?$AAt@ 00000001800b4f20     libucrtd:output.obj
 0002:00006110       ??_C@_1IC@NLEOMCDL@?$AA_?$AAt?$AAy?$AAp?$AAe?$AA_?$AAi?$AAn?$AAd?$AAe?$AAx?$AA?5?$AA?$DO?$AA?$DN?$AA?5@ 00000001800b5110     libucrtd:output.obj
 0002:000061a0       ??_C@_1BFK@KNCMELHH@?$AA_?$AA_?$AAc?$AAr?$AAt?$AA_?$AAs?$AAt?$AAd?$AAi?$AAo?$AA_?$AAo?$AAu?$AAt@ 00000001800b51a0     libucrtd:output.obj
 0002:00006300       ??_C@_1FK@BCPANIEK@?$AA?$CI?$AA?$CC?$AAM?$AAi?$AAs?$AAs?$AAi?$AAn?$AAg?$AA?5?$AAp?$AAo?$AAs?$AAi?$AAt@ 00000001800b5300     libucrtd:output.obj
 0002:00006360       ??_C@_1BEI@IHLBHMLJ@?$AA_?$AA_?$AAc?$AAr?$AAt?$AA_?$AAs?$AAt?$AAd?$AAi?$AAo?$AA_?$AAo?$AAu?$AAt@ 00000001800b5360     libucrtd:output.obj
 0002:000064b0       ??_C@_1BMI@LKDDDFDL@?$AA_?$AA_?$AAc?$AAr?$AAt?$AA_?$AAs?$AAt?$AAd?$AAi?$AAo?$AA_?$AAo?$AAu?$AAt@ 00000001800b54b0     libucrtd:output.obj
 0002:00006680       ??_C@_1BMM@JGEKEBKL@?$AA_?$AA_?$AAc?$AAr?$AAt?$AA_?$AAs?$AAt?$AAd?$AAi?$AAo?$AA_?$AAo?$AAu?$AAt@ 00000001800b5680     libucrtd:output.obj
 0002:00006850       ??_C@_1BEO@ODGKIOAL@?$AA_?$AA_?$AAc?$AAr?$AAt?$AA_?$AAs?$AAt?$AAd?$AAi?$AAo?$AA_?$AAo?$AAu?$AAt@ 00000001800b5850     libucrtd:output.obj
 0002:000069a0       ??_C@_1BDM@GFCGMNL@?$AA_?$AA_?$AAc?$AAr?$AAt?$AA_?$AAs?$AAt?$AAd?$AAi?$AAo?$AA_?$AAo?$AAu?$AAt@ 00000001800b59a0     libucrtd:output.obj
 0002:00006ae0       ??_C@_1BMI@KBPJOJJI@?$AA_?$AA_?$AAc?$AAr?$AAt?$AA_?$AAs?$AAt?$AAd?$AAi?$AAo?$AA_?$AAo?$AAu?$AAt@ 00000001800b5ae0     libucrtd:output.obj
 0002:00006cb0       ??_C@_1BMM@PGHHMNDM@?$AA_?$AA_?$AAc?$AAr?$AAt?$AA_?$AAs?$AAt?$AAd?$AAi?$AAo?$AA_?$AAo?$AAu?$AAt@ 00000001800b5cb0     libucrtd:output.obj
 0002:00006e80       ??_C@_1CI@DDKMNCPP@?$AA_?$AAc?$AAo?$AAn?$AAt?$AAe?$AAx?$AAt?$AA?5?$AA?$CB?$AA?$DN?$AA?5?$AAn?$AAu?$AAl@ 00000001800b5e80     libucrtd:output.obj
 0002:00006eb0       ??_C@_1HK@IIPGOADH@?$AA_?$AA_?$AAc?$AAr?$AAt?$AA_?$AAs?$AAt?$AAd?$AAi?$AAo?$AA_?$AAo?$AAu?$AAt@ 00000001800b5eb0     libucrtd:output.obj
 0002:00006f30       ??_C@_1BLA@MEDMHIOH@?$AA_?$AA_?$AAc?$AAr?$AAt?$AA_?$AAs?$AAt?$AAd?$AAi?$AAo?$AA_?$AAo?$AAu?$AAt@ 00000001800b5f30     libucrtd:output.obj
 0002:000070e0       ??_C@_1BLE@LCKPBJON@?$AA_?$AA_?$AAc?$AAr?$AAt?$AA_?$AAs?$AAt?$AAd?$AAi?$AAo?$AA_?$AAo?$AAu?$AAt@ 00000001800b60e0     libucrtd:output.obj
 0002:000072a0       ??_C@_1HE@IACOMEJF@?$AA_?$AA_?$AAc?$AAr?$AAt?$AA_?$AAs?$AAt?$AAd?$AAi?$AAo?$AA_?$AAo?$AAu?$AAt@ 00000001800b62a0     libucrtd:output.obj
 0002:00007320       ??_C@_1BOA@CBIEMBEE@?$AA_?$AA_?$AAc?$AAr?$AAt?$AA_?$AAs?$AAt?$AAd?$AAi?$AAo?$AA_?$AAo?$AAu?$AAt@ 00000001800b6320     libucrtd:output.obj
 0002:00007500       ??_C@_1BOE@NLICFINO@?$AA_?$AA_?$AAc?$AAr?$AAt?$AA_?$AAs?$AAt?$AAd?$AAi?$AAo?$AA_?$AAo?$AAu?$AAt@ 00000001800b6500     libucrtd:output.obj
 0002:000076f0       ??_C@_1BFK@IOIDDMPJ@?$AA_?$AA_?$AAc?$AAr?$AAt?$AA_?$AAs?$AAt?$AAd?$AAi?$AAo?$AA_?$AAo?$AAu?$AAt@ 00000001800b66f0     libucrtd:output.obj
 0002:00007850       ??_C@_1BEI@JNJAFAD@?$AA_?$AA_?$AAc?$AAr?$AAt?$AA_?$AAs?$AAt?$AAd?$AAi?$AAo?$AA_?$AAo?$AAu?$AAt@ 00000001800b6850     libucrtd:output.obj
 0002:000079a0       ??_C@_1BMI@PKGBOKJK@?$AA_?$AA_?$AAc?$AAr?$AAt?$AA_?$AAs?$AAt?$AAd?$AAi?$AAo?$AA_?$AAo?$AAu?$AAt@ 00000001800b69a0     libucrtd:output.obj
 0002:00007b70       ??_C@_1BMM@BLBJDDIA@?$AA_?$AA_?$AAc?$AAr?$AAt?$AA_?$AAs?$AAt?$AAd?$AAi?$AAo?$AA_?$AAo?$AAu?$AAt@ 00000001800b6b70     libucrtd:output.obj
 0002:00007d40       ??_C@_1BEO@JEHLMMKB@?$AA_?$AA_?$AAc?$AAr?$AAt?$AA_?$AAs?$AAt?$AAd?$AAi?$AAo?$AA_?$AAo?$AAu?$AAt@ 00000001800b6d40     libucrtd:output.obj
 0002:00007e90       ??_C@_1BDM@FDOLKCHK@?$AA_?$AA_?$AAc?$AAr?$AAt?$AA_?$AAs?$AAt?$AAd?$AAi?$AAo?$AA_?$AAo?$AAu?$AAt@ 00000001800b6e90     libucrtd:output.obj
 0002:00007fd0       ??_C@_1BNK@ONPHCEAM@?$AA_?$AA_?$AAc?$AAr?$AAt?$AA_?$AAs?$AAt?$AAd?$AAi?$AAo?$AA_?$AAo?$AAu?$AAt@ 00000001800b6fd0     libucrtd:output.obj
 0002:000081b0       ??_C@_1BNO@LMMLJOOJ@?$AA_?$AA_?$AAc?$AAr?$AAt?$AA_?$AAs?$AAt?$AAd?$AAi?$AAo?$AA_?$AAo?$AAu?$AAt@ 00000001800b71b0     libucrtd:output.obj
 0002:00008390       ??_C@_1GC@BNMHNGKM@?$AA_?$AAs?$AAt?$AAa?$AAt?$AAe?$AA?5?$AA?$DN?$AA?$DN?$AA?5?$AAs?$AAt?$AAa?$AAt?$AAe@ 00000001800b7390     libucrtd:output.obj
 0002:00008400       ??_C@_1BEC@FNIGNBHI@?$AA_?$AA_?$AAc?$AAr?$AAt?$AA_?$AAs?$AAt?$AAd?$AAi?$AAo?$AA_?$AAo?$AAu?$AAt@ 00000001800b7400     libucrtd:output.obj
 0002:00008550       ??_C@_1BMC@DAENMDAD@?$AA_?$AA_?$AAc?$AAr?$AAt?$AA_?$AAs?$AAt?$AAd?$AAi?$AAo?$AA_?$AAo?$AAu?$AAt@ 00000001800b7550     libucrtd:output.obj
 0002:00008720       ??_C@_1BMG@KOENKAMB@?$AA_?$AA_?$AAc?$AAr?$AAt?$AA_?$AAs?$AAt?$AAd?$AAi?$AAo?$AA_?$AAo?$AAu?$AAt@ 00000001800b7720     libucrtd:output.obj
 0002:000088f0       ??_C@_1BDG@PLANJEFE@?$AA_?$AA_?$AAc?$AAr?$AAt?$AA_?$AAs?$AAt?$AAd?$AAi?$AAo?$AA_?$AAo?$AAu?$AAt@ 00000001800b78f0     libucrtd:output.obj
 0002:00008a30       ??_C@_1BMI@DNMDMAAN@?$AA_?$AA_?$AAc?$AAr?$AAt?$AA_?$AAs?$AAt?$AAd?$AAi?$AAo?$AA_?$AAo?$AAu?$AAt@ 00000001800b7a30     libucrtd:output.obj
 0002:00008c00       ??_C@_1BMM@JHGFKAND@?$AA_?$AA_?$AAc?$AAr?$AAt?$AA_?$AAs?$AAt?$AAd?$AAi?$AAo?$AA_?$AAo?$AAu?$AAt@ 00000001800b7c00     libucrtd:output.obj
 0002:00008dd0       ??_C@_1CA@ONEGMNAN@?$AA_?$AAs?$AAt?$AAr?$AAe?$AAa?$AAm?$AA?4?$AAv?$AAa?$AAl?$AAi?$AAd?$AA?$CI?$AA?$CJ@ 00000001800b7dd0     libucrtd:output.obj
 0002:00008df0       ??_C@_1HK@MPBCDOK@?$AA_?$AA_?$AAc?$AAr?$AAt?$AA_?$AAs?$AAt?$AAd?$AAi?$AAo?$AA_?$AAo?$AAu?$AAt@ 00000001800b7df0     libucrtd:output.obj
 0002:00008e70       ??_C@_1BLA@GJNGKGIK@?$AA_?$AA_?$AAc?$AAr?$AAt?$AA_?$AAs?$AAt?$AAd?$AAi?$AAo?$AA_?$AAo?$AAu?$AAt@ 00000001800b7e70     libucrtd:output.obj
 0002:00009020       ??_C@_1BLE@PAACOKDK@?$AA_?$AA_?$AAc?$AAr?$AAt?$AA_?$AAs?$AAt?$AAd?$AAi?$AAo?$AA_?$AAo?$AAu?$AAt@ 00000001800b8020     libucrtd:output.obj
 0002:000091e0       ??_C@_1HE@FGKHNBNL@?$AA_?$AA_?$AAc?$AAr?$AAt?$AA_?$AAs?$AAt?$AAd?$AAi?$AAo?$AA_?$AAo?$AAu?$AAt@ 00000001800b81e0     libucrtd:output.obj
 0002:00009260       ??_C@_1EK@PNGFDECN@?$AA?$CI?$AA?$CC?$AA?8?$AAn?$AA?8?$AA?5?$AAf?$AAo?$AAr?$AAm?$AAa?$AAt?$AA?5?$AAs?$AAp@ 00000001800b8260     libucrtd:output.obj
 0002:000092b0       ??_C@_1BNI@OPBGCNOB@?$AA_?$AA_?$AAc?$AAr?$AAt?$AA_?$AAs?$AAt?$AAd?$AAi?$AAo?$AA_?$AAo?$AAu?$AAt@ 00000001800b82b0     libucrtd:output.obj
 0002:00009490       ??_C@_1EO@GHKFGFKL@?$AA?$CI?$AA?$CC?$AAI?$AAn?$AAv?$AAa?$AAl?$AAi?$AAd?$AA?5?$AAi?$AAn?$AAt?$AAe?$AAg@ 00000001800b8490     libucrtd:output.obj
 0002:000094e0       ??_C@_1JC@PMCLKCOC@?$AAp?$AAr?$AAe?$AAc?$AAi?$AAs?$AAi?$AAo?$AAn?$AA_?$AAi?$AAn?$AAd?$AAe?$AAx@ 00000001800b84e0     libucrtd:output.obj
 0002:00009580       ??_C@_1BAG@GKCGGKOF@?$AA_?$AA_?$AAc?$AAr?$AAt?$AA_?$AAs?$AAt?$AAd?$AAi?$AAo?$AA_?$AAo?$AAu?$AAt@ 00000001800b8580     libucrtd:output.obj
 0002:00009690       ??_C@_1IC@KGDNLBNC@?$AAw?$AAi?$AAd?$AAt?$AAh?$AA_?$AAi?$AAn?$AAd?$AAe?$AAx?$AA?5?$AA?$DO?$AA?$DN?$AA?5@ 00000001800b8690     libucrtd:output.obj
 0002:00009720       ??_C@_1BAK@CDLANFGA@?$AA_?$AA_?$AAc?$AAr?$AAt?$AA_?$AAs?$AAt?$AAd?$AAi?$AAo?$AA_?$AAo?$AAu?$AAt@ 00000001800b8720     libucrtd:output.obj
 0002:00009830       ??_C@_1BEC@NDOOKIMC@?$AA_?$AA_?$AAc?$AAr?$AAt?$AA_?$AAs?$AAt?$AAd?$AAi?$AAo?$AA_?$AAo?$AAu?$AAt@ 00000001800b8830     libucrtd:output.obj
 0002:00009980       ??_C@_1BMA@CBPCAOAB@?$AA_?$AA_?$AAc?$AAr?$AAt?$AA_?$AAs?$AAt?$AAd?$AAi?$AAo?$AA_?$AAo?$AAu?$AAt@ 00000001800b8980     libucrtd:output.obj
 0002:00009b40       ??_C@_1PK@KBJLALII@?$AA_?$AA_?$AAc?$AAr?$AAt?$AA_?$AAs?$AAt?$AAd?$AAi?$AAo?$AA_?$AAo?$AAu?$AAt@ 00000001800b8b40     libucrtd:output.obj
 0002:00009c40       ??_C@_1PO@PODEJAGE@?$AA_?$AA_?$AAc?$AAr?$AAt?$AA_?$AAs?$AAt?$AAd?$AAi?$AAo?$AA_?$AAo?$AAu?$AAt@ 00000001800b8c40     libucrtd:output.obj
 0002:00009d40       ??_C@_1BDG@KOLEFKPF@?$AA_?$AA_?$AAc?$AAr?$AAt?$AA_?$AAs?$AAt?$AAd?$AAi?$AAo?$AA_?$AAo?$AAu?$AAt@ 00000001800b8d40     libucrtd:output.obj
 0002:00009e80       ??_C@_1BMA@IHIBOLMD@?$AA_?$AA_?$AAc?$AAr?$AAt?$AA_?$AAs?$AAt?$AAd?$AAi?$AAo?$AA_?$AAo?$AAu?$AAt@ 00000001800b8e80     libucrtd:output.obj
 0002:0000a040       ??_C@_1BKI@CJEIGDAI@?$AA_?$AA_?$AAc?$AAr?$AAt?$AA_?$AAs?$AAt?$AAd?$AAi?$AAo?$AA_?$AAo?$AAu?$AAt@ 00000001800b9040     libucrtd:output.obj
 0002:0000a1f0       ??_C@_1BNI@IMOCDBNE@?$AA_?$AA_?$AAc?$AAr?$AAt?$AA_?$AAs?$AAt?$AAd?$AAi?$AAo?$AA_?$AAo?$AAu?$AAt@ 00000001800b91f0     libucrtd:output.obj
 0002:0000a3d0       ??_C@_1BAG@DOFNHDMF@?$AA_?$AA_?$AAc?$AAr?$AAt?$AA_?$AAs?$AAt?$AAd?$AAi?$AAo?$AA_?$AAo?$AAu?$AAt@ 00000001800b93d0     libucrtd:output.obj
 0002:0000a4e0       ??_C@_1BAK@DALINHHB@?$AA_?$AA_?$AAc?$AAr?$AAt?$AA_?$AAs?$AAt?$AAd?$AAi?$AAo?$AA_?$AAo?$AAu?$AAt@ 00000001800b94e0     libucrtd:output.obj
 0002:0000a5f0       ??_C@_1BMA@GACGPGHN@?$AA_?$AA_?$AAc?$AAr?$AAt?$AA_?$AAs?$AAt?$AAd?$AAi?$AAo?$AA_?$AAo?$AAu?$AAt@ 00000001800b95f0     libucrtd:output.obj
 0002:0000a7b0       ??_C@_1PK@KBJECIEM@?$AA_?$AA_?$AAc?$AAr?$AAt?$AA_?$AAs?$AAt?$AAd?$AAi?$AAo?$AA_?$AAo?$AAu?$AAt@ 00000001800b97b0     libucrtd:output.obj
 0002:0000a8b0       ??_C@_1PO@LKIIANED@?$AA_?$AA_?$AAc?$AAr?$AAt?$AA_?$AAs?$AAt?$AAd?$AAi?$AAo?$AA_?$AAo?$AAu?$AAt@ 00000001800b98b0     libucrtd:output.obj
 0002:0000a9b0       ??_C@_1BNC@DONELHFF@?$AA_?$AA_?$AAc?$AAr?$AAt?$AA_?$AAs?$AAt?$AAd?$AAi?$AAo?$AA_?$AAo?$AAu?$AAt@ 00000001800b99b0     libucrtd:output.obj
 0002:0000ab90       ??_C@_1BLK@BGFMMAPO@?$AA_?$AA_?$AAc?$AAr?$AAt?$AA_?$AAs?$AAt?$AAd?$AAi?$AAo?$AA_?$AAo?$AAu?$AAt@ 00000001800b9b90     libucrtd:output.obj
 0002:0000ad50       ??_C@_1BMA@PGOJAHFP@?$AA_?$AA_?$AAc?$AAr?$AAt?$AA_?$AAs?$AAt?$AAd?$AAi?$AAo?$AA_?$AAo?$AAu?$AAt@ 00000001800b9d50     libucrtd:output.obj
 0002:0000af10       ??_C@_1BKI@NDKBCDGP@?$AA_?$AA_?$AAc?$AAr?$AAt?$AA_?$AAs?$AAt?$AAd?$AAi?$AAo?$AA_?$AAo?$AAu?$AAt@ 00000001800b9f10     libucrtd:output.obj
