 win32_spectrum

 Timestamp is 6921bc8b (Sat Nov 22 15:37:15 2025)

 Preferred load address is 0000000140000000

 Start         Length     Name                   Class
 0001:00000000 000ac330H .text$mn                CODE
 0001:000ac330 00000060H .text$mn$00             CODE
 0001:000ac390 00000d10H .text$mn$21             CODE
 0001:000ad0a0 00000ebdH .text$x                 CODE
 0002:00000000 00000300H .idata$5                DATA
 0002:00000300 00000038H .00cfg                  DATA
 0002:00000338 00000008H .CRT$XCA                DATA
 0002:00000340 00000008H .CRT$XCAA               DATA
 0002:00000348 00000008H .CRT$XCZ                DATA
 0002:00000350 00000008H .CRT$XIA                DATA
 0002:00000358 00000008H .CRT$XIAA               DATA
 0002:00000360 00000008H .CRT$XIAC               DATA
 0002:00000368 00000020H .CRT$XIC                DATA
 0002:00000388 00000008H .CRT$XIZ                DATA
 0002:00000390 00000008H .CRT$XPA                DATA
 0002:00000398 00000010H .CRT$XPX                DATA
 0002:000003a8 00000008H .CRT$XPXA               DATA
 0002:000003b0 00000008H .CRT$XPZ                DATA
 0002:000003b8 00000008H .CRT$XTA                DATA
 0002:000003c0 00000010H .CRT$XTZ                DATA
 0002:000003c8 00000000H .gehcont$y              DATA
 0002:000003c8 00000000H .gfids$y                DATA
 0002:000003d0 00020950H .rdata                  DATA
 0002:00020d20 00000160H .rdata$00               DATA
 0002:00020e80 00000080H .rdata$CastGuardVftablesA DATA
 0002:00020f00 00000080H .rdata$CastGuardVftablesC DATA
 0002:00020f80 00000464H .rdata$r                DATA
 0002:000213e4 0000013cH .rdata$voltmd           DATA
 0002:00021520 000003f0H .rdata$zzzdbg           DATA
 0002:00021910 00000008H .rtc$IAA                DATA
 0002:00021918 00000008H .rtc$IZZ                DATA
 0002:00021920 00000008H .rtc$TAA                DATA
 0002:00021928 00000008H .rtc$TZZ                DATA
 0002:00021930 00006cf0H .xdata                  DATA
 0002:00028620 00000084H .xdata$x                DATA
 0002:000286a4 00000000H .edata                  DATA
 0002:000286a4 00000014H .idata$2                DATA
 0002:000286b8 00000018H .idata$3                DATA
 0002:000286d0 00000300H .idata$4                DATA
 0002:000289d0 000006fcH .idata$6                DATA
 0003:00000000 00000b20H .data                   DATA
 0003:00000b20 00000078H .data$r                 DATA
 0003:00000b98 000000f8H .data$rs                DATA
 0003:00000c90 000019a8H .bss                    DATA
 0004:00000000 0000825cH .pdata                  DATA
 0005:00000000 00000100H .fptable                DATA

  Address         Publics by Value              Rva+Base               Lib:Object

 0000:00000000       __AbsoluteZero             0000000000000000     <absolute>
 0000:00000000       ___safe_se_handler_count   0000000000000000     <absolute>
 0000:00000000       ___safe_se_handler_table   0000000000000000     <absolute>
 0000:00000000       __arm64x_extra_rfe_table   0000000000000000     <absolute>
 0000:00000000       __arm64x_extra_rfe_table_size 0000000000000000     <absolute>
 0000:00000000       __arm64x_native_entrypoint 0000000000000000     <absolute>
 0000:00000000       __arm64x_redirection_metadata 0000000000000000     <absolute>
 0000:00000000       __arm64x_redirection_metadata_count 0000000000000000     <absolute>
 0000:00000000       __dynamic_value_reloc_table 0000000000000000     <absolute>
 0000:00000000       __enclave_config           0000000000000000     <absolute>
 0000:00000000       __guard_check_icall_a64n_fptr 0000000000000000     <absolute>
 0000:00000000       __guard_eh_cont_count      0000000000000000     <absolute>
 0000:00000000       __guard_eh_cont_table      0000000000000000     <absolute>
 0000:00000000       __guard_fids_count         0000000000000000     <absolute>
 0000:00000000       __guard_fids_table         0000000000000000     <absolute>
 0000:00000000       __guard_iat_count          0000000000000000     <absolute>
 0000:00000000       __guard_iat_table          0000000000000000     <absolute>
 0000:00000000       __guard_longjmp_count      0000000000000000     <absolute>
 0000:00000000       __guard_longjmp_table      0000000000000000     <absolute>
 0000:00000000       __hybrid_auxiliary_delayload_iat 0000000000000000     <absolute>
 0000:00000000       __hybrid_auxiliary_delayload_iat_copy 0000000000000000     <absolute>
 0000:00000000       __hybrid_auxiliary_iat     0000000000000000     <absolute>
 0000:00000000       __hybrid_auxiliary_iat_copy 0000000000000000     <absolute>
 0000:00000000       __hybrid_code_map          0000000000000000     <absolute>
 0000:00000000       __hybrid_code_map_count    0000000000000000     <absolute>
 0000:00000000       __hybrid_image_info_bitfield 0000000000000000     <absolute>
 0000:00000000       __x64_code_ranges_to_entry_points 0000000000000000     <absolute>
 0000:00000000       __x64_code_ranges_to_entry_points_count 0000000000000000     <absolute>
 0000:00000100       __guard_flags              0000000000000100     <absolute>
 0000:00000000       __ImageBase                0000000140000000     <linker-defined>
 0001:00000000       WinMain                    0000000140001000 f   win32_spectrum.obj
 0001:00000030       __local_stdio_printf_options 0000000140001030 f i win32_spectrum.obj
 0001:00000040       _vfprintf_l                0000000140001040 f i win32_spectrum.obj
 0001:00000090       printf                     0000000140001090 f i win32_spectrum.obj
 0001:000003b0       ?configure_argv@__scrt_narrow_argv_policy@@SAHXZ 00000001400013b0 f i LIBCMTD:exe_winmain.obj
 0001:000003d0       ?initialize_environment@__scrt_narrow_environment_policy@@SAHXZ 00000001400013d0 f i LIBCMTD:exe_winmain.obj
 0001:00000420       ?set_app_type@__scrt_winmain_policy@@SAXXZ 0000000140001420 f i LIBCMTD:exe_winmain.obj
 0001:00000440       ?set_commode@__scrt_file_policy@@SAXXZ 0000000140001440 f i LIBCMTD:exe_winmain.obj
 0001:00000460       ?set_fmode@__scrt_file_policy@@SAXXZ 0000000140001460 f i LIBCMTD:exe_winmain.obj
 0001:00000480       WinMainCRTStartup          0000000140001480 f   LIBCMTD:exe_winmain.obj
 0001:00000600       NtCurrentTeb               0000000140001600 f i LIBCMTD:utility.obj
 0001:00000610       __scrt_acquire_startup_lock 0000000140001610 f   LIBCMTD:utility.obj
 0001:00000680       __scrt_dllmain_after_initialize_c 0000000140001680 f   LIBCMTD:utility.obj
 0001:000006b0       __scrt_dllmain_before_initialize_c 00000001400016b0 f   LIBCMTD:utility.obj
 0001:000006d0       __scrt_dllmain_crt_thread_attach 00000001400016d0 f   LIBCMTD:utility.obj
 0001:00000700       __scrt_dllmain_crt_thread_detach 0000000140001700 f   LIBCMTD:utility.obj
 0001:00000720       __scrt_dllmain_exception_filter 0000000140001720 f   LIBCMTD:utility.obj
 0001:00000790       __scrt_dllmain_uninitialize_c 0000000140001790 f   LIBCMTD:utility.obj
 0001:000007c0       __scrt_dllmain_uninitialize_critical 00000001400017c0 f   LIBCMTD:utility.obj
 0001:000007e0       __scrt_initialize_crt      00000001400017e0 f   LIBCMTD:utility.obj
 0001:00000830       __scrt_initialize_onexit_tables 0000000140001830 f   LIBCMTD:utility.obj
 0001:00000940       __scrt_is_nonwritable_in_current_image 0000000140001940 f   LIBCMTD:utility.obj
 0001:000009d0       __scrt_release_startup_lock 00000001400019d0 f   LIBCMTD:utility.obj
 0001:00000a00       __scrt_uninitialize_crt    0000000140001a00 f   LIBCMTD:utility.obj
 0001:00000a40       _onexit                    0000000140001a40 f   LIBCMTD:utility.obj
 0001:00000ac0       at_quick_exit              0000000140001ac0 f   LIBCMTD:utility.obj
 0001:00000b10       atexit                     0000000140001b10 f   LIBCMTD:utility.obj
 0001:00000c10       __security_init_cookie     0000000140001c10 f   LIBCMTD:gs_support.obj
 0001:00000c90       _matherr                   0000000140001c90 f   LIBCMTD:matherr.obj
 0001:00000ca0       _get_startup_argv_mode     0000000140001ca0 f   LIBCMTD:argv_mode.obj
 0001:00000cb0       _get_startup_commit_mode   0000000140001cb0 f   LIBCMTD:commit_mode.obj
 0001:00000cc0       _get_startup_file_mode     0000000140001cc0 f   LIBCMTD:file_mode.obj
 0001:00000cd0       _get_startup_new_mode      0000000140001cd0 f   LIBCMTD:new_mode.obj
 0001:00000ce0       _get_startup_thread_locale_mode 0000000140001ce0 f   LIBCMTD:thread_locale.obj
 0001:00000cf0       ?__scrt_initialize_type_info@@YAXXZ 0000000140001cf0 f   LIBCMTD:tncleanup.obj
 0001:00000d10       ?__scrt_uninitialize_type_info@@YAXXZ 0000000140001d10 f   LIBCMTD:tncleanup.obj
 0001:00000d30       _should_initialize_environment 0000000140001d30 f   LIBCMTD:env_mode.obj
 0001:00000d40       _initialize_invalid_parameter_handler 0000000140001d40 f   LIBCMTD:invalid_parameter_handler.obj
 0001:00000d50       _initialize_denormal_control 0000000140001d50 f   LIBCMTD:denormal_control.obj
 0001:00000d60       __local_stdio_scanf_options 0000000140001d60 f i LIBCMTD:default_local_stdio_options.obj
 0001:00000d70       __scrt_initialize_default_local_stdio_options 0000000140001d70 f   LIBCMTD:default_local_stdio_options.obj
 0001:00000dc0       __scrt_is_user_matherr_present 0000000140001dc0 f   LIBCMTD:matherr_detection.obj
 0001:00000df0       __scrt_get_dyn_tls_init_callback 0000000140001df0 f   LIBCMTD:dyn_tls_init.obj
 0001:00000e00       __scrt_get_dyn_tls_dtor_callback 0000000140001e00 f   LIBCMTD:dyn_tls_dtor.obj
 0001:00000e10       __crt_debugger_hook        0000000140001e10 f   LIBCMTD:utility_desktop.obj
 0001:00000e20       __scrt_fastfail            0000000140001e20 f   LIBCMTD:utility_desktop.obj
 0001:00000fc0       __scrt_get_show_window_mode 0000000140001fc0 f   LIBCMTD:utility_desktop.obj
 0001:00001020       __scrt_initialize_mta      0000000140002020 f   LIBCMTD:utility_desktop.obj
 0001:00001030       __scrt_initialize_winrt    0000000140002030 f   LIBCMTD:utility_desktop.obj
 0001:00001040       __scrt_is_managed_app      0000000140002040 f   LIBCMTD:utility_desktop.obj
 0001:000010f0       __scrt_set_unhandled_exception_filter 00000001400020f0 f   LIBCMTD:utility_desktop.obj
 0001:00001110       __scrt_exe_initialize_mta  0000000140002110 f   LIBCMTD:utility_desktop.obj
 0001:00001110       __scrt_stub_for_initialize_mta 0000000140002110 f   LIBCMTD:utility_desktop.obj
 0001:00001120       __scrt_unhandled_exception_filter 0000000140002120 f   LIBCMTD:utility_desktop.obj
 0001:000011c0       _RTC_Initialize            00000001400021c0 f   LIBCMTD:initsect.obj
 0001:00001210       _RTC_Terminate             0000000140002210 f   LIBCMTD:initsect.obj
 0001:00001260       _guard_check_icall_nop     0000000140002260 f i LIBCMTD:guard_support.obj
 0001:00001270       ReadNoFence64              0000000140002270 f i LIBCMTD:guard_support.obj
 0001:00001290       ReadPointerNoFence         0000000140002290 f i LIBCMTD:guard_support.obj
 0001:000012b0       __castguard_check_failure_debugbreak 00000001400022b0 f i LIBCMTD:guard_support.obj
 0001:000012d0       __castguard_check_failure_fastfail 00000001400022d0 f i LIBCMTD:guard_support.obj
 0001:00001300       __castguard_check_failure_nop 0000000140002300 f i LIBCMTD:guard_support.obj
 0001:00001310       __castguard_check_failure_os_handled 0000000140002310 f i LIBCMTD:guard_support.obj
 0001:00001380       __castguard_check_failure_user_handled 0000000140002380 f i LIBCMTD:guard_support.obj
 0001:00001470       __castguard_set_user_handler 0000000140002470 f i LIBCMTD:guard_support.obj
 0001:000014a0       __castguard_slow_path_check_debugbreak 00000001400024a0 f i LIBCMTD:guard_support.obj
 0001:000014e0       __castguard_slow_path_check_fastfail 00000001400024e0 f i LIBCMTD:guard_support.obj
 0001:00001530       __castguard_slow_path_check_nop 0000000140002530 f i LIBCMTD:guard_support.obj
 0001:00001540       __castguard_slow_path_check_os_handled 0000000140002540 f i LIBCMTD:guard_support.obj
 0001:00001590       __castguard_slow_path_check_user_handled 0000000140002590 f i LIBCMTD:guard_support.obj
 0001:00001650       _guard_icall_checks_enforced 0000000140002650 f i LIBCMTD:guard_support.obj
 0001:00001690       _guard_rf_checks_enforced  0000000140002690 f i LIBCMTD:guard_support.obj
 0001:000016a0       __isa_available_init       00000001400026a0 f   LIBCMTD:cpu_disp.obj
 0001:00001b90       __scrt_is_ucrt_dll_in_use  0000000140002b90 f   LIBCMTD:ucrt_detection.obj
 0001:00001bc0       __GSHandlerCheck           0000000140002bc0 f   LIBCMTD:gshandler.obj
 0001:00001c00       __GSHandlerCheckCommon     0000000140002c00 f   LIBCMTD:gshandler.obj
 0001:00001d10       __security_check_cookie    0000000140002d10 f   LIBCMTD:amdsecgs.obj
 0001:00001d30       __raise_securityfailure    0000000140002d30 f   LIBCMTD:gs_report.obj
 0001:00001d70       __report_gsfailure         0000000140002d70 f   LIBCMTD:gs_report.obj
 0001:00001e50       __report_rangecheckfailure 0000000140002e50 f   LIBCMTD:gs_report.obj
 0001:00001e70       __report_securityfailure   0000000140002e70 f   LIBCMTD:gs_report.obj
 0001:00001f10       __report_securityfailureEx 0000000140002f10 f   LIBCMTD:gs_report.obj
 0001:00002180       __C_specific_handler       0000000140003180 f   libvcruntimed:riscchandler.obj
 0001:000025f0       __vcrt_initialize          00000001400035f0 f   libvcruntimed:initialization.obj
 0001:00002630       __vcrt_thread_attach       0000000140003630 f   libvcruntimed:initialization.obj
 0001:00002650       __vcrt_thread_detach       0000000140003650 f   libvcruntimed:initialization.obj
 0001:00002660       __vcrt_uninitialize        0000000140003660 f   libvcruntimed:initialization.obj
 0001:00002680       __vcrt_uninitialize_critical 0000000140003680 f   libvcruntimed:initialization.obj
 0001:000026e0       ??$?RD@__crt_internal_free_policy@@QEBAXQEBD@Z 00000001400036e0 f i libvcruntimed:std_type_info.obj
 0001:00002710       ??$?RX@__crt_internal_free_policy@@QEBAXQEBX@Z 0000000140003710 f i libvcruntimed:std_type_info.obj
 0001:00002740       ??$__crt_interlocked_compare_exchange_pointer@$$CBDPEAD$$T@@YAPEBDPEDSEBDQEAD$$T@Z 0000000140003740 f i libvcruntimed:std_type_info.obj
 0001:00002780       ??$__crt_interlocked_read_pointer@$$CBD@@YAPEBDPEDSEBD@Z 0000000140003780 f i libvcruntimed:std_type_info.obj
 0001:000027a0       ??0?$__crt_unique_heap_ptr@DU__crt_internal_free_policy@@@@QEAA@QEAD@Z 00000001400037a0 f i libvcruntimed:std_type_info.obj
 0001:000027c0       ??0?$__crt_unique_heap_ptr@XU__crt_internal_free_policy@@@@QEAA@QEAX@Z 00000001400037c0 f i libvcruntimed:std_type_info.obj
 0001:000027e0       ??1?$__crt_unique_heap_ptr@DU__crt_internal_free_policy@@@@QEAA@XZ 00000001400037e0 f i libvcruntimed:std_type_info.obj
 0001:00002800       ??1?$__crt_unique_heap_ptr@XU__crt_internal_free_policy@@@@QEAA@XZ 0000000140003800 f i libvcruntimed:std_type_info.obj
 0001:00002820       ??B?$__crt_unique_heap_ptr@DU__crt_internal_free_policy@@@@QEBA_NXZ 0000000140003820 f i libvcruntimed:std_type_info.obj
 0001:00002840       ??B?$__crt_unique_heap_ptr@XU__crt_internal_free_policy@@@@QEBA_NXZ 0000000140003840 f i libvcruntimed:std_type_info.obj
 0001:000028c0       ?__crt_interlocked_read_64@@YA_JPED_J@Z 00000001400038c0 f i libvcruntimed:std_type_info.obj
 0001:000028e0       ?detach@?$__crt_unique_heap_ptr@XU__crt_internal_free_policy@@@@QEAAPEAXXZ 00000001400038e0 f i libvcruntimed:std_type_info.obj
 0001:00002910       ?get@?$__crt_unique_heap_ptr@DU__crt_internal_free_policy@@@@QEBAPEADXZ 0000000140003910 f i libvcruntimed:std_type_info.obj
 0001:00002920       ?get@?$__crt_unique_heap_ptr@XU__crt_internal_free_policy@@@@QEBAPEAXXZ 0000000140003920 f i libvcruntimed:std_type_info.obj
 0001:00002930       ?is_valid@?$__crt_unique_heap_ptr@DU__crt_internal_free_policy@@@@QEBA_NXZ 0000000140003930 f i libvcruntimed:std_type_info.obj
 0001:00002960       ?is_valid@?$__crt_unique_heap_ptr@XU__crt_internal_free_policy@@@@QEBA_NXZ 0000000140003960 f i libvcruntimed:std_type_info.obj
 0001:00002990       ?release@?$__crt_unique_heap_ptr@DU__crt_internal_free_policy@@@@QEAAXXZ 0000000140003990 f i libvcruntimed:std_type_info.obj
 0001:000029c0       ?release@?$__crt_unique_heap_ptr@XU__crt_internal_free_policy@@@@QEAAXXZ 00000001400039c0 f i libvcruntimed:std_type_info.obj
 0001:000029f0       __std_type_info_compare    00000001400039f0 f   libvcruntimed:std_type_info.obj
 0001:00002a30       __std_type_info_destroy_list 0000000140003a30 f   libvcruntimed:std_type_info.obj
 0001:00002a90       __std_type_info_hash       0000000140003a90 f   libvcruntimed:std_type_info.obj
 0001:00002b40       __std_type_info_name       0000000140003b40 f   libvcruntimed:std_type_info.obj
 0001:00002dd0       __DestructExceptionObject  0000000140003dd0 f   libvcruntimed:ehhelpers.obj
 0001:00002ed0       ?_CallMemberFunction0@@YAXQEAX0@Z 0000000140003ed0 f i libvcruntimed:ehhelpers.obj
 0001:00002fb0       ?raw_name@type_info@@QEBAPEBDXZ 0000000140003fb0 f i libvcruntimed:ehhelpers.obj
 0001:00002fc0       _IsExceptionObjectToBeDestroyed 0000000140003fc0 f   libvcruntimed:ehhelpers.obj
 0001:00003010       _SetWinRTOutOfMemoryExceptionCallback 0000000140004010 f   libvcruntimed:ehhelpers.obj
 0001:00003030       __AdjustPointer            0000000140004030 f   libvcruntimed:ehhelpers.obj
 0001:000030b0       __FrameUnwindFilter        00000001400040b0 f   libvcruntimed:ehhelpers.obj
 0001:00003160       __GetPlatformExceptionInfo 0000000140004160 f   libvcruntimed:ehhelpers.obj
 0001:00003210       __current_exception        0000000140004210 f   libvcruntimed:ehhelpers.obj
 0001:00003230       __current_exception_context 0000000140004230 f   libvcruntimed:ehhelpers.obj
 0001:00003250       __processing_throw         0000000140004250 f   libvcruntimed:ehhelpers.obj
 0001:00003270       __std_terminate            0000000140004270 f   libvcruntimed:ehhelpers.obj
 0001:00003280       _is_exception_typeof       0000000140004280 f   libvcruntimed:ehhelpers.obj
 0001:00003400       _NLG_Notify                0000000140004400 f   libvcruntimed:notify.obj
 0001:00003420       __NLG_Dispatch2            0000000140004420 f   libvcruntimed:notify.obj
 0001:00003430       __NLG_Return2              0000000140004430 f   libvcruntimed:notify.obj
 0001:00003450       __except_validate_context_record 0000000140004450 f   libvcruntimed:jbcxrval.obj
 0001:000034b0       __except_validate_jump_buffer 00000001400044b0 f   libvcruntimed:jbcxrval.obj
 0001:000034d0       __except_validate_jump_buffer_common 00000001400044d0 f i libvcruntimed:jbcxrval.obj
 0001:00003550       ??$?RU__vcrt_ptd@@@__crt_internal_free_policy@@QEBAXQEBU__vcrt_ptd@@@Z 0000000140004550 f i libvcruntimed:per_thread_data.obj
 0001:00003580       ??0?$__crt_unique_heap_ptr@U__vcrt_ptd@@U__crt_internal_free_policy@@@@QEAA@QEAU__vcrt_ptd@@@Z 0000000140004580 f i libvcruntimed:per_thread_data.obj
 0001:000035c0       ??1?$__crt_unique_heap_ptr@U__vcrt_ptd@@U__crt_internal_free_policy@@@@QEAA@XZ 00000001400045c0 f i libvcruntimed:per_thread_data.obj
 0001:00003600       ??B?$__crt_unique_heap_ptr@U__vcrt_ptd@@U__crt_internal_free_policy@@@@QEBA_NXZ 0000000140004600 f i libvcruntimed:per_thread_data.obj
 0001:00003620       ?detach@?$__crt_unique_heap_ptr@U__vcrt_ptd@@U__crt_internal_free_policy@@@@QEAAPEAU__vcrt_ptd@@XZ 0000000140004620 f i libvcruntimed:per_thread_data.obj
 0001:00003650       ?get@?$__crt_unique_heap_ptr@U__vcrt_ptd@@U__crt_internal_free_policy@@@@QEBAPEAU__vcrt_ptd@@XZ 0000000140004650 f i libvcruntimed:per_thread_data.obj
 0001:00003660       ?is_valid@?$__crt_unique_heap_ptr@U__vcrt_ptd@@U__crt_internal_free_policy@@@@QEBA_NXZ 0000000140004660 f i libvcruntimed:per_thread_data.obj
 0001:00003690       ?release@?$__crt_unique_heap_ptr@U__vcrt_ptd@@U__crt_internal_free_policy@@@@QEAAXXZ 0000000140004690 f i libvcruntimed:per_thread_data.obj
 0001:00003700       __vcrt_freefls             0000000140004700 f   libvcruntimed:per_thread_data.obj
 0001:00003740       __vcrt_freeptd_for_this_thread 0000000140004740 f   libvcruntimed:per_thread_data.obj
 0001:00003780       __vcrt_getptd              0000000140004780 f   libvcruntimed:per_thread_data.obj
 0001:000037b0       __vcrt_getptd_noexit       00000001400047b0 f   libvcruntimed:per_thread_data.obj
 0001:00003950       __vcrt_getptd_noinit       0000000140004950 f   libvcruntimed:per_thread_data.obj
 0001:000039b0       __vcrt_initialize_ptd      00000001400049b0 f   libvcruntimed:per_thread_data.obj
 0001:00003a00       __vcrt_uninitialize_ptd    0000000140004a00 f   libvcruntimed:per_thread_data.obj
 0001:00003a30       __vcrt_initialize_locks    0000000140004a30 f   libvcruntimed:locks.obj
 0001:00003aa0       __vcrt_lock                0000000140004aa0 f   libvcruntimed:locks.obj
 0001:00003ad0       __vcrt_uninitialize_locks  0000000140004ad0 f   libvcruntimed:locks.obj
 0001:00003b30       __vcrt_unlock              0000000140004b30 f   libvcruntimed:locks.obj
 0001:00003b60       ??$?0$00@DName@@QEAA@PEAVUnDecorator@@PEBDU?$StringLifeSelector@$00@@@Z 0000000140004b60 f i libvcruntimed:undname.obj
 0001:00003be0       ??$?0$00@pcharNode@@QEAA@PEBDHU?$StringLifeSelector@$00@@AEAV_HeapManager@@@Z 0000000140004be0 f i libvcruntimed:undname.obj
 0001:00003c40       ??$?0$01@DName@@QEAA@PEAVUnDecorator@@PEBDU?$StringLifeSelector@$01@@@Z 0000000140004c40 f i libvcruntimed:undname.obj
 0001:00003cc0       ??$?0$01@pcharNode@@QEAA@PEBDHU?$StringLifeSelector@$01@@AEAV_HeapManager@@@Z 0000000140004cc0 f i libvcruntimed:undname.obj
 0001:00003d70       ??$?0$0A@@DName@@QEAA@PEAVUnDecorator@@PEBDU?$StringLifeSelector@$0A@@@@Z 0000000140004d70 f i libvcruntimed:undname.obj
 0001:00003df0       ??$?0$0A@@pcharNode@@QEAA@PEBDHU?$StringLifeSelector@$0A@@@AEAV_HeapManager@@@Z 0000000140004df0 f i libvcruntimed:undname.obj
 0001:00003ea0       ??$?0_K$0A@@?$optional@_K@std@@QEAA@$$QEA_K@Z 0000000140004ea0 f i libvcruntimed:undname.obj
 0001:00003ed0       ??$?0_K@?$_Optional_construct_base@_K@std@@QEAA@Uin_place_t@1@$$QEA_K@Z 0000000140004ed0 f i libvcruntimed:undname.obj
 0001:00003f10       ??$?0_K@?$_Optional_destruct_base@_K$00@std@@QEAA@Uin_place_t@1@$$QEA_K@Z 0000000140004f10 f i libvcruntimed:undname.obj
 0001:00003f40       ??$append@VDNameNode@@@DName@@AEAAXPEBVDNameNode@@@Z 0000000140004f40 f i libvcruntimed:undname.obj
 0001:00004000       ??$append@VDNameStatusNode@@@DName@@AEAAXPEBVDNameStatusNode@@@Z 0000000140005000 f i libvcruntimed:undname.obj
 0001:000040c0       ??$append@VcharNode@@@DName@@AEAAXPEBVcharNode@@@Z 00000001400050c0 f i libvcruntimed:undname.obj
 0001:00004180       ??$append@VpDNameNode@@@DName@@AEAAXPEBVpDNameNode@@@Z 0000000140005180 f i libvcruntimed:undname.obj
 0001:00004240       ??$append@VpcharNode@@@DName@@AEAAXPEBVpcharNode@@@Z 0000000140005240 f i libvcruntimed:undname.obj
 0001:00004300       ??$doPchar@$00@DName@@AEAAXPEBDH@Z 0000000140005300 f i libvcruntimed:undname.obj
 0001:000044b0       ??$doPchar@$01@DName@@AEAAXPEBDH@Z 00000001400054b0 f i libvcruntimed:undname.obj
 0001:00004660       ??$doPchar@$0A@@DName@@AEAAXPEBDH@Z 0000000140005660 f i libvcruntimed:undname.obj
 0001:000049b0       ??0?$_Optional_construct_base@_K@std@@QEAA@XZ 00000001400059b0 f i libvcruntimed:undname.obj
 0001:000049d0       ??0?$_Optional_destruct_base@_K$00@std@@QEAA@XZ 00000001400059d0 f i libvcruntimed:undname.obj
 0001:00004a00       ??0?$optional@_K@std@@QEAA@XZ 0000000140005a00 f i libvcruntimed:undname.obj
 0001:00004a20       ??0Block@_HeapManager@@QEAA@XZ 0000000140005a20 f i libvcruntimed:undname.obj
 0001:00004a40       ??0DName@@QEAA@AEBV0@@Z    0000000140005a40 f i libvcruntimed:undname.obj
 0001:00004a90       ??0DName@@QEAA@PEAVUnDecorator@@@Z 0000000140005a90 f i libvcruntimed:undname.obj
 0001:00004ad0       ??0DName@@QEAA@PEAVUnDecorator@@AEAPEBDD@Z 0000000140005ad0 f   libvcruntimed:undname.obj
 0001:00004cc0       ??0DName@@QEAA@PEAVUnDecorator@@AEBUStringLiteral@@@Z 0000000140005cc0 f   libvcruntimed:undname.obj
 0001:00004d30       ??0DName@@QEAA@PEAVUnDecorator@@D@Z 0000000140005d30 f   libvcruntimed:undname.obj
 0001:00004d90       ??0DName@@QEAA@PEAVUnDecorator@@PEAV0@@Z 0000000140005d90 f   libvcruntimed:undname.obj
 0001:00004e90       ??0DName@@QEAA@PEAVUnDecorator@@W4DNameStatus@@@Z 0000000140005e90 f   libvcruntimed:undname.obj
 0001:00004f60       ??0DName@@QEAA@PEAVUnDecorator@@_J@Z 0000000140005f60 f   libvcruntimed:undname.obj
 0001:00005080       ??0DName@@QEAA@PEAVUnDecorator@@_K@Z 0000000140006080 f   libvcruntimed:undname.obj
 0001:00005170       ??0DNameNode@@IEAA@XZ      0000000140006170 f i libvcruntimed:undname.obj
 0001:00005190       ??0Replicator@@QEAA@PEAVUnDecorator@@@Z 0000000140006190 f i libvcruntimed:undname.obj
 0001:00005210       ??0UnDecorator@@QEAA@PEBDP6APEADJ@ZKP6APEAX_K@ZP6AXPEAX@Z@Z 0000000140006210 f i libvcruntimed:undname.obj
 0001:000053b0       ??0_HeapManager@@QEAA@P6APEAX_K@ZP6AXPEAX@Z@Z 00000001400063b0 f i libvcruntimed:undname.obj
 0001:00005410       ??0_Nontrivial_dummy_type@std@@QEAA@XZ 0000000140006410 f i libvcruntimed:undname.obj
 0001:00005420       ??0charNode@@QEAA@D@Z      0000000140006420 f i libvcruntimed:undname.obj
 0001:00005460       ??0pDNameNode@@QEAA@PEAVDName@@@Z 0000000140006460 f   libvcruntimed:undname.obj
 0001:000054e0       ??0pairNode@@QEAA@PEBVDNameNode@@0@Z 00000001400064e0 f i libvcruntimed:undname.obj
 0001:00005560       ??2@YAPEAX_KAEAV_HeapManager@@H@Z 0000000140006560 f   libvcruntimed:undname.obj
 0001:000055c0       ??4DName@@QEAAAEAV0@AEBUStringLiteral@@@Z 00000001400065c0 f   libvcruntimed:undname.obj
 0001:00005610       ??4DName@@QEAAAEAV0@AEBV0@@Z 0000000140006610 f   libvcruntimed:undname.obj
 0001:00005640       ??4DName@@QEAAAEAV0@D@Z    0000000140006640 f i libvcruntimed:undname.obj
 0001:00005680       ??4DName@@QEAAAEAV0@PEAV0@@Z 0000000140006680 f   libvcruntimed:undname.obj
 0001:00005750       ??4DName@@QEAAAEAV0@W4DNameStatus@@@Z 0000000140006750 f   libvcruntimed:undname.obj
 0001:000057e0       ??AReplicator@@QEBA?AVDName@@H@Z 00000001400067e0 f   libvcruntimed:undname.obj
 0001:00005880       ??B?$optional@_K@std@@QEBA_NXZ 0000000140006880 f i libvcruntimed:undname.obj
 0001:00005890       ??D?$_Optional_construct_base@_K@std@@QEGAAAEA_KXZ 0000000140006890 f i libvcruntimed:undname.obj
 0001:00005910       ??H@YA?AVDName@@AEBUStringLiteral@@AEBV0@@Z 0000000140006910 f i libvcruntimed:undname.obj
 0001:00005960       ??H@YA?AVDName@@DAEBV0@@Z  0000000140006960 f i libvcruntimed:undname.obj
 0001:000059b0       ??H@YA?AVDName@@W4DNameStatus@@AEBV0@@Z 00000001400069b0 f i libvcruntimed:undname.obj
 0001:00005a00       ??HDName@@QEBA?AV0@AEBUStringLiteral@@@Z 0000000140006a00 f   libvcruntimed:undname.obj
 0001:00005a40       ??HDName@@QEBA?AV0@AEBV0@@Z 0000000140006a40 f   libvcruntimed:undname.obj
 0001:00005a80       ??HDName@@QEBA?AV0@D@Z     0000000140006a80 f   libvcruntimed:undname.obj
 0001:00005ac0       ??HDName@@QEBA?AV0@PEAV0@@Z 0000000140006ac0 f   libvcruntimed:undname.obj
 0001:00005b00       ??HDName@@QEBA?AV0@W4DNameStatus@@@Z 0000000140006b00 f   libvcruntimed:undname.obj
 0001:00005b40       ??HStringLiteral@@QEBA?AU0@H@Z 0000000140006b40 f i libvcruntimed:undname.obj
 0001:00005b80       ??YDName@@QEAAAEAV0@AEBUStringLiteral@@@Z 0000000140006b80 f   libvcruntimed:undname.obj
 0001:00005ca0       ??YDName@@QEAAAEAV0@AEBV0@@Z 0000000140006ca0 f   libvcruntimed:undname.obj
 0001:00005d60       ??YDName@@QEAAAEAV0@D@Z    0000000140006d60 f   libvcruntimed:undname.obj
 0001:00005e10       ??YDName@@QEAAAEAV0@PEAV0@@Z 0000000140006e10 f   libvcruntimed:undname.obj
 0001:00005f00       ??YDName@@QEAAAEAV0@W4DNameStatus@@@Z 0000000140006f00 f   libvcruntimed:undname.obj
 0001:00005f80       ??YReplicator@@QEAAAEAV0@AEBVDName@@@Z 0000000140006f80 f   libvcruntimed:undname.obj
 0001:00006050       ??_5DName@@QEAAAEAV0@AEBV0@@Z 0000000140007050 f   libvcruntimed:undname.obj
 0001:000060d0       ??__K_l@@YA?AUStringLiteral@@PEBD_K@Z 00000001400070d0 f i libvcruntimed:undname.obj
 0001:00006100       ?Destructor@UnDecorator@@QEAAXXZ 0000000140007100 f i libvcruntimed:undname.obj
 0001:00006130       ?Destructor@_HeapManager@@QEAAXXZ 0000000140007130 f i libvcruntimed:undname.obj
 0001:000061d0       ?UScore@UnDecorator@@QEAA?AUStringLiteral@@W4Tokens@@@Z 00000001400071d0 f   libvcruntimed:undname.obj
 0001:00006260       ?composeDeclaration@UnDecorator@@AEAA?AVDName@@AEBV2@@Z 0000000140007260 f i libvcruntimed:undname.obj
 0001:000089e0       ?doAccessSpecifiers@UnDecorator@@QEAAHXZ 00000001400099e0 f i libvcruntimed:undname.obj
 0001:00008a20       ?doAllocationLanguage@UnDecorator@@QEAAHXZ 0000000140009a20 f i libvcruntimed:undname.obj
 0001:00008a60       ?doAllocationModel@UnDecorator@@QEAAHXZ 0000000140009a60 f i libvcruntimed:undname.obj
 0001:00008aa0       ?doEcsu@UnDecorator@@QEAAHXZ 0000000140009aa0 f i libvcruntimed:undname.obj
 0001:00008ae0       ?doEllipsis@UnDecorator@@QEAAHXZ 0000000140009ae0 f i libvcruntimed:undname.obj
 0001:00008b20       ?doFunctionReturns@UnDecorator@@QEAAHXZ 0000000140009b20 f i libvcruntimed:undname.obj
 0001:00008b60       ?doMSKeywords@UnDecorator@@QEAAHXZ 0000000140009b60 f i libvcruntimed:undname.obj
 0001:00008ba0       ?doMemberTypes@UnDecorator@@QEAAHXZ 0000000140009ba0 f i libvcruntimed:undname.obj
 0001:00008be0       ?doNameOnly@UnDecorator@@QEAAHXZ 0000000140009be0 f i libvcruntimed:undname.obj
 0001:00008c00       ?doNoIdentCharCheck@UnDecorator@@QEAAHXZ 0000000140009c00 f i libvcruntimed:undname.obj
 0001:00008c20       ?doPchar@DName@@AEAAXD@Z   0000000140009c20 f   libvcruntimed:undname.obj
 0001:00008cc0       ?doPtr64@UnDecorator@@QEAAHXZ 0000000140009cc0 f i libvcruntimed:undname.obj
 0001:00008d00       ?doRestrictionSpec@UnDecorator@@QEAAHXZ 0000000140009d00 f i libvcruntimed:undname.obj
 0001:00008d40       ?doThisTypes@UnDecorator@@QEAAHXZ 0000000140009d40 f i libvcruntimed:undname.obj
 0001:00008d80       ?doThrowTypes@UnDecorator@@QEAAHXZ 0000000140009d80 f i libvcruntimed:undname.obj
 0001:00008dc0       ?doTypeOnly@UnDecorator@@QEAAHXZ 0000000140009dc0 f i libvcruntimed:undname.obj
 0001:00008de0       ?doUnderScore@UnDecorator@@QEAAHXZ 0000000140009de0 f i libvcruntimed:undname.obj
 0001:00008e20       ?getAddressOf@UnDecorator@@AEAA?AVDName@@XZ 0000000140009e20 f   libvcruntimed:undname.obj
 0001:00008ee0       ?getArgumentList@UnDecorator@@AEAA?AVDName@@XZ 0000000140009ee0 f   libvcruntimed:undname.obj
 0001:00009100       ?getArgumentTypes@UnDecorator@@AEAA?AVDName@@XZ 000000014000a100 f   libvcruntimed:undname.obj
 0001:00009420       ?getArrayAccess@UnDecorator@@AEAA?AVDName@@XZ 000000014000a420 f   libvcruntimed:undname.obj
 0001:00009500       ?getArrayObject@UnDecorator@@AEAA?AVDName@@XZ 000000014000a500 f   libvcruntimed:undname.obj
 0001:000096b0       ?getArrayType@UnDecorator@@AEAA?AVDName@@AEBV2@@Z 000000014000a6b0 f i libvcruntimed:undname.obj
 0001:00009ae0       ?getBasedType@UnDecorator@@AEAA?AVDName@@XZ 000000014000aae0 f   libvcruntimed:undname.obj
 0001:00009c50       ?getBasicDataType@UnDecorator@@AEAA?AVDName@@AEBV2@@Z 000000014000ac50 f   libvcruntimed:undname.obj
 0001:0000aba0       ?getCHPEName@UnDecorator@@QEAAPEADPEADH@Z 000000014000bba0 f i libvcruntimed:undname.obj
 0001:0000adf0       ?getCallIndex@UnDecorator@@AEAA?AVDName@@XZ 000000014000bdf0 f i libvcruntimed:undname.obj
 0001:0000ae20       ?getCallingConvention@UnDecorator@@AEAA?AVDName@@XZ 000000014000be20 f   libvcruntimed:undname.obj
 0001:0000b170       ?getDataIndirectType@UnDecorator@@AEAA?AVDName@@AEBV2@W4IndirectionKind@@0H@Z 000000014000c170 f   libvcruntimed:undname.obj
 0001:0000bf50       ?getDataIndirectType@UnDecorator@@AEAA?AVDName@@XZ 000000014000cf50 f i libvcruntimed:undname.obj
 0001:0000bfd0       ?getDataType@UnDecorator@@AEAA?AVDName@@PEAV2@@Z 000000014000cfd0 f   libvcruntimed:undname.obj
 0001:0000c1d0       ?getDecoratedName@UnDecorator@@AEAA?AVDName@@XZ 000000014000d1d0 f   libvcruntimed:undname.obj
 0001:0000c7e0       ?getDimension@UnDecorator@@AEAA?AVDName@@_N@Z 000000014000d7e0 f   libvcruntimed:undname.obj
 0001:0000cb30       ?getDispatchTarget@UnDecorator@@AEAA?AVDName@@XZ 000000014000db30 f   libvcruntimed:undname.obj
 0001:0000cc10       ?getDisplacement@UnDecorator@@AEAA?AVDName@@XZ 000000014000dc10 f i libvcruntimed:undname.obj
 0001:0000cc40       ?getECSUDataType@UnDecorator@@AEAA?AVDName@@XZ 000000014000dc40 f   libvcruntimed:undname.obj
 0001:0000d100       ?getECSUName@UnDecorator@@AEAA?AVDName@@XZ 000000014000e100 f i libvcruntimed:undname.obj
 0001:0000d130       ?getEnumType@UnDecorator@@AEAA?AVDName@@XZ 000000014000e130 f i libvcruntimed:undname.obj
 0001:0000d3f0       ?getExtendedDataIndirectType@UnDecorator@@AEAA?AVDName@@AEAW4IndirectionKind@@AEA_NH@Z 000000014000e3f0 f   libvcruntimed:undname.obj
 0001:0000d810       ?getExternalDataType@UnDecorator@@AEAA?AVDName@@AEBV2@@Z 000000014000e810 f i libvcruntimed:undname.obj
 0001:0000d900       ?getFloatingPoint@UnDecorator@@AEAA?AVDName@@H@Z 000000014000e900 f   libvcruntimed:undname.obj
 0001:0000da90       ?getFunctionIndirectType@UnDecorator@@AEAA?AVDName@@AEBV2@@Z 000000014000ea90 f   libvcruntimed:undname.obj
 0001:0000e200       ?getGuardNumber@UnDecorator@@AEAA?AVDName@@XZ 000000014000f200 f i libvcruntimed:undname.obj
 0001:0000e230       ?getHeap@UnDecorator@@QEAAAEAV_HeapManager@@XZ 000000014000f230 f i libvcruntimed:undname.obj
 0001:0000e250       ?getLastChar@DName@@QEBADXZ 000000014000f250 f i libvcruntimed:undname.obj
 0001:0000e2a0       ?getLastChar@DNameStatusNode@@UEBADXZ 000000014000f2a0 f i libvcruntimed:undname.obj
 0001:0000e2e0       ?getLastChar@charNode@@UEBADXZ 000000014000f2e0 f i libvcruntimed:undname.obj
 0001:0000e2f0       ?getLastChar@pDNameNode@@UEBADXZ 000000014000f2f0 f i libvcruntimed:undname.obj
 0001:0000e330       ?getLastChar@pairNode@@UEBADXZ 000000014000f330 f i libvcruntimed:undname.obj
 0001:0000e3b0       ?getLastChar@pcharNode@@UEBADXZ 000000014000f3b0 f i libvcruntimed:undname.obj
 0001:0000e3f0       ?getLexicalFrame@UnDecorator@@AEAA?AVDName@@XZ 000000014000f3f0 f i libvcruntimed:undname.obj
 0001:0000e450       ?getMemberAccess@UnDecorator@@AEAA?AVDName@@XZ 000000014000f450 f   libvcruntimed:undname.obj
 0001:0000e530       ?getMemoryWithBuffer@_HeapManager@@QEAAPEAX_K@Z 000000014000f530 f   libvcruntimed:undname.obj
 0001:0000e670       ?getMemoryWithoutBuffer@_HeapManager@@QEAAPEAX_K@Z 000000014000f670 f   libvcruntimed:undname.obj
 0001:0000e6c0       ?getNoexcept@UnDecorator@@AEAA?AVDName@@XZ 000000014000f6c0 f   libvcruntimed:undname.obj
 0001:0000e770       ?getNumberOfDimensions@UnDecorator@@AEAAHXZ 000000014000f770 f   libvcruntimed:undname.obj
 0001:0000e880       ?getOperatorName@UnDecorator@@AEAA?AVDName@@_NPEA_N@Z 000000014000f880 f i libvcruntimed:undname.obj
 0001:0000f9b0       ?getPointerToMember@UnDecorator@@AEAA?AVDName@@XZ 00000001400109b0 f   libvcruntimed:undname.obj
 0001:0000fb40       ?getPointerType@UnDecorator@@AEAA?AVDName@@AEBV2@0@Z 0000000140010b40 f i libvcruntimed:undname.obj
 0001:0000fb90       ?getPointerTypeArray@UnDecorator@@AEAA?AVDName@@AEBV2@0@Z 0000000140010b90 f i libvcruntimed:undname.obj
 0001:0000fbe0       ?getPrimaryDataType@UnDecorator@@AEAA?AVDName@@AEBV2@@Z 0000000140010be0 f   libvcruntimed:undname.obj
 0001:000102a0       ?getPtrRefDataType@UnDecorator@@AEAA?AVDName@@AEBV2@H@Z 00000001400112a0 f   libvcruntimed:undname.obj
 0001:00010700       ?getPtrRefType@UnDecorator@@AEAA?AVDName@@AEBV2@0W4IndirectionKind@@@Z 0000000140011700 f   libvcruntimed:undname.obj
 0001:00010990       ?getReferenceType@UnDecorator@@AEAA?AVDName@@AEBV2@0W4IndirectionKind@@@Z 0000000140011990 f i libvcruntimed:undname.obj
 0001:000109e0       ?getRestrictionSpec@UnDecorator@@AEAA?AVDName@@XZ 00000001400119e0 f   libvcruntimed:undname.obj
 0001:00010c90       ?getReturnType@UnDecorator@@AEAA?AVDName@@PEAV2@@Z 0000000140011c90 f   libvcruntimed:undname.obj
 0001:00010d00       ?getScope@UnDecorator@@AEAA?AVDName@@XZ 0000000140011d00 f   libvcruntimed:undname.obj
 0001:00011570       ?getScopedName@UnDecorator@@AEAA?AVDName@@XZ 0000000140012570 f   libvcruntimed:undname.obj
 0001:000117c0       ?getSignedDimension@UnDecorator@@AEAA?AVDName@@XZ 00000001400127c0 f   libvcruntimed:undname.obj
 0001:00011870       ?getStorageConvention@UnDecorator@@AEAA?AVDName@@XZ 0000000140012870 f i libvcruntimed:undname.obj
 0001:000118a0       ?getString@DName@@QEBAPEADPEAD0@Z 00000001400128a0 f i libvcruntimed:undname.obj
 0001:00011920       ?getString@DName@@QEBAPEADPEADH@Z 0000000140012920 f i libvcruntimed:undname.obj
 0001:000119e0       ?getString@DNameStatusNode@@UEBAPEADPEAD0@Z 00000001400129e0 f i libvcruntimed:undname.obj
 0001:00011a30       ?getString@charNode@@UEBAPEADPEAD0@Z 0000000140012a30 f i libvcruntimed:undname.obj
 0001:00011a70       ?getString@pDNameNode@@UEBAPEADPEAD0@Z 0000000140012a70 f i libvcruntimed:undname.obj
 0001:00011ad0       ?getString@pairNode@@UEBAPEADPEAD0@Z 0000000140012ad0 f i libvcruntimed:undname.obj
 0001:00011ba0       ?getString@pcharNode@@UEBAPEADPEAD0@Z 0000000140012ba0 f i libvcruntimed:undname.obj
 0001:00011be0       ?getStringEncoding@UnDecorator@@AEAA?AVDName@@W4PrefixKind@@H@Z 0000000140012be0 f   libvcruntimed:undname.obj
 0001:00011db0       ?getStringHelper@@YAPEADPEADPEBD1H@Z 0000000140012db0 f i libvcruntimed:undname.obj
 0001:00011e20       ?getStringObject@UnDecorator@@AEAA?AVDName@@XZ 0000000140012e20 f   libvcruntimed:undname.obj
 0001:00011f00       ?getSymbolName@UnDecorator@@AEAA?AVDName@@XZ 0000000140012f00 f i libvcruntimed:undname.obj
 0001:00011fb0       ?getTemplateArgumentList@UnDecorator@@AEAA?AVDName@@XZ 0000000140012fb0 f   libvcruntimed:undname.obj
 0001:000123b0       ?getTemplateName@UnDecorator@@AEAA?AVDName@@_N@Z 00000001400133b0 f   libvcruntimed:undname.obj
 0001:000126a0       ?getTemplateNonTypeArgument@UnDecorator@@AEAA?AVDName@@XZ 00000001400136a0 f   libvcruntimed:undname.obj
 0001:00013070       ?getTemplateTypeArgument@UnDecorator@@AEAA?AVDName@@XZ 0000000140014070 f   libvcruntimed:undname.obj
 0001:00013350       ?getThisType@UnDecorator@@AEAA?AVDName@@XZ 0000000140014350 f i libvcruntimed:undname.obj
 0001:000133d0       ?getThrowTypes@UnDecorator@@AEAA?AVDName@@XZ 00000001400143d0 f   libvcruntimed:undname.obj
 0001:00013420       ?getTypeEncoding@UnDecorator@@AEAAHXZ 0000000140014420 f i libvcruntimed:undname.obj
 0001:00014150       ?getUndecoratedName@UnDecorator@@QEAAPEADPEADH@Z 0000000140015150 f i libvcruntimed:undname.obj
 0001:00014380       ?getUnionObject@UnDecorator@@AEAA?AVDName@@XZ 0000000140015380 f   libvcruntimed:undname.obj
 0001:000144e0       ?getVCallThunkType@UnDecorator@@AEAA?AVDName@@XZ 00000001400154e0 f i libvcruntimed:undname.obj
 0001:000145a0       ?getValue@UnDecorator@@AEAA?AV?$optional@_K@std@@XZ 00000001400155a0 f   libvcruntimed:undname.obj
 0001:00014680       ?getValueObject@UnDecorator@@AEAA?AVDName@@XZ 0000000140015680 f   libvcruntimed:undname.obj
 0001:00014990       ?getVbTableType@UnDecorator@@AEAA?AVDName@@AEBV2@@Z 0000000140015990 f i libvcruntimed:undname.obj
 0001:000149d0       ?getVdispMapType@UnDecorator@@AEAA?AVDName@@AEBV2@@Z 00000001400159d0 f i libvcruntimed:undname.obj
 0001:00014aa0       ?getVfTableType@UnDecorator@@AEAA?AVDName@@AEBV2@@Z 0000000140015aa0 f i libvcruntimed:undname.obj
 0001:00014db0       ?getZName@UnDecorator@@AEAA?AVDName@@_N0@Z 0000000140015db0 f   libvcruntimed:undname.obj
 0001:000152e0       ?get_current_character_and_increment_buffer@UnDecorator@@AEAADXZ 00000001400162e0 f i libvcruntimed:undname.obj
 0001:00015330       ?haveTemplateParameters@UnDecorator@@QEAAHXZ 0000000140016330 f i libvcruntimed:undname.obj
 0001:00015350       ?increment_buffer@UnDecorator@@AEAA_N_K@Z 0000000140016350 f i libvcruntimed:undname.obj
 0001:000153c0       ?increment_buffer_no_check@UnDecorator@@AEAAXXZ 00000001400163c0 f i libvcruntimed:undname.obj
 0001:000153f0       ?increment_buffer_no_check@UnDecorator@@AEAAX_K@Z 00000001400163f0 f i libvcruntimed:undname.obj
 0001:00015450       ?isArray@DName@@QEBAHXZ    0000000140016450 f i libvcruntimed:undname.obj
 0001:00015470       ?isComArray@DName@@QEBAHXZ 0000000140016470 f i libvcruntimed:undname.obj
 0001:00015490       ?isEmpty@DName@@QEBAHXZ    0000000140016490 f i libvcruntimed:undname.obj
 0001:000154c0       ?isFull@Replicator@@QEBAHXZ 00000001400164c0 f i libvcruntimed:undname.obj
 0001:000154f0       ?isNoTE@DName@@QEBAHXZ     00000001400164f0 f i libvcruntimed:undname.obj
 0001:00015510       ?isPinPtr@DName@@QEBAHXZ   0000000140016510 f i libvcruntimed:undname.obj
 0001:00015530       ?isPtrRef@DName@@QEBAHXZ   0000000140016530 f i libvcruntimed:undname.obj
 0001:00015550       ?isUDC@DName@@QEBAHXZ      0000000140016550 f i libvcruntimed:undname.obj
 0001:000155a0       ?isUDTThunk@DName@@QEBAHXZ 00000001400165a0 f i libvcruntimed:undname.obj
 0001:000155f0       ?isVCallThunk@DName@@QEBAHXZ 00000001400165f0 f i libvcruntimed:undname.obj
 0001:00015610       ?isValid@DName@@QEBAHXZ    0000000140016610 f i libvcruntimed:undname.obj
 0001:00015650       ?length@DName@@QEBAHXZ     0000000140016650 f i libvcruntimed:undname.obj
 0001:000156a0       ?length@DNameStatusNode@@UEBAHXZ 00000001400166a0 f i libvcruntimed:undname.obj
 0001:000156b0       ?length@charNode@@UEBAHXZ  00000001400166b0 f i libvcruntimed:undname.obj
 0001:000156c0       ?length@pDNameNode@@UEBAHXZ 00000001400166c0 f i libvcruntimed:undname.obj
 0001:00015700       ?length@pairNode@@UEBAHXZ  0000000140016700 f i libvcruntimed:undname.obj
 0001:00015790       ?length@pcharNode@@UEBAHXZ 0000000140016790 f i libvcruntimed:undname.obj
 0001:000157a0       ?make@DNameStatusNode@@SAPEBV1@W4DNameStatus@@@Z 00000001400167a0 f i libvcruntimed:undname.obj
 0001:000157f0       ?parseDecoratedName@UnDecorator@@AEAA?AVDName@@XZ 00000001400167f0 f   libvcruntimed:undname.obj
 0001:00015aa0       ?raw_length@DNameStatusNode@@UEBAHXZ 0000000140016aa0 f i libvcruntimed:undname.obj
 0001:00015ac0       ?raw_length@charNode@@UEBAHXZ 0000000140016ac0 f i libvcruntimed:undname.obj
 0001:00015ae0       ?raw_length@pDNameNode@@UEBAHXZ 0000000140016ae0 f i libvcruntimed:undname.obj
 0001:00015af0       ?raw_length@pairNode@@UEBAHXZ 0000000140016af0 f i libvcruntimed:undname.obj
 0001:00015b00       ?raw_length@pcharNode@@UEBAHXZ 0000000140016b00 f i libvcruntimed:undname.obj
 0001:00015b20       ?setIsArray@DName@@QEAAXXZ 0000000140016b20 f i libvcruntimed:undname.obj
 0001:00015b40       ?setIsComArray@DName@@QEAAXXZ 0000000140016b40 f i libvcruntimed:undname.obj
 0001:00015b60       ?setIsNoTE@DName@@QEAAXXZ  0000000140016b60 f i libvcruntimed:undname.obj
 0001:00015b80       ?setIsPinPtr@DName@@QEAAXXZ 0000000140016b80 f i libvcruntimed:undname.obj
 0001:00015ba0       ?setIsUDC@DName@@QEAAXXZ   0000000140016ba0 f i libvcruntimed:undname.obj
 0001:00015bd0       ?setIsVCallThunk@DName@@QEAAXXZ 0000000140016bd0 f i libvcruntimed:undname.obj
 0001:00015bf0       ?setPtrRef@DName@@QEAAAEAV1@XZ 0000000140016bf0 f i libvcruntimed:undname.obj
 0001:00015c10       ?status@DName@@QEBA?AW4DNameStatus@@XZ 0000000140016c10 f i libvcruntimed:undname.obj
 0001:00015d40       __unDName                  0000000140016d40 f   libvcruntimed:undname.obj
 0001:00015da0       __unDNameEx                0000000140016da0 f   libvcruntimed:undname.obj
 0001:00015e60       _vsprintf_s_l              0000000140016e60 f i libvcruntimed:undname.obj
 0001:00015ed0       snprintf                   0000000140016ed0 f i libvcruntimed:undname.obj
 0001:00015f30       sprintf_s                  0000000140016f30 f i libvcruntimed:undname.obj
 0001:00015f90       unDNameGenerateCHPE        0000000140016f90 f   libvcruntimed:undname.obj
 0001:00016030       vsnprintf                  0000000140017030 f i libvcruntimed:undname.obj
 0001:000160b0       ??$__crt_interlocked_exchange_pointer@UHINSTANCE__@@PEAU1@@@YAPEAUHINSTANCE__@@PEDSEAU0@QEAU0@@Z 00000001400170b0 f i libvcruntimed:winapi_downlevel.obj
 0001:000160d0       ??$__crt_interlocked_exchange_pointer@UHINSTANCE__@@PEAX@@YAPEAUHINSTANCE__@@PEDSEAU0@QEAX@Z 00000001400170d0 f i libvcruntimed:winapi_downlevel.obj
 0001:000160f0       ??$__crt_interlocked_exchange_pointer@XPEAX@@YAPEAXPEDSEAXQEAX@Z 00000001400170f0 f i libvcruntimed:winapi_downlevel.obj
 0001:00016110       ??$__crt_interlocked_read_pointer@UHINSTANCE__@@@@YAPEAUHINSTANCE__@@PEDSEAU0@@Z 0000000140017110 f i libvcruntimed:winapi_downlevel.obj
 0001:00016130       ??$__crt_interlocked_read_pointer@X@@YAPEAXPEDSEAX@Z 0000000140017130 f i libvcruntimed:winapi_downlevel.obj
 0001:00016640       __vcrt_FlsAlloc            0000000140017640 f   libvcruntimed:winapi_downlevel.obj
 0001:00016690       __vcrt_FlsFree             0000000140017690 f   libvcruntimed:winapi_downlevel.obj
 0001:000166e0       __vcrt_FlsGetValue         00000001400176e0 f   libvcruntimed:winapi_downlevel.obj
 0001:00016730       __vcrt_FlsSetValue         0000000140017730 f   libvcruntimed:winapi_downlevel.obj
 0001:00016790       __vcrt_InitializeCriticalSectionEx 0000000140017790 f   libvcruntimed:winapi_downlevel.obj
 0001:00016800       ??$__crt_interlocked_exchange_pointer@$$A6AXXZP6AXXZ@@YAP6AXXZPEDS6AXXZQ6AXXZ@Z 0000000140017800 f i libvcruntimed:purevirt.obj
 0001:00016820       ??$__crt_interlocked_read_pointer@$$A6AXXZ@@YAP6AXXZPEDS6AXXZ@Z 0000000140017820 f i libvcruntimed:purevirt.obj
 0001:00016840       _get_purecall_handler      0000000140017840 f   libvcruntimed:purevirt.obj
 0001:00016860       _purecall                  0000000140017860 f   libvcruntimed:purevirt.obj
 0001:000168a0       _set_purecall_handler      00000001400178a0 f   libvcruntimed:purevirt.obj
 0001:000168c0       ??$?0AEAViterator@TryBlockMap4@FH4@@AEAV012@$0A@@?$pair@Viterator@TryBlockMap4@FH4@@V123@@std@@QEAA@AEAViterator@TryBlockMap4@FH4@@0@Z 00000001400178c0 f i libvcruntimed:risctrnsctrl.obj
 0001:00016900       ??$?0AEAViterator@TryBlockMap@__FrameHandler3@@AEAV012@$0A@@?$pair@Viterator@TryBlockMap@__FrameHandler3@@V123@@std@@QEAA@AEAViterator@TryBlockMap@__FrameHandler3@@0@Z 0000000140017900 f i libvcruntimed:risctrnsctrl.obj
 0001:00016af0       ??$_CallSETranslator@V__FrameHandler3@@@@YAHPEAUEHExceptionRecord@@PEA_KPEAU_CONTEXT@@PEAU_xDISPATCHER_CONTEXT@@PEBU_s_FuncInfo@@K1H@Z 0000000140017af0 f i libvcruntimed:risctrnsctrl.obj
 0001:00016b80       ??$_CallSETranslator@V__FrameHandler4@@@@YAHPEAUEHExceptionRecord@@PEA_KPEAU_CONTEXT@@PEAU_xDISPATCHER_CONTEXT@@PEAUFuncInfo4@FH4@@K1H@Z 0000000140017b80 f i libvcruntimed:risctrnsctrl.obj
 0001:00016c10       ??0FuncInfo4@FH4@@QEAA@XZ  0000000140017c10 f i libvcruntimed:risctrnsctrl.obj
 0001:00016c80       ??0FuncInfoHeader@FH4@@QEAA@XZ 0000000140017c80 f i libvcruntimed:risctrnsctrl.obj
 0001:00016ca0       ??0iterator@TryBlockMap4@FH4@@QEAA@AEAV12@I@Z 0000000140017ca0 f i libvcruntimed:risctrnsctrl.obj
 0001:00016cd0       ??0iterator@TryBlockMap@__FrameHandler3@@QEAA@AEAV12@I@Z 0000000140017cd0 f i libvcruntimed:risctrnsctrl.obj
 0001:00016d00       ??4iterator@TryBlockMap4@FH4@@QEAAAEAV012@AEBV012@@Z 0000000140017d00 f i libvcruntimed:risctrnsctrl.obj
 0001:00016d20       ??9iterator@TryBlockMap4@FH4@@QEBA_NAEBV012@@Z 0000000140017d20 f i libvcruntimed:risctrnsctrl.obj
 0001:00016d60       ??Diterator@TryBlockMap4@FH4@@QEAA?AUTryBlockMapEntry4@2@XZ 0000000140017d60 f i libvcruntimed:risctrnsctrl.obj
 0001:00016d90       ??Eiterator@TryBlockMap4@FH4@@QEAAAEAV012@XZ 0000000140017d90 f i libvcruntimed:risctrnsctrl.obj
 0001:00016dd0       ?CatchTryBlock@__FrameHandler3@@SAPEBU_s_TryBlockMapEntry@@PEBU_s_FuncInfo@@H@Z 0000000140017dd0 f   libvcruntimed:risctrnsctrl.obj
 0001:00016e60       ?DecompFuncInfo@FH4@@YA_JPEAEAEAUFuncInfo4@1@_KH@Z 0000000140017e60 f i libvcruntimed:risctrnsctrl.obj
 0001:00016ea0       ?DecompFuncInfo@FH4@@YA_JPEAEAEAUFuncInfo4@1@_KH_N@Z 0000000140017ea0 f i libvcruntimed:risctrnsctrl.obj
 0001:00017080       ?DecompTryBlock@TryBlockMap4@FH4@@AEAAXXZ 0000000140018080 f i libvcruntimed:risctrnsctrl.obj
 0001:00017100       ?ExecutionInCatch@__FrameHandler3@@SA_NPEAU_xDISPATCHER_CONTEXT@@PEBU_s_FuncInfo@@@Z 0000000140018100 f   libvcruntimed:risctrnsctrl.obj
 0001:00017150       ?ExecutionInCatch@__FrameHandler4@@SA_NPEAU_xDISPATCHER_CONTEXT@@PEAUFuncInfo4@FH4@@@Z 0000000140018150 f   libvcruntimed:risctrnsctrl.obj
 0001:00017170       ?FrameUnwindToEmptyState@__FrameHandler3@@SAXPEA_KPEAU_xDISPATCHER_CONTEXT@@PEBU_s_FuncInfo@@@Z 0000000140018170 f   libvcruntimed:risctrnsctrl.obj
 0001:00017210       ?FrameUnwindToEmptyState@__FrameHandler4@@SAXPEA_KPEAU_xDISPATCHER_CONTEXT@@PEAUFuncInfo4@FH4@@@Z 0000000140018210 f   libvcruntimed:risctrnsctrl.obj
 0001:00017270       ?GetEstablisherFrame@__FrameHandler3@@SAPEA_KPEA_KPEAU_xDISPATCHER_CONTEXT@@PEBU_s_FuncInfo@@0@Z 0000000140018270 f   libvcruntimed:risctrnsctrl.obj
 0001:000173e0       ?GetEstablisherFrame@__FrameHandler4@@SAPEA_KPEA_KPEAU_xDISPATCHER_CONTEXT@@PEAUFuncInfo4@FH4@@0@Z 00000001400183e0 f   libvcruntimed:risctrnsctrl.obj
 0001:00017450       ?GetRangeOfTrysToCheck@__FrameHandler3@@SA?AU?$pair@Viterator@TryBlockMap@__FrameHandler3@@V123@@std@@AEAVTryBlockMap@1@HPEAU_xDISPATCHER_CONTEXT@@PEBU_s_FuncInfo@@H@Z 0000000140018450 f   libvcruntimed:risctrnsctrl.obj
 0001:00017690       ?GetRangeOfTrysToCheck@__FrameHandler4@@SA?AU?$pair@Viterator@TryBlockMap4@FH4@@V123@@std@@AEAVTryBlockMap4@FH4@@HPEAU_xDISPATCHER_CONTEXT@@PEAUFuncInfo4@5@H@Z 0000000140018690 f   libvcruntimed:risctrnsctrl.obj
 0001:00017850       ?ReadInt@FH4@@YAHPEAPEAE@Z 0000000140018850 f i libvcruntimed:risctrnsctrl.obj
 0001:00017890       ?ReadUnsigned@FH4@@YAIPEAPEAE@Z 0000000140018890 f i libvcruntimed:risctrnsctrl.obj
 0001:00017920       ?UnwindNestedFrames@__FrameHandler3@@SAXPEA_KPEAUEHExceptionRecord@@PEAU_CONTEXT@@0PEAXPEBU_s_FuncInfo@@HHPEBU_s_HandlerType@@PEAU_xDISPATCHER_CONTEXT@@E@Z 0000000140018920 f   libvcruntimed:risctrnsctrl.obj
 0001:00017a90       ?UnwindNestedFrames@__FrameHandler4@@SAXPEA_KPEAUEHExceptionRecord@@PEAU_CONTEXT@@0PEAXPEAUFuncInfo4@FH4@@HHPEAUHandlerType4@5@PEAU_xDISPATCHER_CONTEXT@@E@Z 0000000140018a90 f   libvcruntimed:risctrnsctrl.obj
 0001:00017c60       ?begin@TryBlockMap4@FH4@@QEAA?AViterator@12@XZ 0000000140018c60 f i libvcruntimed:risctrnsctrl.obj
 0001:00017c90       ?end@TryBlockMap4@FH4@@QEAA?AViterator@12@XZ 0000000140018c90 f i libvcruntimed:risctrnsctrl.obj
 0001:00017cc0       ?imageRelToByteBuffer@FH4@@YAPEAE_KH@Z 0000000140018cc0 f i libvcruntimed:risctrnsctrl.obj
 0001:00017ce0       ?incrementToSentinel@iterator@TryBlockMap4@FH4@@QEAAXXZ 0000000140018ce0 f i libvcruntimed:risctrnsctrl.obj
 0001:00017d00       ?setBuffer@TryBlockMap4@FH4@@QEAAXViterator@12@@Z 0000000140018d00 f i libvcruntimed:risctrnsctrl.obj
 0001:00017d70       _CreateFrameInfo           0000000140018d70 f   libvcruntimed:risctrnsctrl.obj
 0001:00017de0       _FindAndUnlinkFrame        0000000140018de0 f   libvcruntimed:risctrnsctrl.obj
 0001:00017e60       _GetImageBase              0000000140018e60 f   libvcruntimed:risctrnsctrl.obj
 0001:00017e80       _GetThrowImageBase         0000000140018e80 f   libvcruntimed:risctrnsctrl.obj
 0001:00017ea0       _SetImageBase              0000000140018ea0 f   libvcruntimed:risctrnsctrl.obj
 0001:00017ec0       _SetThrowImageBase         0000000140018ec0 f   libvcruntimed:risctrnsctrl.obj
 0001:00017ee0       __CxxFrameHandler          0000000140018ee0 f   libvcruntimed:risctrnsctrl.obj
 0001:00017f20       __CxxFrameHandler2         0000000140018f20 f   libvcruntimed:risctrnsctrl.obj
 0001:00017f60       __CxxFrameHandler3         0000000140018f60 f   libvcruntimed:risctrnsctrl.obj
 0001:00018040       __CxxFrameHandler4         0000000140019040 f   libvcruntimed:risctrnsctrl.obj
 0001:00018150       ?GetCurrentState@__FrameHandler3@@SAHPEA_KPEAU_xDISPATCHER_CONTEXT@@PEBU_s_FuncInfo@@@Z 0000000140019150 f   libvcruntimed:ehstate.obj
 0001:000181b0       ?GetUnwindTryBlock@__FrameHandler3@@SAHPEA_KPEAU_xDISPATCHER_CONTEXT@@PEBU_s_FuncInfo@@@Z 00000001400191b0 f   libvcruntimed:ehstate.obj
 0001:00018200       ?SetState@__FrameHandler3@@SAXPEA_KPEBU_s_FuncInfo@@H@Z 0000000140019200 f   libvcruntimed:ehstate.obj
 0001:00018230       ?SetUnwindTryBlock@__FrameHandler3@@SAXPEA_KPEAU_xDISPATCHER_CONTEXT@@PEBU_s_FuncInfo@@H@Z 0000000140019230 f   libvcruntimed:ehstate.obj
 0001:000182a0       ?StateFromControlPc@__FrameHandler3@@SAHPEBU_s_FuncInfo@@PEAU_xDISPATCHER_CONTEXT@@@Z 00000001400192a0 f   libvcruntimed:ehstate.obj
 0001:000182e0       ?StateFromControlPc@__FrameHandler4@@SAHPEAUFuncInfo4@FH4@@PEAU_xDISPATCHER_CONTEXT@@@Z 00000001400192e0 f   libvcruntimed:ehstate.obj
 0001:00018320       ?StateFromIp@__FrameHandler3@@SAHPEBU_s_FuncInfo@@PEAU_xDISPATCHER_CONTEXT@@_K@Z 0000000140019320 f   libvcruntimed:ehstate.obj
 0001:00018420       ?StateFromIp@__FrameHandler4@@SAHPEAUFuncInfo4@FH4@@PEAU_xDISPATCHER_CONTEXT@@_K@Z 0000000140019420 f   libvcruntimed:ehstate.obj
 0001:00018510       ?__FuncRelToRealOffset@@YA_KPEAU_xDISPATCHER_CONTEXT@@I@Z 0000000140019510 f i libvcruntimed:ehstate.obj
 0001:00018540       ?__RVAtoRealOffset@@YA_KPEAU_xDISPATCHER_CONTEXT@@H@Z 0000000140019540 f i libvcruntimed:ehstate.obj
 0001:0001a7e0       ??$TypeMatchHelper@V__FrameHandler3@@@@YAHPEBU_s_HandlerType@@PEBU_s_CatchableType@@PEBU_s_ThrowInfo@@@Z 000000014001b7e0 f i libvcruntimed:frame.obj
 0001:0001a9e0       ??$TypeMatchHelper@V__FrameHandler4@@@@YAHPEAUHandlerType4@FH4@@PEBU_s_CatchableType@@PEBU_s_ThrowInfo@@@Z 000000014001b9e0 f i libvcruntimed:frame.obj
 0001:0001abf0       ??$__InternalCxxFrameHandler@V__FrameHandler3@@@@YA?AW4_EXCEPTION_DISPOSITION@@PEAUEHExceptionRecord@@PEA_KPEAU_CONTEXT@@PEAU_xDISPATCHER_CONTEXT@@PEBU_s_FuncInfo@@H1E@Z 000000014001bbf0 f i libvcruntimed:frame.obj
 0001:0001b070       ??$__InternalCxxFrameHandler@V__FrameHandler4@@@@YA?AW4_EXCEPTION_DISPOSITION@@PEAUEHExceptionRecord@@PEA_KPEAU_CONTEXT@@PEAU_xDISPATCHER_CONTEXT@@PEAUFuncInfo4@FH4@@H1E@Z 000000014001c070 f i libvcruntimed:frame.obj
 0001:0001b510       ??$__InternalCxxFrameHandlerWrapper@V__FrameHandler3@@@@YA?AW4_EXCEPTION_DISPOSITION@@PEAUEHExceptionRecord@@PEA_KPEAU_CONTEXT@@PEAU_xDISPATCHER_CONTEXT@@PEBU_s_FuncInfo@@H1E@Z 000000014001c510 f i libvcruntimed:frame.obj
 0001:0001b580       ??$__InternalCxxFrameHandlerWrapper@V__FrameHandler4@@@@YA?AW4_EXCEPTION_DISPOSITION@@PEAUEHExceptionRecord@@PEA_KPEAU_CONTEXT@@PEAU_xDISPATCHER_CONTEXT@@PEAUFuncInfo4@FH4@@H1E@Z 000000014001c580 f i libvcruntimed:frame.obj
 0001:0001b610       ??0HandlerMap4@FH4@@QEAA@PEBUTryBlockMapEntry4@1@_KH@Z 000000014001c610 f i libvcruntimed:frame.obj
 0001:0001b6f0       ??0HandlerMap@__FrameHandler3@@QEAA@PEBU_s_TryBlockMapEntry@@_KI@Z 000000014001c6f0 f i libvcruntimed:frame.obj
 0001:0001b740       ??0HandlerType4@FH4@@QEAA@XZ 000000014001c740 f i libvcruntimed:frame.obj
 0001:0001b760       ??0TryBlockMap4@FH4@@QEAA@PEBUFuncInfo4@1@_K@Z 000000014001c760 f i libvcruntimed:frame.obj
 0001:0001b820       ??0TryBlockMap@__FrameHandler3@@QEAA@PEBU_s_FuncInfo@@_K@Z 000000014001c820 f i libvcruntimed:frame.obj
 0001:0001b850       ??0UWMap4@FH4@@QEAA@PEBUFuncInfo4@1@_K@Z 000000014001c850 f i libvcruntimed:frame.obj
 0001:0001b8e0       ??0bad_exception@std@@QEAA@AEBV01@@Z 000000014001c8e0 f i libvcruntimed:frame.obj
 0001:0001b920       ??0bad_exception@std@@QEAA@XZ 000000014001c920 f i libvcruntimed:frame.obj
 0001:0001b960       ??0exception@std@@QEAA@AEBV01@@Z 000000014001c960 f i libvcruntimed:frame.obj
 0001:0001b9c0       ??0exception@std@@QEAA@QEBDH@Z 000000014001c9c0 f i libvcruntimed:frame.obj
 0001:0001ba10       ??0iterator@HandlerMap4@FH4@@QEAA@AEAV12@I@Z 000000014001ca10 f i libvcruntimed:frame.obj
 0001:0001ba40       ??0iterator@HandlerMap@__FrameHandler3@@QEAA@AEAV12@I@Z 000000014001ca40 f i libvcruntimed:frame.obj
 0001:0001ba70       ??0iterator@UWMap4@FH4@@QEAA@AEAV12@PEAE@Z 000000014001ca70 f i libvcruntimed:frame.obj
 0001:0001baa0       ??1bad_exception@std@@UEAA@XZ 000000014001caa0 f i libvcruntimed:frame.obj
 0001:0001bac0       ??1exception@std@@UEAA@XZ  000000014001cac0 f i libvcruntimed:frame.obj
 0001:0001baf0       ??4iterator@UWMap4@FH4@@QEAAAEAV012@AEBV012@@Z 000000014001caf0 f i libvcruntimed:frame.obj
 0001:0001bb40       ??8iterator@HandlerMap4@FH4@@QEBA_NAEBV012@@Z 000000014001cb40 f i libvcruntimed:frame.obj
 0001:0001bb80       ??8iterator@HandlerMap@__FrameHandler3@@QEBA_NAEBV012@@Z 000000014001cb80 f i libvcruntimed:frame.obj
 0001:0001bbc0       ??8type_info@@QEBA_NAEBV0@@Z 000000014001cbc0 f i libvcruntimed:frame.obj
 0001:0001bc40       ??9iterator@HandlerMap4@FH4@@QEBA_NAEBV012@@Z 000000014001cc40 f i libvcruntimed:frame.obj
 0001:0001bc80       ??9iterator@HandlerMap@__FrameHandler3@@QEBA_NAEBV012@@Z 000000014001cc80 f i libvcruntimed:frame.obj
 0001:0001bcc0       ??Diterator@HandlerMap4@FH4@@QEAA?AUHandlerType4@2@XZ 000000014001ccc0 f i libvcruntimed:frame.obj
 0001:0001bcf0       ??Diterator@HandlerMap@__FrameHandler3@@QEAA?BU_s_HandlerType@@XZ 000000014001ccf0 f i libvcruntimed:frame.obj
 0001:0001bd30       ??Diterator@TryBlockMap@__FrameHandler3@@QEAA?BU_s_TryBlockMapEntry@@XZ 000000014001cd30 f i libvcruntimed:frame.obj
 0001:0001bd80       ??Diterator@UWMap4@FH4@@QEAA?AUUnwindMapEntry4@2@XZ 000000014001cd80 f i libvcruntimed:frame.obj
 0001:0001be00       ??Eiterator@HandlerMap4@FH4@@QEAAAEAV012@XZ 000000014001ce00 f i libvcruntimed:frame.obj
 0001:0001be40       ??Eiterator@HandlerMap@__FrameHandler3@@QEAAAEAV012@XZ 000000014001ce40 f i libvcruntimed:frame.obj
 0001:0001be60       ??Eiterator@TryBlockMap@__FrameHandler3@@QEAAAEAV012@XZ 000000014001ce60 f i libvcruntimed:frame.obj
 0001:0001be80       ??Eiterator@UWMap4@FH4@@QEAAAEAV012@XZ 000000014001ce80 f i libvcruntimed:frame.obj
 0001:0001bec0       ??Giterator@UWMap4@FH4@@QEBA_JAEBV012@@Z 000000014001cec0 f i libvcruntimed:frame.obj
 0001:0001bee0       ??Miterator@TryBlockMap4@FH4@@QEBA_NAEBV012@@Z 000000014001cee0 f i libvcruntimed:frame.obj
 0001:0001bf20       ??Miterator@TryBlockMap@__FrameHandler3@@QEBA_NAEBV012@@Z 000000014001cf20 f i libvcruntimed:frame.obj
 0001:0001bf60       ??Oiterator@UWMap4@FH4@@QEBA_NAEBV012@@Z 000000014001cf60 f i libvcruntimed:frame.obj
 0001:0001bfa0       ??Piterator@UWMap4@FH4@@QEBA_NAEBV012@@Z 000000014001cfa0 f i libvcruntimed:frame.obj
 0001:0001bfe0       ??_Ebad_exception@std@@UEAAPEAXI@Z 000000014001cfe0 f i libvcruntimed:frame.obj
 0001:0001bfe0       ??_Gbad_exception@std@@UEAAPEAXI@Z 000000014001cfe0 f i libvcruntimed:frame.obj
 0001:0001c020       ??_Eexception@std@@UEAAPEAXI@Z 000000014001d020 f i libvcruntimed:frame.obj
 0001:0001c020       ??_Gexception@std@@UEAAPEAXI@Z 000000014001d020 f i libvcruntimed:frame.obj
 0001:0001c060       ?BuildCatchObject@__FrameHandler3@@SAXPEAUEHExceptionRecord@@PEAXPEBU_s_HandlerType@@PEBU_s_CatchableType@@@Z 000000014001d060 f   libvcruntimed:frame.obj
 0001:0001c0a0       ?BuildCatchObject@__FrameHandler4@@SAXPEAUEHExceptionRecord@@PEAXPEAUHandlerType4@FH4@@PEBU_s_CatchableType@@@Z 000000014001d0a0 f   libvcruntimed:frame.obj
 0001:0001c0e0       ?BuildCatchObjectHelper@__FrameHandler3@@SAHPEAUEHExceptionRecord@@PEAXPEBU_s_HandlerType@@PEBU_s_CatchableType@@@Z 000000014001d0e0 f   libvcruntimed:frame.obj
 0001:0001c120       ?BuildCatchObjectHelper@__FrameHandler4@@SAHPEAUEHExceptionRecord@@PEAXPEAUHandlerType4@FH4@@PEBU_s_CatchableType@@@Z 000000014001d120 f   libvcruntimed:frame.obj
 0001:0001c160       ?CxxCallCatchBlock@__FrameHandler3@@SAPEAXPEAU_EXCEPTION_RECORD@@@Z 000000014001d160 f   libvcruntimed:frame.obj
 0001:0001c3c0       ?CxxCallCatchBlock@__FrameHandler4@@SAPEAXPEAU_EXCEPTION_RECORD@@@Z 000000014001d3c0 f   libvcruntimed:frame.obj
 0001:0001c6f0       ?DecompHandler@HandlerMap4@FH4@@AEAAXXZ 000000014001d6f0 f i libvcruntimed:frame.obj
 0001:0001cac0       ?FrameUnwindToState@__FrameHandler3@@SAXPEA_KPEAU_xDISPATCHER_CONTEXT@@PEBU_s_FuncInfo@@H@Z 000000014001dac0 f   libvcruntimed:frame.obj
 0001:0001cd10       ?FrameUnwindToState@__FrameHandler4@@SAXPEA_KPEAU_xDISPATCHER_CONTEXT@@PEAUFuncInfo4@FH4@@H@Z 000000014001dd10 f   libvcruntimed:frame.obj
 0001:0001d030       ?GetHandlerSearchState@__FrameHandler3@@SAHPEA_KPEAU_xDISPATCHER_CONTEXT@@PEBU_s_FuncInfo@@@Z 000000014001e030 f i libvcruntimed:frame.obj
 0001:0001d0e0       ?GetHandlerSearchState@__FrameHandler4@@SAHPEA_KPEAU_xDISPATCHER_CONTEXT@@PEAUFuncInfo4@FH4@@@Z 000000014001e0e0 f i libvcruntimed:frame.obj
 0001:0001d170       ?GetMaxState@__FrameHandler3@@SAHPEAU_xDISPATCHER_CONTEXT@@PEBU_s_FuncInfo@@@Z 000000014001e170 f i libvcruntimed:frame.obj
 0001:0001d190       ?GetMaxState@__FrameHandler4@@SAHPEAU_xDISPATCHER_CONTEXT@@PEAUFuncInfo4@FH4@@@Z 000000014001e190 f i libvcruntimed:frame.obj
 0001:0001d3c0       ?ReadEntry@UWMap4@FH4@@AEAAXPEAPEAE@Z 000000014001e3c0 f i libvcruntimed:frame.obj
 0001:0001d470       ?TypeMatch@__FrameHandler3@@SAHPEBU_s_HandlerType@@PEBU_s_CatchableType@@PEBU_s_ThrowInfo@@@Z 000000014001e470 f   libvcruntimed:frame.obj
 0001:0001d4a0       ?TypeMatch@__FrameHandler4@@SAHPEAUHandlerType4@FH4@@PEBU_s_CatchableType@@PEBU_s_ThrowInfo@@@Z 000000014001e4a0 f   libvcruntimed:frame.obj
 0001:0001d4d0       ?WalkBack@UWMap4@FH4@@AEAAXPEAPEAE@Z 000000014001e4d0 f i libvcruntimed:frame.obj
 0001:0001d520       ?WalkBack@iterator@UWMap4@FH4@@QEAAXXZ 000000014001e520 f i libvcruntimed:frame.obj
 0001:0001d560       ?WalkForward@UWMap4@FH4@@AEAAXPEAPEAE@Z 000000014001e560 f i libvcruntimed:frame.obj
 0001:0001d590       ?_CallMemberFunction1@@YAXQEAX00@Z 000000014001e590 f i libvcruntimed:frame.obj
 0001:0001d5d0       ?_CallMemberFunction2@@YAXQEAX00H@Z 000000014001e5d0 f i libvcruntimed:frame.obj
 0001:0001d660       ?begin@HandlerMap4@FH4@@QEAA?AViterator@12@XZ 000000014001e660 f i libvcruntimed:frame.obj
 0001:0001d690       ?begin@HandlerMap@__FrameHandler3@@QEAA?AViterator@12@XZ 000000014001e690 f i libvcruntimed:frame.obj
 0001:0001d6c0       ?begin@UWMap4@FH4@@QEAA?AViterator@12@XZ 000000014001e6c0 f i libvcruntimed:frame.obj
 0001:0001d6f0       ?end@HandlerMap4@FH4@@QEAA?AViterator@12@XZ 000000014001e6f0 f i libvcruntimed:frame.obj
 0001:0001d720       ?end@HandlerMap@__FrameHandler3@@QEAA?AViterator@12@XZ 000000014001e720 f i libvcruntimed:frame.obj
 0001:0001d750       ?getESTypes@__FrameHandler3@@SAPEBU_s_ESTypeList@@PEBU_s_FuncInfo@@@Z 000000014001e750 f i libvcruntimed:frame.obj
 0001:0001d790       ?getESTypes@__FrameHandler4@@SAPEBU_s_ESTypeList@@PEAUFuncInfo4@FH4@@@Z 000000014001e790 f i libvcruntimed:frame.obj
 0001:0001d7a0       ?getLastEntry@HandlerMap4@FH4@@QEAAPEAUHandlerType4@2@XZ 000000014001e7a0 f i libvcruntimed:frame.obj
 0001:0001d7e0       ?getLastEntry@HandlerMap@__FrameHandler3@@QEAAPEBU_s_HandlerType@@XZ 000000014001e7e0 f i libvcruntimed:frame.obj
 0001:0001d800       ?getMagicNum@__FrameHandler3@@SAIPEBU_s_FuncInfo@@@Z 000000014001e800 f i libvcruntimed:frame.obj
 0001:0001d820       ?getMagicNum@__FrameHandler4@@SAIPEAUFuncInfo4@FH4@@@Z 000000014001e820 f i libvcruntimed:frame.obj
 0001:0001d830       ?getNumTryBlocks@TryBlockMap4@FH4@@QEAAIXZ 000000014001e830 f i libvcruntimed:frame.obj
 0001:0001d840       ?getNumTryBlocks@TryBlockMap@__FrameHandler3@@QEAAIXZ 000000014001e840 f i libvcruntimed:frame.obj
 0001:0001d860       ?getStartStop@UWMap4@FH4@@QEAAXHHAEAViterator@12@0@Z 000000014001e860 f i libvcruntimed:frame.obj
 0001:0001d980       ?getStateFromIterators@UWMap4@FH4@@SAHAEBViterator@12@H0H0@Z 000000014001e980 f i libvcruntimed:frame.obj
 0001:0001dac0       ?isEHs@__FrameHandler3@@SA_NPEBU_s_FuncInfo@@@Z 000000014001eac0 f i libvcruntimed:frame.obj
 0001:0001db00       ?isEHs@__FrameHandler4@@SA_NPEAUFuncInfo4@FH4@@@Z 000000014001eb00 f i libvcruntimed:frame.obj
 0001:0001db20       ?isNoExcept@__FrameHandler3@@SA_NPEBU_s_FuncInfo@@@Z 000000014001eb20 f i libvcruntimed:frame.obj
 0001:0001db60       ?isNoExcept@__FrameHandler4@@SA_NPEAUFuncInfo4@FH4@@@Z 000000014001eb60 f i libvcruntimed:frame.obj
 0001:0001db80       ?reset@HandlerType4@FH4@@QEAAXXZ 000000014001eb80 f i libvcruntimed:frame.obj
 0001:0001dbe0       ?resetBuffer@HandlerMap4@FH4@@QEAAXXZ 000000014001ebe0 f i libvcruntimed:frame.obj
 0001:0001dc00       ?setBuffer@HandlerMap4@FH4@@QEAAXI@Z 000000014001ec00 f i libvcruntimed:frame.obj
 0001:0001dc60       ?what@exception@std@@UEBAPEBDXZ 000000014001ec60 f i libvcruntimed:frame.obj
 0001:0001dca0       __BuildCatchObject         000000014001eca0 f   libvcruntimed:frame.obj
 0001:0001dce0       __BuildCatchObjectHelper   000000014001ece0 f   libvcruntimed:frame.obj
 0001:0001dd20       __TypeMatch                000000014001ed20 f   libvcruntimed:frame.obj
 0001:0001dd50       __vcrt_EncodePointer       000000014001ed50 f i libvcruntimed:frame.obj
 0001:0001ddb0       _CallSettingFrame          000000014001edb0 f   libvcruntimed:handlers.obj
 0001:0001ddf0       _CallSettingFrame_LookupContinuationIndex 000000014001edf0 f   libvcruntimed:handlers.obj
 0001:0001de20       _CallSettingFrame_NotifyContinuationAddr 000000014001ee20 f   libvcruntimed:handlers.obj
 0001:0001de50       _CallSettingFrameEncoded   000000014001ee50 f   libvcruntimed:handlers.obj
 0001:0001dea0       ??$?RD@__crt_public_free_policy@@QEBAXQEBD@Z 000000014001eea0 f i libvcruntimed:std_exception.obj
 0001:0001dec0       ??0?$__crt_unique_heap_ptr@DU__crt_public_free_policy@@@@QEAA@QEAD@Z 000000014001eec0 f i libvcruntimed:std_exception.obj
 0001:0001dee0       ??1?$__crt_unique_heap_ptr@DU__crt_public_free_policy@@@@QEAA@XZ 000000014001eee0 f i libvcruntimed:std_exception.obj
 0001:0001df00       ??B?$__crt_unique_heap_ptr@DU__crt_public_free_policy@@@@QEBA_NXZ 000000014001ef00 f i libvcruntimed:std_exception.obj
 0001:0001df20       ?detach@?$__crt_unique_heap_ptr@DU__crt_public_free_policy@@@@QEAAPEADXZ 000000014001ef20 f i libvcruntimed:std_exception.obj
 0001:0001df50       ?get@?$__crt_unique_heap_ptr@DU__crt_public_free_policy@@@@QEBAPEADXZ 000000014001ef50 f i libvcruntimed:std_exception.obj
 0001:0001df60       ?is_valid@?$__crt_unique_heap_ptr@DU__crt_public_free_policy@@@@QEBA_NXZ 000000014001ef60 f i libvcruntimed:std_exception.obj
 0001:0001df90       ?release@?$__crt_unique_heap_ptr@DU__crt_public_free_policy@@@@QEAAXXZ 000000014001ef90 f i libvcruntimed:std_exception.obj
 0001:0001dfc0       __std_exception_copy       000000014001efc0 f   libvcruntimed:std_exception.obj
 0001:0001e100       __std_exception_destroy    000000014001f100 f   libvcruntimed:std_exception.obj
 0001:0001e140       _CxxThrowException         000000014001f140 f   libvcruntimed:throw.obj
 0001:0001e280       ??$?RPEAU__crt_stdio_stream_data@@@__crt_internal_free_policy@@QEBAXQEBQEAU__crt_stdio_stream_data@@@Z 000000014001f280 f i libucrtd:_file.obj
 0001:0001e2b0       ??0?$__crt_unique_heap_ptr@PEAU__crt_stdio_stream_data@@U__crt_internal_free_policy@@@@QEAA@QEAPEAU__crt_stdio_stream_data@@@Z 000000014001f2b0 f i libucrtd:_file.obj
 0001:0001e2d0       ??0__crt_stdio_stream@@QEAA@QEAU_iobuf@@@Z 000000014001f2d0 f i libucrtd:_file.obj
 0001:0001e2f0       ??1?$__crt_unique_heap_ptr@PEAU__crt_stdio_stream_data@@U__crt_internal_free_policy@@@@QEAA@XZ 000000014001f2f0 f i libucrtd:_file.obj
 0001:0001e310       ??C__crt_stdio_stream@@QEBAPEAU__crt_stdio_stream_data@@XZ 000000014001f310 f i libucrtd:_file.obj
 0001:0001e320       ?detach@?$__crt_unique_heap_ptr@PEAU__crt_stdio_stream_data@@U__crt_internal_free_policy@@@@QEAAPEAPEAU__crt_stdio_stream_data@@XZ 000000014001f320 f i libucrtd:_file.obj
 0001:0001e350       ?release@?$__crt_unique_heap_ptr@PEAU__crt_stdio_stream_data@@U__crt_internal_free_policy@@@@QEAAXXZ 000000014001f350 f i libucrtd:_file.obj
 0001:0001e380       __acrt_initialize_stdio    000000014001f380 f   libucrtd:_file.obj
 0001:0001e570       __acrt_iob_func            000000014001f570 f   libucrtd:_file.obj
 0001:0001e590       __acrt_uninitialize_stdio  000000014001f590 f   libucrtd:_file.obj
 0001:0001e620       _get_stream_buffer_pointers 000000014001f620 f   libucrtd:_file.obj
 0001:0001e750       _lock_file                 000000014001f750 f   libucrtd:_file.obj
 0001:0001e790       _unlock_file               000000014001f790 f   libucrtd:_file.obj
 0001:0001e7d0       ??$?0AEBV?$stream_output_adapter@D@__crt_stdio_output@@AEB_KAEBQEBDAEAV__crt_cached_ptd_host@@AEBQEAD@?$format_validation_base@DV?$stream_output_adapter@D@__crt_stdio_output@@@__crt_stdio_output@@IEAA@AEBV?$stream_output_adapter@D@1@AEB_KAEBQEBDAEAV__crt_cached_ptd_host@@AEBQEAD@Z 000000014001f7d0 f i libucrtd:output.obj
 0001:0001e820       ??$?0AEBV?$stream_output_adapter@D@__crt_stdio_output@@AEB_KAEBQEBDAEAV__crt_cached_ptd_host@@AEBQEAD@?$positional_parameter_base@DV?$stream_output_adapter@D@__crt_stdio_output@@@__crt_stdio_output@@IEAA@AEBV?$stream_output_adapter@D@1@AEB_KAEBQEBDAEAV__crt_cached_ptd_host@@AEBQEAD@Z 000000014001f820 f i libucrtd:output.obj
 0001:0001e8c0       ??$?0AEBV?$stream_output_adapter@D@__crt_stdio_output@@AEB_KAEBQEBDAEAV__crt_cached_ptd_host@@AEBQEAD@?$standard_base@DV?$stream_output_adapter@D@__crt_stdio_output@@@__crt_stdio_output@@IEAA@AEBV?$stream_output_adapter@D@1@AEB_KAEBQEBDAEAV__crt_cached_ptd_host@@AEBQEAD@Z 000000014001f8c0 f i libucrtd:output.obj
 0001:0001e930       ??$?0AEBV?$stream_output_adapter@_W@__crt_stdio_output@@AEB_KAEBQEB_WAEAV__crt_cached_ptd_host@@AEBQEAD@?$format_validation_base@_WV?$stream_output_adapter@_W@__crt_stdio_output@@@__crt_stdio_output@@IEAA@AEBV?$stream_output_adapter@_W@1@AEB_KAEBQEB_WAEAV__crt_cached_ptd_host@@AEBQEAD@Z 000000014001f930 f i libucrtd:output.obj
 0001:0001e980       ??$?0AEBV?$stream_output_adapter@_W@__crt_stdio_output@@AEB_KAEBQEB_WAEAV__crt_cached_ptd_host@@AEBQEAD@?$positional_parameter_base@_WV?$stream_output_adapter@_W@__crt_stdio_output@@@__crt_stdio_output@@IEAA@AEBV?$stream_output_adapter@_W@1@AEB_KAEBQEB_WAEAV__crt_cached_ptd_host@@AEBQEAD@Z 000000014001f980 f i libucrtd:output.obj
 0001:0001ea20       ??$?0AEBV?$stream_output_adapter@_W@__crt_stdio_output@@AEB_KAEBQEB_WAEAV__crt_cached_ptd_host@@AEBQEAD@?$standard_base@_WV?$stream_output_adapter@_W@__crt_stdio_output@@@__crt_stdio_output@@IEAA@AEBV?$stream_output_adapter@_W@1@AEB_KAEBQEB_WAEAV__crt_cached_ptd_host@@AEBQEAD@Z 000000014001fa20 f i libucrtd:output.obj
 0001:0001ea90       ??$?0AEBV?$string_output_adapter@D@__crt_stdio_output@@AEB_KAEBQEBDAEAV__crt_cached_ptd_host@@AEBQEAD@?$format_validation_base@DV?$string_output_adapter@D@__crt_stdio_output@@@__crt_stdio_output@@IEAA@AEBV?$string_output_adapter@D@1@AEB_KAEBQEBDAEAV__crt_cached_ptd_host@@AEBQEAD@Z 000000014001fa90 f i libucrtd:output.obj
 0001:0001eae0       ??$?0AEBV?$string_output_adapter@D@__crt_stdio_output@@AEB_KAEBQEBDAEAV__crt_cached_ptd_host@@AEBQEAD@?$positional_parameter_base@DV?$string_output_adapter@D@__crt_stdio_output@@@__crt_stdio_output@@IEAA@AEBV?$string_output_adapter@D@1@AEB_KAEBQEBDAEAV__crt_cached_ptd_host@@AEBQEAD@Z 000000014001fae0 f i libucrtd:output.obj
 0001:0001eb80       ??$?0AEBV?$string_output_adapter@D@__crt_stdio_output@@AEB_KAEBQEBDAEAV__crt_cached_ptd_host@@AEBQEAD@?$standard_base@DV?$string_output_adapter@D@__crt_stdio_output@@@__crt_stdio_output@@IEAA@AEBV?$string_output_adapter@D@1@AEB_KAEBQEBDAEAV__crt_cached_ptd_host@@AEBQEAD@Z 000000014001fb80 f i libucrtd:output.obj
 0001:0001ebf0       ??$?0AEBV?$string_output_adapter@_W@__crt_stdio_output@@AEB_KAEBQEB_WAEAV__crt_cached_ptd_host@@AEBQEAD@?$format_validation_base@_WV?$string_output_adapter@_W@__crt_stdio_output@@@__crt_stdio_output@@IEAA@AEBV?$string_output_adapter@_W@1@AEB_KAEBQEB_WAEAV__crt_cached_ptd_host@@AEBQEAD@Z 000000014001fbf0 f i libucrtd:output.obj
 0001:0001ec40       ??$?0AEBV?$string_output_adapter@_W@__crt_stdio_output@@AEB_KAEBQEB_WAEAV__crt_cached_ptd_host@@AEBQEAD@?$positional_parameter_base@_WV?$string_output_adapter@_W@__crt_stdio_output@@@__crt_stdio_output@@IEAA@AEBV?$string_output_adapter@_W@1@AEB_KAEBQEB_WAEAV__crt_cached_ptd_host@@AEBQEAD@Z 000000014001fc40 f i libucrtd:output.obj
 0001:0001ece0       ??$?0AEBV?$string_output_adapter@_W@__crt_stdio_output@@AEB_KAEBQEB_WAEAV__crt_cached_ptd_host@@AEBQEAD@?$standard_base@_WV?$string_output_adapter@_W@__crt_stdio_output@@@__crt_stdio_output@@IEAA@AEBV?$string_output_adapter@_W@1@AEB_KAEBQEB_WAEAV__crt_cached_ptd_host@@AEBQEAD@Z 000000014001fce0 f i libucrtd:output.obj
 0001:0001f170       ??$__crt_interlocked_read@J@@YAJPEDJ@Z 0000000140020170 f i libucrtd:output.obj
 0001:0001f190       ??$_tcstol_internal@DPEAPEAD$0A@@@YAJAEAV__crt_cached_ptd_host@@QEBDQEAPEADH@Z 0000000140020190 f i libucrtd:output.obj
 0001:0001f1e0       ??$_tcstol_internal@_WPEAPEA_W$0A@@@YAJAEAV__crt_cached_ptd_host@@QEB_WQEAPEA_WH@Z 00000001400201e0 f i libucrtd:output.obj
 0001:00023200       ??$count@D@formatting_buffer@__crt_stdio_output@@QEBA_KXZ 0000000140024200 f i libucrtd:output.obj
 0001:00023250       ??$count@_W@formatting_buffer@__crt_stdio_output@@QEBA_KXZ 0000000140024250 f i libucrtd:output.obj
 0001:000232a0       ??$data@D@formatting_buffer@__crt_stdio_output@@QEAAPEADXZ 00000001400242a0 f i libucrtd:output.obj
 0001:000232f0       ??$data@_W@formatting_buffer@__crt_stdio_output@@QEAAPEA_WXZ 00000001400242f0 f i libucrtd:output.obj
 0001:00023340       ??$ensure_buffer_is_big_enough@D@formatting_buffer@__crt_stdio_output@@QEAA_N_KAEAV__crt_cached_ptd_host@@@Z 0000000140024340 f i libucrtd:output.obj
 0001:00023480       ??$ensure_buffer_is_big_enough@_W@formatting_buffer@__crt_stdio_output@@QEAA_N_KAEAV__crt_cached_ptd_host@@@Z 0000000140024480 f i libucrtd:output.obj
 0001:000235c0       ??$extract_argument_from_va_list@C_J@?$positional_parameter_base@DV?$stream_output_adapter@D@__crt_stdio_output@@@__crt_stdio_output@@IEAA_NAEA_J@Z 00000001400245c0 f i libucrtd:output.obj
 0001:00023780       ??$extract_argument_from_va_list@C_J@?$positional_parameter_base@DV?$string_output_adapter@D@__crt_stdio_output@@@__crt_stdio_output@@IEAA_NAEA_J@Z 0000000140024780 f i libucrtd:output.obj
 0001:00023940       ??$extract_argument_from_va_list@C_J@?$positional_parameter_base@_WV?$stream_output_adapter@_W@__crt_stdio_output@@@__crt_stdio_output@@IEAA_NAEA_J@Z 0000000140024940 f i libucrtd:output.obj
 0001:00023b00       ??$extract_argument_from_va_list@C_J@?$positional_parameter_base@_WV?$string_output_adapter@_W@__crt_stdio_output@@@__crt_stdio_output@@IEAA_NAEA_J@Z 0000000140024b00 f i libucrtd:output.obj
 0001:00023cc0       ??$extract_argument_from_va_list@C_J@?$standard_base@DV?$stream_output_adapter@D@__crt_stdio_output@@@__crt_stdio_output@@IEAA_NAEA_J@Z 0000000140024cc0 f i libucrtd:output.obj
 0001:00023d00       ??$extract_argument_from_va_list@C_J@?$standard_base@DV?$string_output_adapter@D@__crt_stdio_output@@@__crt_stdio_output@@IEAA_NAEA_J@Z 0000000140024d00 f i libucrtd:output.obj
 0001:00023d40       ??$extract_argument_from_va_list@C_J@?$standard_base@_WV?$stream_output_adapter@_W@__crt_stdio_output@@@__crt_stdio_output@@IEAA_NAEA_J@Z 0000000140024d40 f i libucrtd:output.obj
 0001:00023d80       ??$extract_argument_from_va_list@C_J@?$standard_base@_WV?$string_output_adapter@_W@__crt_stdio_output@@@__crt_stdio_output@@IEAA_NAEA_J@Z 0000000140024d80 f i libucrtd:output.obj
 0001:00023dc0       ??$extract_argument_from_va_list@E_J@?$positional_parameter_base@DV?$stream_output_adapter@D@__crt_stdio_output@@@__crt_stdio_output@@IEAA_NAEA_J@Z 0000000140024dc0 f i libucrtd:output.obj
 0001:00023f80       ??$extract_argument_from_va_list@E_J@?$positional_parameter_base@DV?$string_output_adapter@D@__crt_stdio_output@@@__crt_stdio_output@@IEAA_NAEA_J@Z 0000000140024f80 f i libucrtd:output.obj
 0001:00024140       ??$extract_argument_from_va_list@E_J@?$positional_parameter_base@_WV?$stream_output_adapter@_W@__crt_stdio_output@@@__crt_stdio_output@@IEAA_NAEA_J@Z 0000000140025140 f i libucrtd:output.obj
 0001:00024300       ??$extract_argument_from_va_list@E_J@?$positional_parameter_base@_WV?$string_output_adapter@_W@__crt_stdio_output@@@__crt_stdio_output@@IEAA_NAEA_J@Z 0000000140025300 f i libucrtd:output.obj
 0001:000244c0       ??$extract_argument_from_va_list@E_J@?$standard_base@DV?$stream_output_adapter@D@__crt_stdio_output@@@__crt_stdio_output@@IEAA_NAEA_J@Z 00000001400254c0 f i libucrtd:output.obj
 0001:00024500       ??$extract_argument_from_va_list@E_J@?$standard_base@DV?$string_output_adapter@D@__crt_stdio_output@@@__crt_stdio_output@@IEAA_NAEA_J@Z 0000000140025500 f i libucrtd:output.obj
 0001:00024540       ??$extract_argument_from_va_list@E_J@?$standard_base@_WV?$stream_output_adapter@_W@__crt_stdio_output@@@__crt_stdio_output@@IEAA_NAEA_J@Z 0000000140025540 f i libucrtd:output.obj
 0001:00024580       ??$extract_argument_from_va_list@E_J@?$standard_base@_WV?$string_output_adapter@_W@__crt_stdio_output@@@__crt_stdio_output@@IEAA_NAEA_J@Z 0000000140025580 f i libucrtd:output.obj
 0001:000245c0       ??$extract_argument_from_va_list@F_J@?$positional_parameter_base@DV?$stream_output_adapter@D@__crt_stdio_output@@@__crt_stdio_output@@IEAA_NAEA_J@Z 00000001400255c0 f i libucrtd:output.obj
 0001:00024780       ??$extract_argument_from_va_list@F_J@?$positional_parameter_base@DV?$string_output_adapter@D@__crt_stdio_output@@@__crt_stdio_output@@IEAA_NAEA_J@Z 0000000140025780 f i libucrtd:output.obj
 0001:00024940       ??$extract_argument_from_va_list@F_J@?$positional_parameter_base@_WV?$stream_output_adapter@_W@__crt_stdio_output@@@__crt_stdio_output@@IEAA_NAEA_J@Z 0000000140025940 f i libucrtd:output.obj
 0001:00024b00       ??$extract_argument_from_va_list@F_J@?$positional_parameter_base@_WV?$string_output_adapter@_W@__crt_stdio_output@@@__crt_stdio_output@@IEAA_NAEA_J@Z 0000000140025b00 f i libucrtd:output.obj
 0001:00024cc0       ??$extract_argument_from_va_list@F_J@?$standard_base@DV?$stream_output_adapter@D@__crt_stdio_output@@@__crt_stdio_output@@IEAA_NAEA_J@Z 0000000140025cc0 f i libucrtd:output.obj
 0001:00024d00       ??$extract_argument_from_va_list@F_J@?$standard_base@DV?$string_output_adapter@D@__crt_stdio_output@@@__crt_stdio_output@@IEAA_NAEA_J@Z 0000000140025d00 f i libucrtd:output.obj
 0001:00024d40       ??$extract_argument_from_va_list@F_J@?$standard_base@_WV?$stream_output_adapter@_W@__crt_stdio_output@@@__crt_stdio_output@@IEAA_NAEA_J@Z 0000000140025d40 f i libucrtd:output.obj
 0001:00024d80       ??$extract_argument_from_va_list@F_J@?$standard_base@_WV?$string_output_adapter@_W@__crt_stdio_output@@@__crt_stdio_output@@IEAA_NAEA_J@Z 0000000140025d80 f i libucrtd:output.obj
 0001:00024dc0       ??$extract_argument_from_va_list@GD@?$positional_parameter_base@DV?$stream_output_adapter@D@__crt_stdio_output@@@__crt_stdio_output@@IEAA_NAEAD@Z 0000000140025dc0 f i libucrtd:output.obj
 0001:00024f80       ??$extract_argument_from_va_list@GD@?$positional_parameter_base@DV?$string_output_adapter@D@__crt_stdio_output@@@__crt_stdio_output@@IEAA_NAEAD@Z 0000000140025f80 f i libucrtd:output.obj
 0001:00025140       ??$extract_argument_from_va_list@GD@?$standard_base@DV?$stream_output_adapter@D@__crt_stdio_output@@@__crt_stdio_output@@IEAA_NAEAD@Z 0000000140026140 f i libucrtd:output.obj
 0001:00025170       ??$extract_argument_from_va_list@GD@?$standard_base@DV?$string_output_adapter@D@__crt_stdio_output@@@__crt_stdio_output@@IEAA_NAEAD@Z 0000000140026170 f i libucrtd:output.obj
 0001:000251a0       ??$extract_argument_from_va_list@G_J@?$positional_parameter_base@DV?$stream_output_adapter@D@__crt_stdio_output@@@__crt_stdio_output@@IEAA_NAEA_J@Z 00000001400261a0 f i libucrtd:output.obj
 0001:00025360       ??$extract_argument_from_va_list@G_J@?$positional_parameter_base@DV?$string_output_adapter@D@__crt_stdio_output@@@__crt_stdio_output@@IEAA_NAEA_J@Z 0000000140026360 f i libucrtd:output.obj
 0001:00025520       ??$extract_argument_from_va_list@G_J@?$positional_parameter_base@_WV?$stream_output_adapter@_W@__crt_stdio_output@@@__crt_stdio_output@@IEAA_NAEA_J@Z 0000000140026520 f i libucrtd:output.obj
 0001:000256e0       ??$extract_argument_from_va_list@G_J@?$positional_parameter_base@_WV?$string_output_adapter@_W@__crt_stdio_output@@@__crt_stdio_output@@IEAA_NAEA_J@Z 00000001400266e0 f i libucrtd:output.obj
 0001:000258a0       ??$extract_argument_from_va_list@G_J@?$standard_base@DV?$stream_output_adapter@D@__crt_stdio_output@@@__crt_stdio_output@@IEAA_NAEA_J@Z 00000001400268a0 f i libucrtd:output.obj
 0001:000258e0       ??$extract_argument_from_va_list@G_J@?$standard_base@DV?$string_output_adapter@D@__crt_stdio_output@@@__crt_stdio_output@@IEAA_NAEA_J@Z 00000001400268e0 f i libucrtd:output.obj
 0001:00025920       ??$extract_argument_from_va_list@G_J@?$standard_base@_WV?$stream_output_adapter@_W@__crt_stdio_output@@@__crt_stdio_output@@IEAA_NAEA_J@Z 0000000140026920 f i libucrtd:output.obj
 0001:00025960       ??$extract_argument_from_va_list@G_J@?$standard_base@_WV?$string_output_adapter@_W@__crt_stdio_output@@@__crt_stdio_output@@IEAA_NAEA_J@Z 0000000140026960 f i libucrtd:output.obj
 0001:000259a0       ??$extract_argument_from_va_list@H_J@?$positional_parameter_base@DV?$stream_output_adapter@D@__crt_stdio_output@@@__crt_stdio_output@@IEAA_NAEA_J@Z 00000001400269a0 f i libucrtd:output.obj
 0001:00025b60       ??$extract_argument_from_va_list@H_J@?$positional_parameter_base@DV?$string_output_adapter@D@__crt_stdio_output@@@__crt_stdio_output@@IEAA_NAEA_J@Z 0000000140026b60 f i libucrtd:output.obj
 0001:00025d20       ??$extract_argument_from_va_list@H_J@?$positional_parameter_base@_WV?$stream_output_adapter@_W@__crt_stdio_output@@@__crt_stdio_output@@IEAA_NAEA_J@Z 0000000140026d20 f i libucrtd:output.obj
 0001:00025ee0       ??$extract_argument_from_va_list@H_J@?$positional_parameter_base@_WV?$string_output_adapter@_W@__crt_stdio_output@@@__crt_stdio_output@@IEAA_NAEA_J@Z 0000000140026ee0 f i libucrtd:output.obj
 0001:000260a0       ??$extract_argument_from_va_list@H_J@?$standard_base@DV?$stream_output_adapter@D@__crt_stdio_output@@@__crt_stdio_output@@IEAA_NAEA_J@Z 00000001400270a0 f i libucrtd:output.obj
 0001:000260d0       ??$extract_argument_from_va_list@H_J@?$standard_base@DV?$string_output_adapter@D@__crt_stdio_output@@@__crt_stdio_output@@IEAA_NAEA_J@Z 00000001400270d0 f i libucrtd:output.obj
 0001:00026100       ??$extract_argument_from_va_list@H_J@?$standard_base@_WV?$stream_output_adapter@_W@__crt_stdio_output@@@__crt_stdio_output@@IEAA_NAEA_J@Z 0000000140027100 f i libucrtd:output.obj
 0001:00026130       ??$extract_argument_from_va_list@H_J@?$standard_base@_WV?$string_output_adapter@_W@__crt_stdio_output@@@__crt_stdio_output@@IEAA_NAEA_J@Z 0000000140027130 f i libucrtd:output.obj
 0001:00026160       ??$extract_argument_from_va_list@I_J@?$positional_parameter_base@DV?$stream_output_adapter@D@__crt_stdio_output@@@__crt_stdio_output@@IEAA_NAEA_J@Z 0000000140027160 f i libucrtd:output.obj
 0001:00026320       ??$extract_argument_from_va_list@I_J@?$positional_parameter_base@DV?$string_output_adapter@D@__crt_stdio_output@@@__crt_stdio_output@@IEAA_NAEA_J@Z 0000000140027320 f i libucrtd:output.obj
 0001:000264e0       ??$extract_argument_from_va_list@I_J@?$positional_parameter_base@_WV?$stream_output_adapter@_W@__crt_stdio_output@@@__crt_stdio_output@@IEAA_NAEA_J@Z 00000001400274e0 f i libucrtd:output.obj
 0001:000266a0       ??$extract_argument_from_va_list@I_J@?$positional_parameter_base@_WV?$string_output_adapter@_W@__crt_stdio_output@@@__crt_stdio_output@@IEAA_NAEA_J@Z 00000001400276a0 f i libucrtd:output.obj
 0001:00026860       ??$extract_argument_from_va_list@I_J@?$standard_base@DV?$stream_output_adapter@D@__crt_stdio_output@@@__crt_stdio_output@@IEAA_NAEA_J@Z 0000000140027860 f i libucrtd:output.obj
 0001:00026890       ??$extract_argument_from_va_list@I_J@?$standard_base@DV?$string_output_adapter@D@__crt_stdio_output@@@__crt_stdio_output@@IEAA_NAEA_J@Z 0000000140027890 f i libucrtd:output.obj
 0001:000268c0       ??$extract_argument_from_va_list@I_J@?$standard_base@_WV?$stream_output_adapter@_W@__crt_stdio_output@@@__crt_stdio_output@@IEAA_NAEA_J@Z 00000001400278c0 f i libucrtd:output.obj
 0001:000268f0       ??$extract_argument_from_va_list@I_J@?$standard_base@_WV?$string_output_adapter@_W@__crt_stdio_output@@@__crt_stdio_output@@IEAA_NAEA_J@Z 00000001400278f0 f i libucrtd:output.obj
 0001:00026920       ??$extract_argument_from_va_list@PEADPEAD@?$positional_parameter_base@DV?$stream_output_adapter@D@__crt_stdio_output@@@__crt_stdio_output@@IEAA_NAEAPEAD@Z 0000000140027920 f i libucrtd:output.obj
 0001:00026ae0       ??$extract_argument_from_va_list@PEADPEAD@?$positional_parameter_base@DV?$string_output_adapter@D@__crt_stdio_output@@@__crt_stdio_output@@IEAA_NAEAPEAD@Z 0000000140027ae0 f i libucrtd:output.obj
 0001:00026ca0       ??$extract_argument_from_va_list@PEADPEAD@?$positional_parameter_base@_WV?$stream_output_adapter@_W@__crt_stdio_output@@@__crt_stdio_output@@IEAA_NAEAPEAD@Z 0000000140027ca0 f i libucrtd:output.obj
 0001:00026e60       ??$extract_argument_from_va_list@PEADPEAD@?$positional_parameter_base@_WV?$string_output_adapter@_W@__crt_stdio_output@@@__crt_stdio_output@@IEAA_NAEAPEAD@Z 0000000140027e60 f i libucrtd:output.obj
 0001:00027020       ??$extract_argument_from_va_list@PEADPEAD@?$standard_base@DV?$stream_output_adapter@D@__crt_stdio_output@@@__crt_stdio_output@@IEAA_NAEAPEAD@Z 0000000140028020 f i libucrtd:output.obj
 0001:00027050       ??$extract_argument_from_va_list@PEADPEAD@?$standard_base@DV?$string_output_adapter@D@__crt_stdio_output@@@__crt_stdio_output@@IEAA_NAEAPEAD@Z 0000000140028050 f i libucrtd:output.obj
 0001:00027080       ??$extract_argument_from_va_list@PEADPEAD@?$standard_base@_WV?$stream_output_adapter@_W@__crt_stdio_output@@@__crt_stdio_output@@IEAA_NAEAPEAD@Z 0000000140028080 f i libucrtd:output.obj
 0001:000270b0       ??$extract_argument_from_va_list@PEADPEAD@?$standard_base@_WV?$string_output_adapter@_W@__crt_stdio_output@@@__crt_stdio_output@@IEAA_NAEAPEAD@Z 00000001400280b0 f i libucrtd:output.obj
 0001:000270e0       ??$extract_argument_from_va_list@PEAUansi_string@?1??type_case_Z@?$output_processor@DV?$stream_output_adapter@D@__crt_stdio_output@@V?$format_validation_base@DV?$stream_output_adapter@D@__crt_stdio_output@@@2@@__crt_stdio_output@@AEAA_NXZ@PEAU1?1??234@AEAA_NXZ@@?$standard_base@DV?$stream_output_adapter@D@__crt_stdio_output@@@__crt_stdio_output@@IEAA_NAEAPEAUansi_string@?1??type_case_Z@?$output_processor@DV?$stream_output_adapter@D@__crt_stdio_output@@V?$format_validation_base@DV?$stream_output_adapter@D@__crt_stdio_output@@@2@@1@AEAA_NXZ@@Z 00000001400280e0 f i libucrtd:output.obj
 0001:00027110       ??$extract_argument_from_va_list@PEAUansi_string@?1??type_case_Z@?$output_processor@DV?$stream_output_adapter@D@__crt_stdio_output@@V?$positional_parameter_base@DV?$stream_output_adapter@D@__crt_stdio_output@@@2@@__crt_stdio_output@@AEAA_NXZ@PEAU1?1??234@AEAA_NXZ@@?$positional_parameter_base@DV?$stream_output_adapter@D@__crt_stdio_output@@@__crt_stdio_output@@IEAA_NAEAPEAUansi_string@?1??type_case_Z@?$output_processor@DV?$stream_output_adapter@D@__crt_stdio_output@@V?$positional_parameter_base@DV?$stream_output_adapter@D@__crt_stdio_output@@@2@@1@AEAA_NXZ@@Z 0000000140028110 f i libucrtd:output.obj
 0001:000272d0       ??$extract_argument_from_va_list@PEAUansi_string@?1??type_case_Z@?$output_processor@DV?$stream_output_adapter@D@__crt_stdio_output@@V?$positional_parameter_base@DV?$stream_output_adapter@D@__crt_stdio_output@@@2@@__crt_stdio_output@@AEAA_NXZ@PEAU1?1??234@AEAA_NXZ@@?$standard_base@DV?$stream_output_adapter@D@__crt_stdio_output@@@__crt_stdio_output@@IEAA_NAEAPEAUansi_string@?1??type_case_Z@?$output_processor@DV?$stream_output_adapter@D@__crt_stdio_output@@V?$positional_parameter_base@DV?$stream_output_adapter@D@__crt_stdio_output@@@2@@1@AEAA_NXZ@@Z 00000001400282d0 f i libucrtd:output.obj
 0001:00027300       ??$extract_argument_from_va_list@PEAUansi_string@?1??type_case_Z@?$output_processor@DV?$stream_output_adapter@D@__crt_stdio_output@@V?$standard_base@DV?$stream_output_adapter@D@__crt_stdio_output@@@2@@__crt_stdio_output@@AEAA_NXZ@PEAU1?1??234@AEAA_NXZ@@?$standard_base@DV?$stream_output_adapter@D@__crt_stdio_output@@@__crt_stdio_output@@IEAA_NAEAPEAUansi_string@?1??type_case_Z@?$output_processor@DV?$stream_output_adapter@D@__crt_stdio_output@@V?$standard_base@DV?$stream_output_adapter@D@__crt_stdio_output@@@2@@1@AEAA_NXZ@@Z 0000000140028300 f i libucrtd:output.obj
 0001:00027330       ??$extract_argument_from_va_list@PEAUansi_string@?1??type_case_Z@?$output_processor@DV?$string_output_adapter@D@__crt_stdio_output@@V?$format_validation_base@DV?$string_output_adapter@D@__crt_stdio_output@@@2@@__crt_stdio_output@@AEAA_NXZ@PEAU1?1??234@AEAA_NXZ@@?$standard_base@DV?$string_output_adapter@D@__crt_stdio_output@@@__crt_stdio_output@@IEAA_NAEAPEAUansi_string@?1??type_case_Z@?$output_processor@DV?$string_output_adapter@D@__crt_stdio_output@@V?$format_validation_base@DV?$string_output_adapter@D@__crt_stdio_output@@@2@@1@AEAA_NXZ@@Z 0000000140028330 f i libucrtd:output.obj
 0001:00027360       ??$extract_argument_from_va_list@PEAUansi_string@?1??type_case_Z@?$output_processor@DV?$string_output_adapter@D@__crt_stdio_output@@V?$positional_parameter_base@DV?$string_output_adapter@D@__crt_stdio_output@@@2@@__crt_stdio_output@@AEAA_NXZ@PEAU1?1??234@AEAA_NXZ@@?$positional_parameter_base@DV?$string_output_adapter@D@__crt_stdio_output@@@__crt_stdio_output@@IEAA_NAEAPEAUansi_string@?1??type_case_Z@?$output_processor@DV?$string_output_adapter@D@__crt_stdio_output@@V?$positional_parameter_base@DV?$string_output_adapter@D@__crt_stdio_output@@@2@@1@AEAA_NXZ@@Z 0000000140028360 f i libucrtd:output.obj
 0001:00027520       ??$extract_argument_from_va_list@PEAUansi_string@?1??type_case_Z@?$output_processor@DV?$string_output_adapter@D@__crt_stdio_output@@V?$positional_parameter_base@DV?$string_output_adapter@D@__crt_stdio_output@@@2@@__crt_stdio_output@@AEAA_NXZ@PEAU1?1??234@AEAA_NXZ@@?$standard_base@DV?$string_output_adapter@D@__crt_stdio_output@@@__crt_stdio_output@@IEAA_NAEAPEAUansi_string@?1??type_case_Z@?$output_processor@DV?$string_output_adapter@D@__crt_stdio_output@@V?$positional_parameter_base@DV?$string_output_adapter@D@__crt_stdio_output@@@2@@1@AEAA_NXZ@@Z 0000000140028520 f i libucrtd:output.obj
 0001:00027550       ??$extract_argument_from_va_list@PEAUansi_string@?1??type_case_Z@?$output_processor@DV?$string_output_adapter@D@__crt_stdio_output@@V?$standard_base@DV?$string_output_adapter@D@__crt_stdio_output@@@2@@__crt_stdio_output@@AEAA_NXZ@PEAU1?1??234@AEAA_NXZ@@?$standard_base@DV?$string_output_adapter@D@__crt_stdio_output@@@__crt_stdio_output@@IEAA_NAEAPEAUansi_string@?1??type_case_Z@?$output_processor@DV?$string_output_adapter@D@__crt_stdio_output@@V?$standard_base@DV?$string_output_adapter@D@__crt_stdio_output@@@2@@1@AEAA_NXZ@@Z 0000000140028550 f i libucrtd:output.obj
 0001:00027580       ??$extract_argument_from_va_list@PEAUansi_string@?1??type_case_Z@?$output_processor@_WV?$stream_output_adapter@_W@__crt_stdio_output@@V?$format_validation_base@_WV?$stream_output_adapter@_W@__crt_stdio_output@@@2@@__crt_stdio_output@@AEAA_NXZ@PEAU1?1??234@AEAA_NXZ@@?$standard_base@_WV?$stream_output_adapter@_W@__crt_stdio_output@@@__crt_stdio_output@@IEAA_NAEAPEAUansi_string@?1??type_case_Z@?$output_processor@_WV?$stream_output_adapter@_W@__crt_stdio_output@@V?$format_validation_base@_WV?$stream_output_adapter@_W@__crt_stdio_output@@@2@@1@AEAA_NXZ@@Z 0000000140028580 f i libucrtd:output.obj
 0001:000275b0       ??$extract_argument_from_va_list@PEAUansi_string@?1??type_case_Z@?$output_processor@_WV?$stream_output_adapter@_W@__crt_stdio_output@@V?$positional_parameter_base@_WV?$stream_output_adapter@_W@__crt_stdio_output@@@2@@__crt_stdio_output@@AEAA_NXZ@PEAU1?1??234@AEAA_NXZ@@?$positional_parameter_base@_WV?$stream_output_adapter@_W@__crt_stdio_output@@@__crt_stdio_output@@IEAA_NAEAPEAUansi_string@?1??type_case_Z@?$output_processor@_WV?$stream_output_adapter@_W@__crt_stdio_output@@V?$positional_parameter_base@_WV?$stream_output_adapter@_W@__crt_stdio_output@@@2@@1@AEAA_NXZ@@Z 00000001400285b0 f i libucrtd:output.obj
 0001:00027770       ??$extract_argument_from_va_list@PEAUansi_string@?1??type_case_Z@?$output_processor@_WV?$stream_output_adapter@_W@__crt_stdio_output@@V?$positional_parameter_base@_WV?$stream_output_adapter@_W@__crt_stdio_output@@@2@@__crt_stdio_output@@AEAA_NXZ@PEAU1?1??234@AEAA_NXZ@@?$standard_base@_WV?$stream_output_adapter@_W@__crt_stdio_output@@@__crt_stdio_output@@IEAA_NAEAPEAUansi_string@?1??type_case_Z@?$output_processor@_WV?$stream_output_adapter@_W@__crt_stdio_output@@V?$positional_parameter_base@_WV?$stream_output_adapter@_W@__crt_stdio_output@@@2@@1@AEAA_NXZ@@Z 0000000140028770 f i libucrtd:output.obj
 0001:000277a0       ??$extract_argument_from_va_list@PEAUansi_string@?1??type_case_Z@?$output_processor@_WV?$stream_output_adapter@_W@__crt_stdio_output@@V?$standard_base@_WV?$stream_output_adapter@_W@__crt_stdio_output@@@2@@__crt_stdio_output@@AEAA_NXZ@PEAU1?1??234@AEAA_NXZ@@?$standard_base@_WV?$stream_output_adapter@_W@__crt_stdio_output@@@__crt_stdio_output@@IEAA_NAEAPEAUansi_string@?1??type_case_Z@?$output_processor@_WV?$stream_output_adapter@_W@__crt_stdio_output@@V?$standard_base@_WV?$stream_output_adapter@_W@__crt_stdio_output@@@2@@1@AEAA_NXZ@@Z 00000001400287a0 f i libucrtd:output.obj
 0001:000277d0       ??$extract_argument_from_va_list@PEAUansi_string@?1??type_case_Z@?$output_processor@_WV?$string_output_adapter@_W@__crt_stdio_output@@V?$format_validation_base@_WV?$string_output_adapter@_W@__crt_stdio_output@@@2@@__crt_stdio_output@@AEAA_NXZ@PEAU1?1??234@AEAA_NXZ@@?$standard_base@_WV?$string_output_adapter@_W@__crt_stdio_output@@@__crt_stdio_output@@IEAA_NAEAPEAUansi_string@?1??type_case_Z@?$output_processor@_WV?$string_output_adapter@_W@__crt_stdio_output@@V?$format_validation_base@_WV?$string_output_adapter@_W@__crt_stdio_output@@@2@@1@AEAA_NXZ@@Z 00000001400287d0 f i libucrtd:output.obj
 0001:00027800       ??$extract_argument_from_va_list@PEAUansi_string@?1??type_case_Z@?$output_processor@_WV?$string_output_adapter@_W@__crt_stdio_output@@V?$positional_parameter_base@_WV?$string_output_adapter@_W@__crt_stdio_output@@@2@@__crt_stdio_output@@AEAA_NXZ@PEAU1?1??234@AEAA_NXZ@@?$positional_parameter_base@_WV?$string_output_adapter@_W@__crt_stdio_output@@@__crt_stdio_output@@IEAA_NAEAPEAUansi_string@?1??type_case_Z@?$output_processor@_WV?$string_output_adapter@_W@__crt_stdio_output@@V?$positional_parameter_base@_WV?$string_output_adapter@_W@__crt_stdio_output@@@2@@1@AEAA_NXZ@@Z 0000000140028800 f i libucrtd:output.obj
 0001:000279c0       ??$extract_argument_from_va_list@PEAUansi_string@?1??type_case_Z@?$output_processor@_WV?$string_output_adapter@_W@__crt_stdio_output@@V?$positional_parameter_base@_WV?$string_output_adapter@_W@__crt_stdio_output@@@2@@__crt_stdio_output@@AEAA_NXZ@PEAU1?1??234@AEAA_NXZ@@?$standard_base@_WV?$string_output_adapter@_W@__crt_stdio_output@@@__crt_stdio_output@@IEAA_NAEAPEAUansi_string@?1??type_case_Z@?$output_processor@_WV?$string_output_adapter@_W@__crt_stdio_output@@V?$positional_parameter_base@_WV?$string_output_adapter@_W@__crt_stdio_output@@@2@@1@AEAA_NXZ@@Z 00000001400289c0 f i libucrtd:output.obj
 0001:000279f0       ??$extract_argument_from_va_list@PEAUansi_string@?1??type_case_Z@?$output_processor@_WV?$string_output_adapter@_W@__crt_stdio_output@@V?$standard_base@_WV?$string_output_adapter@_W@__crt_stdio_output@@@2@@__crt_stdio_output@@AEAA_NXZ@PEAU1?1??234@AEAA_NXZ@@?$standard_base@_WV?$string_output_adapter@_W@__crt_stdio_output@@@__crt_stdio_output@@IEAA_NAEAPEAUansi_string@?1??type_case_Z@?$output_processor@_WV?$string_output_adapter@_W@__crt_stdio_output@@V?$standard_base@_WV?$string_output_adapter@_W@__crt_stdio_output@@@2@@1@AEAA_NXZ@@Z 00000001400289f0 f i libucrtd:output.obj
 0001:00027a20       ??$extract_argument_from_va_list@PEAXPEAX@?$positional_parameter_base@DV?$stream_output_adapter@D@__crt_stdio_output@@@__crt_stdio_output@@IEAA_NAEAPEAX@Z 0000000140028a20 f i libucrtd:output.obj
 0001:00027be0       ??$extract_argument_from_va_list@PEAXPEAX@?$positional_parameter_base@DV?$string_output_adapter@D@__crt_stdio_output@@@__crt_stdio_output@@IEAA_NAEAPEAX@Z 0000000140028be0 f i libucrtd:output.obj
 0001:00027da0       ??$extract_argument_from_va_list@PEAXPEAX@?$positional_parameter_base@_WV?$stream_output_adapter@_W@__crt_stdio_output@@@__crt_stdio_output@@IEAA_NAEAPEAX@Z 0000000140028da0 f i libucrtd:output.obj
 0001:00027f60       ??$extract_argument_from_va_list@PEAXPEAX@?$positional_parameter_base@_WV?$string_output_adapter@_W@__crt_stdio_output@@@__crt_stdio_output@@IEAA_NAEAPEAX@Z 0000000140028f60 f i libucrtd:output.obj
 0001:00028120       ??$extract_argument_from_va_list@PEAXPEAX@?$standard_base@DV?$stream_output_adapter@D@__crt_stdio_output@@@__crt_stdio_output@@IEAA_NAEAPEAX@Z 0000000140029120 f i libucrtd:output.obj
 0001:00028150       ??$extract_argument_from_va_list@PEAXPEAX@?$standard_base@DV?$string_output_adapter@D@__crt_stdio_output@@@__crt_stdio_output@@IEAA_NAEAPEAX@Z 0000000140029150 f i libucrtd:output.obj
 0001:00028180       ??$extract_argument_from_va_list@PEAXPEAX@?$standard_base@_WV?$stream_output_adapter@_W@__crt_stdio_output@@@__crt_stdio_output@@IEAA_NAEAPEAX@Z 0000000140029180 f i libucrtd:output.obj
 0001:000281b0       ??$extract_argument_from_va_list@PEAXPEAX@?$standard_base@_WV?$string_output_adapter@_W@__crt_stdio_output@@@__crt_stdio_output@@IEAA_NAEAPEAX@Z 00000001400291b0 f i libucrtd:output.obj
 0001:000281e0       ??$extract_argument_from_va_list@U_CRT_DOUBLE@@U1@@?$positional_parameter_base@DV?$stream_output_adapter@D@__crt_stdio_output@@@__crt_stdio_output@@IEAA_NAEAU_CRT_DOUBLE@@@Z 00000001400291e0 f i libucrtd:output.obj
 0001:000283f0       ??$extract_argument_from_va_list@U_CRT_DOUBLE@@U1@@?$positional_parameter_base@DV?$string_output_adapter@D@__crt_stdio_output@@@__crt_stdio_output@@IEAA_NAEAU_CRT_DOUBLE@@@Z 00000001400293f0 f i libucrtd:output.obj
 0001:00028600       ??$extract_argument_from_va_list@U_CRT_DOUBLE@@U1@@?$positional_parameter_base@_WV?$stream_output_adapter@_W@__crt_stdio_output@@@__crt_stdio_output@@IEAA_NAEAU_CRT_DOUBLE@@@Z 0000000140029600 f i libucrtd:output.obj
 0001:00028810       ??$extract_argument_from_va_list@U_CRT_DOUBLE@@U1@@?$positional_parameter_base@_WV?$string_output_adapter@_W@__crt_stdio_output@@@__crt_stdio_output@@IEAA_NAEAU_CRT_DOUBLE@@@Z 0000000140029810 f i libucrtd:output.obj
 0001:00028a20       ??$extract_argument_from_va_list@U_CRT_DOUBLE@@U1@@?$standard_base@DV?$stream_output_adapter@D@__crt_stdio_output@@@__crt_stdio_output@@IEAA_NAEAU_CRT_DOUBLE@@@Z 0000000140029a20 f i libucrtd:output.obj
 0001:00028a60       ??$extract_argument_from_va_list@U_CRT_DOUBLE@@U1@@?$standard_base@DV?$string_output_adapter@D@__crt_stdio_output@@@__crt_stdio_output@@IEAA_NAEAU_CRT_DOUBLE@@@Z 0000000140029a60 f i libucrtd:output.obj
 0001:00028aa0       ??$extract_argument_from_va_list@U_CRT_DOUBLE@@U1@@?$standard_base@_WV?$stream_output_adapter@_W@__crt_stdio_output@@@__crt_stdio_output@@IEAA_NAEAU_CRT_DOUBLE@@@Z 0000000140029aa0 f i libucrtd:output.obj
 0001:00028ae0       ??$extract_argument_from_va_list@U_CRT_DOUBLE@@U1@@?$standard_base@_WV?$string_output_adapter@_W@__crt_stdio_output@@@__crt_stdio_output@@IEAA_NAEAU_CRT_DOUBLE@@@Z 0000000140029ae0 f i libucrtd:output.obj
 0001:00028b20       ??$extract_argument_from_va_list@_J_J@?$positional_parameter_base@DV?$stream_output_adapter@D@__crt_stdio_output@@@__crt_stdio_output@@IEAA_NAEA_J@Z 0000000140029b20 f i libucrtd:output.obj
 0001:00028ce0       ??$extract_argument_from_va_list@_J_J@?$positional_parameter_base@DV?$string_output_adapter@D@__crt_stdio_output@@@__crt_stdio_output@@IEAA_NAEA_J@Z 0000000140029ce0 f i libucrtd:output.obj
 0001:00028ea0       ??$extract_argument_from_va_list@_J_J@?$positional_parameter_base@_WV?$stream_output_adapter@_W@__crt_stdio_output@@@__crt_stdio_output@@IEAA_NAEA_J@Z 0000000140029ea0 f i libucrtd:output.obj
 0001:00029060       ??$extract_argument_from_va_list@_J_J@?$positional_parameter_base@_WV?$string_output_adapter@_W@__crt_stdio_output@@@__crt_stdio_output@@IEAA_NAEA_J@Z 000000014002a060 f i libucrtd:output.obj
 0001:00029220       ??$extract_argument_from_va_list@_J_J@?$standard_base@DV?$stream_output_adapter@D@__crt_stdio_output@@@__crt_stdio_output@@IEAA_NAEA_J@Z 000000014002a220 f i libucrtd:output.obj
 0001:00029250       ??$extract_argument_from_va_list@_J_J@?$standard_base@DV?$string_output_adapter@D@__crt_stdio_output@@@__crt_stdio_output@@IEAA_NAEA_J@Z 000000014002a250 f i libucrtd:output.obj
 0001:00029280       ??$extract_argument_from_va_list@_J_J@?$standard_base@_WV?$stream_output_adapter@_W@__crt_stdio_output@@@__crt_stdio_output@@IEAA_NAEA_J@Z 000000014002a280 f i libucrtd:output.obj
 0001:000292b0       ??$extract_argument_from_va_list@_J_J@?$standard_base@_WV?$string_output_adapter@_W@__crt_stdio_output@@@__crt_stdio_output@@IEAA_NAEA_J@Z 000000014002a2b0 f i libucrtd:output.obj
 0001:000292e0       ??$extract_argument_from_va_list@_K_J@?$positional_parameter_base@DV?$stream_output_adapter@D@__crt_stdio_output@@@__crt_stdio_output@@IEAA_NAEA_J@Z 000000014002a2e0 f i libucrtd:output.obj
 0001:000294a0       ??$extract_argument_from_va_list@_K_J@?$positional_parameter_base@DV?$string_output_adapter@D@__crt_stdio_output@@@__crt_stdio_output@@IEAA_NAEA_J@Z 000000014002a4a0 f i libucrtd:output.obj
 0001:00029660       ??$extract_argument_from_va_list@_K_J@?$positional_parameter_base@_WV?$stream_output_adapter@_W@__crt_stdio_output@@@__crt_stdio_output@@IEAA_NAEA_J@Z 000000014002a660 f i libucrtd:output.obj
 0001:00029820       ??$extract_argument_from_va_list@_K_J@?$positional_parameter_base@_WV?$string_output_adapter@_W@__crt_stdio_output@@@__crt_stdio_output@@IEAA_NAEA_J@Z 000000014002a820 f i libucrtd:output.obj
 0001:000299e0       ??$extract_argument_from_va_list@_K_J@?$standard_base@DV?$stream_output_adapter@D@__crt_stdio_output@@@__crt_stdio_output@@IEAA_NAEA_J@Z 000000014002a9e0 f i libucrtd:output.obj
 0001:00029a10       ??$extract_argument_from_va_list@_K_J@?$standard_base@DV?$string_output_adapter@D@__crt_stdio_output@@@__crt_stdio_output@@IEAA_NAEA_J@Z 000000014002aa10 f i libucrtd:output.obj
 0001:00029a40       ??$extract_argument_from_va_list@_K_J@?$standard_base@_WV?$stream_output_adapter@_W@__crt_stdio_output@@@__crt_stdio_output@@IEAA_NAEA_J@Z 000000014002aa40 f i libucrtd:output.obj
 0001:00029a70       ??$extract_argument_from_va_list@_K_J@?$standard_base@_WV?$string_output_adapter@_W@__crt_stdio_output@@@__crt_stdio_output@@IEAA_NAEA_J@Z 000000014002aa70 f i libucrtd:output.obj
 0001:00029aa0       ??$extract_argument_from_va_list@_W_W@?$positional_parameter_base@DV?$stream_output_adapter@D@__crt_stdio_output@@@__crt_stdio_output@@IEAA_NAEA_W@Z 000000014002aaa0 f i libucrtd:output.obj
 0001:00029c60       ??$extract_argument_from_va_list@_W_W@?$positional_parameter_base@DV?$string_output_adapter@D@__crt_stdio_output@@@__crt_stdio_output@@IEAA_NAEA_W@Z 000000014002ac60 f i libucrtd:output.obj
 0001:00029e20       ??$extract_argument_from_va_list@_W_W@?$positional_parameter_base@_WV?$stream_output_adapter@_W@__crt_stdio_output@@@__crt_stdio_output@@IEAA_NAEA_W@Z 000000014002ae20 f i libucrtd:output.obj
 0001:00029fe0       ??$extract_argument_from_va_list@_W_W@?$positional_parameter_base@_WV?$string_output_adapter@_W@__crt_stdio_output@@@__crt_stdio_output@@IEAA_NAEA_W@Z 000000014002afe0 f i libucrtd:output.obj
 0001:0002a1a0       ??$extract_argument_from_va_list@_W_W@?$standard_base@DV?$stream_output_adapter@D@__crt_stdio_output@@@__crt_stdio_output@@IEAA_NAEA_W@Z 000000014002b1a0 f i libucrtd:output.obj
 0001:0002a1d0       ??$extract_argument_from_va_list@_W_W@?$standard_base@DV?$string_output_adapter@D@__crt_stdio_output@@@__crt_stdio_output@@IEAA_NAEA_W@Z 000000014002b1d0 f i libucrtd:output.obj
 0001:0002a200       ??$extract_argument_from_va_list@_W_W@?$standard_base@_WV?$stream_output_adapter@_W@__crt_stdio_output@@@__crt_stdio_output@@IEAA_NAEA_W@Z 000000014002b200 f i libucrtd:output.obj
 0001:0002a230       ??$extract_argument_from_va_list@_W_W@?$standard_base@_WV?$string_output_adapter@_W@__crt_stdio_output@@@__crt_stdio_output@@IEAA_NAEA_W@Z 000000014002b230 f i libucrtd:output.obj
 0001:0002a260       ??$get_parameter_type@D@?$positional_parameter_base@DV?$stream_output_adapter@D@__crt_stdio_output@@@__crt_stdio_output@@CA?AW4parameter_type@01@PEAD@Z 000000014002b260 f i libucrtd:output.obj
 0001:0002a270       ??$get_parameter_type@D@?$positional_parameter_base@DV?$string_output_adapter@D@__crt_stdio_output@@@__crt_stdio_output@@CA?AW4parameter_type@01@PEAD@Z 000000014002b270 f i libucrtd:output.obj
 0001:0002a280       ??$get_parameter_type@D@?$positional_parameter_base@_WV?$stream_output_adapter@_W@__crt_stdio_output@@@__crt_stdio_output@@CA?AW4parameter_type@01@PEAD@Z 000000014002b280 f i libucrtd:output.obj
 0001:0002a290       ??$get_parameter_type@D@?$positional_parameter_base@_WV?$string_output_adapter@_W@__crt_stdio_output@@@__crt_stdio_output@@CA?AW4parameter_type@01@PEAD@Z 000000014002b290 f i libucrtd:output.obj
 0001:0002a2a0       ??$get_parameter_type@Uansi_string@?1??type_case_Z@?$output_processor@DV?$stream_output_adapter@D@__crt_stdio_output@@V?$positional_parameter_base@DV?$stream_output_adapter@D@__crt_stdio_output@@@2@@__crt_stdio_output@@AEAA_NXZ@@?$positional_parameter_base@DV?$stream_output_adapter@D@__crt_stdio_output@@@__crt_stdio_output@@CA?AW4parameter_type@01@PEAUansi_string@?1??type_case_Z@?$output_processor@DV?$stream_output_adapter@D@__crt_stdio_output@@V?$positional_parameter_base@DV?$stream_output_adapter@D@__crt_stdio_output@@@2@@1@AEAA_NXZ@@Z 000000014002b2a0 f i libucrtd:output.obj
 0001:0002a2b0       ??$get_parameter_type@Uansi_string@?1??type_case_Z@?$output_processor@DV?$string_output_adapter@D@__crt_stdio_output@@V?$positional_parameter_base@DV?$string_output_adapter@D@__crt_stdio_output@@@2@@__crt_stdio_output@@AEAA_NXZ@@?$positional_parameter_base@DV?$string_output_adapter@D@__crt_stdio_output@@@__crt_stdio_output@@CA?AW4parameter_type@01@PEAUansi_string@?1??type_case_Z@?$output_processor@DV?$string_output_adapter@D@__crt_stdio_output@@V?$positional_parameter_base@DV?$string_output_adapter@D@__crt_stdio_output@@@2@@1@AEAA_NXZ@@Z 000000014002b2b0 f i libucrtd:output.obj
 0001:0002a2c0       ??$get_parameter_type@Uansi_string@?1??type_case_Z@?$output_processor@_WV?$stream_output_adapter@_W@__crt_stdio_output@@V?$positional_parameter_base@_WV?$stream_output_adapter@_W@__crt_stdio_output@@@2@@__crt_stdio_output@@AEAA_NXZ@@?$positional_parameter_base@_WV?$stream_output_adapter@_W@__crt_stdio_output@@@__crt_stdio_output@@CA?AW4parameter_type@01@PEAUansi_string@?1??type_case_Z@?$output_processor@_WV?$stream_output_adapter@_W@__crt_stdio_output@@V?$positional_parameter_base@_WV?$stream_output_adapter@_W@__crt_stdio_output@@@2@@1@AEAA_NXZ@@Z 000000014002b2c0 f i libucrtd:output.obj
 0001:0002a2d0       ??$get_parameter_type@Uansi_string@?1??type_case_Z@?$output_processor@_WV?$string_output_adapter@_W@__crt_stdio_output@@V?$positional_parameter_base@_WV?$string_output_adapter@_W@__crt_stdio_output@@@2@@__crt_stdio_output@@AEAA_NXZ@@?$positional_parameter_base@_WV?$string_output_adapter@_W@__crt_stdio_output@@@__crt_stdio_output@@CA?AW4parameter_type@01@PEAUansi_string@?1??type_case_Z@?$output_processor@_WV?$string_output_adapter@_W@__crt_stdio_output@@V?$positional_parameter_base@_WV?$string_output_adapter@_W@__crt_stdio_output@@@2@@1@AEAA_NXZ@@Z 000000014002b2d0 f i libucrtd:output.obj
 0001:0002a2e0       ??$get_parameter_type@X@?$positional_parameter_base@DV?$stream_output_adapter@D@__crt_stdio_output@@@__crt_stdio_output@@CA?AW4parameter_type@01@PEAX@Z 000000014002b2e0 f i libucrtd:output.obj
 0001:0002a2f0       ??$get_parameter_type@X@?$positional_parameter_base@DV?$string_output_adapter@D@__crt_stdio_output@@@__crt_stdio_output@@CA?AW4parameter_type@01@PEAX@Z 000000014002b2f0 f i libucrtd:output.obj
 0001:0002a300       ??$get_parameter_type@X@?$positional_parameter_base@_WV?$stream_output_adapter@_W@__crt_stdio_output@@@__crt_stdio_output@@CA?AW4parameter_type@01@PEAX@Z 000000014002b300 f i libucrtd:output.obj
 0001:0002a310       ??$get_parameter_type@X@?$positional_parameter_base@_WV?$string_output_adapter@_W@__crt_stdio_output@@@__crt_stdio_output@@CA?AW4parameter_type@01@PEAX@Z 000000014002b310 f i libucrtd:output.obj
 0001:0002a320       ??$is_character_specifier@D@?$positional_parameter_base@DV?$stream_output_adapter@D@__crt_stdio_output@@@__crt_stdio_output@@CA_ND@Z 000000014002b320 f i libucrtd:output.obj
 0001:0002a360       ??$is_character_specifier@D@?$positional_parameter_base@DV?$string_output_adapter@D@__crt_stdio_output@@@__crt_stdio_output@@CA_ND@Z 000000014002b360 f i libucrtd:output.obj
 0001:0002a3a0       ??$is_character_specifier@_W@?$positional_parameter_base@_WV?$stream_output_adapter@_W@__crt_stdio_output@@@__crt_stdio_output@@CA_N_W@Z 000000014002b3a0 f i libucrtd:output.obj
 0001:0002a3e0       ??$is_character_specifier@_W@?$positional_parameter_base@_WV?$string_output_adapter@_W@__crt_stdio_output@@@__crt_stdio_output@@CA_N_W@Z 000000014002b3e0 f i libucrtd:output.obj
 0001:0002a420       ??$is_integral_specifier@D@?$positional_parameter_base@DV?$stream_output_adapter@D@__crt_stdio_output@@@__crt_stdio_output@@CA_ND@Z 000000014002b420 f i libucrtd:output.obj
 0001:0002a490       ??$is_integral_specifier@D@?$positional_parameter_base@DV?$string_output_adapter@D@__crt_stdio_output@@@__crt_stdio_output@@CA_ND@Z 000000014002b490 f i libucrtd:output.obj
 0001:0002a500       ??$is_integral_specifier@_W@?$positional_parameter_base@_WV?$stream_output_adapter@_W@__crt_stdio_output@@@__crt_stdio_output@@CA_N_W@Z 000000014002b500 f i libucrtd:output.obj
 0001:0002a570       ??$is_integral_specifier@_W@?$positional_parameter_base@_WV?$string_output_adapter@_W@__crt_stdio_output@@@__crt_stdio_output@@CA_N_W@Z 000000014002b570 f i libucrtd:output.obj
 0001:0002a5e0       ??$is_overflow_condition@K@__crt_strtox@@YA_NIK@Z 000000014002b5e0 f i libucrtd:output.obj
 0001:0002a650       ??$is_pointer_specifier@D@?$positional_parameter_base@DV?$stream_output_adapter@D@__crt_stdio_output@@@__crt_stdio_output@@CA_ND@Z 000000014002b650 f i libucrtd:output.obj
 0001:0002a680       ??$is_pointer_specifier@D@?$positional_parameter_base@DV?$string_output_adapter@D@__crt_stdio_output@@@__crt_stdio_output@@CA_ND@Z 000000014002b680 f i libucrtd:output.obj
 0001:0002a6b0       ??$is_pointer_specifier@_W@?$positional_parameter_base@_WV?$stream_output_adapter@_W@__crt_stdio_output@@@__crt_stdio_output@@CA_N_W@Z 000000014002b6b0 f i libucrtd:output.obj
 0001:0002a6e0       ??$is_pointer_specifier@_W@?$positional_parameter_base@_WV?$string_output_adapter@_W@__crt_stdio_output@@@__crt_stdio_output@@CA_N_W@Z 000000014002b6e0 f i libucrtd:output.obj
 0001:0002a710       ??$is_string_specifier@D@?$positional_parameter_base@DV?$stream_output_adapter@D@__crt_stdio_output@@@__crt_stdio_output@@CA_ND@Z 000000014002b710 f i libucrtd:output.obj
 0001:0002a750       ??$is_string_specifier@D@?$positional_parameter_base@DV?$string_output_adapter@D@__crt_stdio_output@@@__crt_stdio_output@@CA_ND@Z 000000014002b750 f i libucrtd:output.obj
 0001:0002a790       ??$is_string_specifier@_W@?$positional_parameter_base@_WV?$stream_output_adapter@_W@__crt_stdio_output@@@__crt_stdio_output@@CA_N_W@Z 000000014002b790 f i libucrtd:output.obj
 0001:0002a7d0       ??$is_string_specifier@_W@?$positional_parameter_base@_WV?$string_output_adapter@_W@__crt_stdio_output@@@__crt_stdio_output@@CA_N_W@Z 000000014002b7d0 f i libucrtd:output.obj
 0001:0002a810       ??$is_wide_character_specifier@D@__crt_stdio_output@@YA_N_KDW4length_modifier@0@@Z 000000014002b810 f i libucrtd:output.obj
 0001:0002a8b0       ??$is_wide_character_specifier@_W@__crt_stdio_output@@YA_N_K_WW4length_modifier@0@@Z 000000014002b8b0 f i libucrtd:output.obj
 0001:0002a980       ??$make_c_string_character_source@DPEAPEAD@__crt_strtox@@YA?AV?$c_string_character_source@D@0@QEBDQEAPEAD@Z 000000014002b980 f i libucrtd:output.obj
 0001:0002a9c0       ??$make_c_string_character_source@_WPEAPEA_W@__crt_strtox@@YA?AV?$c_string_character_source@_W@0@QEB_WQEAPEA_W@Z 000000014002b9c0 f i libucrtd:output.obj
 0001:0002aa00       ??$parse_integer@KV?$c_string_character_source@D@__crt_strtox@@$0A@@__crt_strtox@@YAKAEAV__crt_cached_ptd_host@@V?$c_string_character_source@D@0@H_N@Z 000000014002ba00 f i libucrtd:output.obj
 0001:0002ae80       ??$parse_integer@KV?$c_string_character_source@_W@__crt_strtox@@$0A@@__crt_strtox@@YAKAEAV__crt_cached_ptd_host@@V?$c_string_character_source@_W@0@H_N@Z 000000014002be80 f i libucrtd:output.obj
 0001:0002b300       ??$peek_va_arg@C@__crt_stdio_output@@YACPEAD@Z 000000014002c300 f i libucrtd:output.obj
 0001:0002b360       ??$peek_va_arg@E@__crt_stdio_output@@YAEPEAD@Z 000000014002c360 f i libucrtd:output.obj
 0001:0002b3c0       ??$peek_va_arg@F@__crt_stdio_output@@YAFPEAD@Z 000000014002c3c0 f i libucrtd:output.obj
 0001:0002b420       ??$peek_va_arg@G@__crt_stdio_output@@YAGPEAD@Z 000000014002c420 f i libucrtd:output.obj
 0001:0002b480       ??$peek_va_arg@H@__crt_stdio_output@@YAHPEAD@Z 000000014002c480 f i libucrtd:output.obj
 0001:0002b4d0       ??$peek_va_arg@I@__crt_stdio_output@@YAIPEAD@Z 000000014002c4d0 f i libucrtd:output.obj
 0001:0002b520       ??$peek_va_arg@PEAD@__crt_stdio_output@@YAPEADPEAD@Z 000000014002c520 f i libucrtd:output.obj
 0001:0002b580       ??$peek_va_arg@PEAUansi_string@?1??type_case_Z@?$output_processor@DV?$stream_output_adapter@D@__crt_stdio_output@@V?$positional_parameter_base@DV?$stream_output_adapter@D@__crt_stdio_output@@@2@@__crt_stdio_output@@AEAA_NXZ@@__crt_stdio_output@@YAPEAUansi_string@?1??type_case_Z@?$output_processor@DV?$stream_output_adapter@D@__crt_stdio_output@@V?$positional_parameter_base@DV?$stream_output_adapter@D@__crt_stdio_output@@@2@@0@AEAA_NXZ@PEAD@Z 000000014002c580 f i libucrtd:output.obj
 0001:0002b5e0       ??$peek_va_arg@PEAUansi_string@?1??type_case_Z@?$output_processor@DV?$string_output_adapter@D@__crt_stdio_output@@V?$positional_parameter_base@DV?$string_output_adapter@D@__crt_stdio_output@@@2@@__crt_stdio_output@@AEAA_NXZ@@__crt_stdio_output@@YAPEAUansi_string@?1??type_case_Z@?$output_processor@DV?$string_output_adapter@D@__crt_stdio_output@@V?$positional_parameter_base@DV?$string_output_adapter@D@__crt_stdio_output@@@2@@0@AEAA_NXZ@PEAD@Z 000000014002c5e0 f i libucrtd:output.obj
 0001:0002b640       ??$peek_va_arg@PEAUansi_string@?1??type_case_Z@?$output_processor@_WV?$stream_output_adapter@_W@__crt_stdio_output@@V?$positional_parameter_base@_WV?$stream_output_adapter@_W@__crt_stdio_output@@@2@@__crt_stdio_output@@AEAA_NXZ@@__crt_stdio_output@@YAPEAUansi_string@?1??type_case_Z@?$output_processor@_WV?$stream_output_adapter@_W@__crt_stdio_output@@V?$positional_parameter_base@_WV?$stream_output_adapter@_W@__crt_stdio_output@@@2@@0@AEAA_NXZ@PEAD@Z 000000014002c640 f i libucrtd:output.obj
 0001:0002b6a0       ??$peek_va_arg@PEAUansi_string@?1??type_case_Z@?$output_processor@_WV?$string_output_adapter@_W@__crt_stdio_output@@V?$positional_parameter_base@_WV?$string_output_adapter@_W@__crt_stdio_output@@@2@@__crt_stdio_output@@AEAA_NXZ@@__crt_stdio_output@@YAPEAUansi_string@?1??type_case_Z@?$output_processor@_WV?$string_output_adapter@_W@__crt_stdio_output@@V?$positional_parameter_base@_WV?$string_output_adapter@_W@__crt_stdio_output@@@2@@0@AEAA_NXZ@PEAD@Z 000000014002c6a0 f i libucrtd:output.obj
 0001:0002b700       ??$peek_va_arg@PEAX@__crt_stdio_output@@YAPEAXPEAD@Z 000000014002c700 f i libucrtd:output.obj
 0001:0002b760       ??$peek_va_arg@U_CRT_DOUBLE@@@__crt_stdio_output@@YA?AU_CRT_DOUBLE@@PEAD@Z 000000014002c760 f i libucrtd:output.obj
 0001:0002b7c0       ??$peek_va_arg@_J@__crt_stdio_output@@YA_JPEAD@Z 000000014002c7c0 f i libucrtd:output.obj
 0001:0002b820       ??$peek_va_arg@_K@__crt_stdio_output@@YA_KPEAD@Z 000000014002c820 f i libucrtd:output.obj
 0001:0002b880       ??$peek_va_arg@_W@__crt_stdio_output@@YA_WPEAD@Z 000000014002c880 f i libucrtd:output.obj
 0001:0002b8e0       ??$puttc_nolock_internal@AEBDPEAU_iobuf@@AEAV__crt_cached_ptd_host@@@?$__crt_char_traits@D@@SAHAEBD$$QEAPEAU_iobuf@@AEAV__crt_cached_ptd_host@@@Z 000000014002c8e0 f i libucrtd:output.obj
 0001:0002b920       ??$puttc_nolock_internal@AEB_WPEAU_iobuf@@AEAV__crt_cached_ptd_host@@@?$__crt_char_traits@_W@@SAGAEB_W$$QEAPEAU_iobuf@@AEAV__crt_cached_ptd_host@@@Z 000000014002c920 f i libucrtd:output.obj
 0001:0002b960       ??$read_va_arg@C@__crt_stdio_output@@YACAEAPEAD@Z 000000014002c960 f i libucrtd:output.obj
 0001:0002b9d0       ??$read_va_arg@E@__crt_stdio_output@@YAEAEAPEAD@Z 000000014002c9d0 f i libucrtd:output.obj
 0001:0002ba40       ??$read_va_arg@F@__crt_stdio_output@@YAFAEAPEAD@Z 000000014002ca40 f i libucrtd:output.obj
 0001:0002bab0       ??$read_va_arg@G@__crt_stdio_output@@YAGAEAPEAD@Z 000000014002cab0 f i libucrtd:output.obj
 0001:0002bb20       ??$read_va_arg@H@__crt_stdio_output@@YAHAEAPEAD@Z 000000014002cb20 f i libucrtd:output.obj
 0001:0002bb80       ??$read_va_arg@I@__crt_stdio_output@@YAIAEAPEAD@Z 000000014002cb80 f i libucrtd:output.obj
 0001:0002bbe0       ??$read_va_arg@PEAD@__crt_stdio_output@@YAPEADAEAPEAD@Z 000000014002cbe0 f i libucrtd:output.obj
 0001:0002bc50       ??$read_va_arg@PEAUansi_string@?1??type_case_Z@?$output_processor@DV?$stream_output_adapter@D@__crt_stdio_output@@V?$format_validation_base@DV?$stream_output_adapter@D@__crt_stdio_output@@@2@@__crt_stdio_output@@AEAA_NXZ@@__crt_stdio_output@@YAPEAUansi_string@?1??type_case_Z@?$output_processor@DV?$stream_output_adapter@D@__crt_stdio_output@@V?$format_validation_base@DV?$stream_output_adapter@D@__crt_stdio_output@@@2@@0@AEAA_NXZ@AEAPEAD@Z 000000014002cc50 f i libucrtd:output.obj
 0001:0002bcc0       ??$read_va_arg@PEAUansi_string@?1??type_case_Z@?$output_processor@DV?$stream_output_adapter@D@__crt_stdio_output@@V?$positional_parameter_base@DV?$stream_output_adapter@D@__crt_stdio_output@@@2@@__crt_stdio_output@@AEAA_NXZ@@__crt_stdio_output@@YAPEAUansi_string@?1??type_case_Z@?$output_processor@DV?$stream_output_adapter@D@__crt_stdio_output@@V?$positional_parameter_base@DV?$stream_output_adapter@D@__crt_stdio_output@@@2@@0@AEAA_NXZ@AEAPEAD@Z 000000014002ccc0 f i libucrtd:output.obj
 0001:0002bd30       ??$read_va_arg@PEAUansi_string@?1??type_case_Z@?$output_processor@DV?$stream_output_adapter@D@__crt_stdio_output@@V?$standard_base@DV?$stream_output_adapter@D@__crt_stdio_output@@@2@@__crt_stdio_output@@AEAA_NXZ@@__crt_stdio_output@@YAPEAUansi_string@?1??type_case_Z@?$output_processor@DV?$stream_output_adapter@D@__crt_stdio_output@@V?$standard_base@DV?$stream_output_adapter@D@__crt_stdio_output@@@2@@0@AEAA_NXZ@AEAPEAD@Z 000000014002cd30 f i libucrtd:output.obj
 0001:0002bda0       ??$read_va_arg@PEAUansi_string@?1??type_case_Z@?$output_processor@DV?$string_output_adapter@D@__crt_stdio_output@@V?$format_validation_base@DV?$string_output_adapter@D@__crt_stdio_output@@@2@@__crt_stdio_output@@AEAA_NXZ@@__crt_stdio_output@@YAPEAUansi_string@?1??type_case_Z@?$output_processor@DV?$string_output_adapter@D@__crt_stdio_output@@V?$format_validation_base@DV?$string_output_adapter@D@__crt_stdio_output@@@2@@0@AEAA_NXZ@AEAPEAD@Z 000000014002cda0 f i libucrtd:output.obj
 0001:0002be10       ??$read_va_arg@PEAUansi_string@?1??type_case_Z@?$output_processor@DV?$string_output_adapter@D@__crt_stdio_output@@V?$positional_parameter_base@DV?$string_output_adapter@D@__crt_stdio_output@@@2@@__crt_stdio_output@@AEAA_NXZ@@__crt_stdio_output@@YAPEAUansi_string@?1??type_case_Z@?$output_processor@DV?$string_output_adapter@D@__crt_stdio_output@@V?$positional_parameter_base@DV?$string_output_adapter@D@__crt_stdio_output@@@2@@0@AEAA_NXZ@AEAPEAD@Z 000000014002ce10 f i libucrtd:output.obj
 0001:0002be80       ??$read_va_arg@PEAUansi_string@?1??type_case_Z@?$output_processor@DV?$string_output_adapter@D@__crt_stdio_output@@V?$standard_base@DV?$string_output_adapter@D@__crt_stdio_output@@@2@@__crt_stdio_output@@AEAA_NXZ@@__crt_stdio_output@@YAPEAUansi_string@?1??type_case_Z@?$output_processor@DV?$string_output_adapter@D@__crt_stdio_output@@V?$standard_base@DV?$string_output_adapter@D@__crt_stdio_output@@@2@@0@AEAA_NXZ@AEAPEAD@Z 000000014002ce80 f i libucrtd:output.obj
 0001:0002bef0       ??$read_va_arg@PEAUansi_string@?1??type_case_Z@?$output_processor@_WV?$stream_output_adapter@_W@__crt_stdio_output@@V?$format_validation_base@_WV?$stream_output_adapter@_W@__crt_stdio_output@@@2@@__crt_stdio_output@@AEAA_NXZ@@__crt_stdio_output@@YAPEAUansi_string@?1??type_case_Z@?$output_processor@_WV?$stream_output_adapter@_W@__crt_stdio_output@@V?$format_validation_base@_WV?$stream_output_adapter@_W@__crt_stdio_output@@@2@@0@AEAA_NXZ@AEAPEAD@Z 000000014002cef0 f i libucrtd:output.obj
 0001:0002bf60       ??$read_va_arg@PEAUansi_string@?1??type_case_Z@?$output_processor@_WV?$stream_output_adapter@_W@__crt_stdio_output@@V?$positional_parameter_base@_WV?$stream_output_adapter@_W@__crt_stdio_output@@@2@@__crt_stdio_output@@AEAA_NXZ@@__crt_stdio_output@@YAPEAUansi_string@?1??type_case_Z@?$output_processor@_WV?$stream_output_adapter@_W@__crt_stdio_output@@V?$positional_parameter_base@_WV?$stream_output_adapter@_W@__crt_stdio_output@@@2@@0@AEAA_NXZ@AEAPEAD@Z 000000014002cf60 f i libucrtd:output.obj
 0001:0002bfd0       ??$read_va_arg@PEAUansi_string@?1??type_case_Z@?$output_processor@_WV?$stream_output_adapter@_W@__crt_stdio_output@@V?$standard_base@_WV?$stream_output_adapter@_W@__crt_stdio_output@@@2@@__crt_stdio_output@@AEAA_NXZ@@__crt_stdio_output@@YAPEAUansi_string@?1??type_case_Z@?$output_processor@_WV?$stream_output_adapter@_W@__crt_stdio_output@@V?$standard_base@_WV?$stream_output_adapter@_W@__crt_stdio_output@@@2@@0@AEAA_NXZ@AEAPEAD@Z 000000014002cfd0 f i libucrtd:output.obj
 0001:0002c040       ??$read_va_arg@PEAUansi_string@?1??type_case_Z@?$output_processor@_WV?$string_output_adapter@_W@__crt_stdio_output@@V?$format_validation_base@_WV?$string_output_adapter@_W@__crt_stdio_output@@@2@@__crt_stdio_output@@AEAA_NXZ@@__crt_stdio_output@@YAPEAUansi_string@?1??type_case_Z@?$output_processor@_WV?$string_output_adapter@_W@__crt_stdio_output@@V?$format_validation_base@_WV?$string_output_adapter@_W@__crt_stdio_output@@@2@@0@AEAA_NXZ@AEAPEAD@Z 000000014002d040 f i libucrtd:output.obj
 0001:0002c0b0       ??$read_va_arg@PEAUansi_string@?1??type_case_Z@?$output_processor@_WV?$string_output_adapter@_W@__crt_stdio_output@@V?$positional_parameter_base@_WV?$string_output_adapter@_W@__crt_stdio_output@@@2@@__crt_stdio_output@@AEAA_NXZ@@__crt_stdio_output@@YAPEAUansi_string@?1??type_case_Z@?$output_processor@_WV?$string_output_adapter@_W@__crt_stdio_output@@V?$positional_parameter_base@_WV?$string_output_adapter@_W@__crt_stdio_output@@@2@@0@AEAA_NXZ@AEAPEAD@Z 000000014002d0b0 f i libucrtd:output.obj
 0001:0002c120       ??$read_va_arg@PEAUansi_string@?1??type_case_Z@?$output_processor@_WV?$string_output_adapter@_W@__crt_stdio_output@@V?$standard_base@_WV?$string_output_adapter@_W@__crt_stdio_output@@@2@@__crt_stdio_output@@AEAA_NXZ@@__crt_stdio_output@@YAPEAUansi_string@?1??type_case_Z@?$output_processor@_WV?$string_output_adapter@_W@__crt_stdio_output@@V?$standard_base@_WV?$string_output_adapter@_W@__crt_stdio_output@@@2@@0@AEAA_NXZ@AEAPEAD@Z 000000014002d120 f i libucrtd:output.obj
 0001:0002c190       ??$read_va_arg@PEAX@__crt_stdio_output@@YAPEAXAEAPEAD@Z 000000014002d190 f i libucrtd:output.obj
 0001:0002c200       ??$read_va_arg@U_CRT_DOUBLE@@@__crt_stdio_output@@YA?AU_CRT_DOUBLE@@AEAPEAD@Z 000000014002d200 f i libucrtd:output.obj
 0001:0002c270       ??$read_va_arg@_J@__crt_stdio_output@@YA_JAEAPEAD@Z 000000014002d270 f i libucrtd:output.obj
 0001:0002c2e0       ??$read_va_arg@_K@__crt_stdio_output@@YA_KAEAPEAD@Z 000000014002d2e0 f i libucrtd:output.obj
 0001:0002c350       ??$read_va_arg@_W@__crt_stdio_output@@YA_WAEAPEAD@Z 000000014002d350 f i libucrtd:output.obj
 0001:0002c3c0       ??$scratch_count@D@formatting_buffer@__crt_stdio_output@@QEBA_KXZ 000000014002d3c0 f i libucrtd:output.obj
 0001:0002c3e0       ??$scratch_data@D@formatting_buffer@__crt_stdio_output@@QEAAPEADXZ 000000014002d3e0 f i libucrtd:output.obj
 0001:0002c450       ??$type_case_integer@$07@?$output_processor@DV?$stream_output_adapter@D@__crt_stdio_output@@V?$format_validation_base@DV?$stream_output_adapter@D@__crt_stdio_output@@@2@@__crt_stdio_output@@AEAA_N_N@Z 000000014002d450 f i libucrtd:output.obj
 0001:0002c8d0       ??$type_case_integer@$07@?$output_processor@DV?$stream_output_adapter@D@__crt_stdio_output@@V?$positional_parameter_base@DV?$stream_output_adapter@D@__crt_stdio_output@@@2@@__crt_stdio_output@@AEAA_N_N@Z 000000014002d8d0 f i libucrtd:output.obj
 0001:0002cd50       ??$type_case_integer@$07@?$output_processor@DV?$stream_output_adapter@D@__crt_stdio_output@@V?$standard_base@DV?$stream_output_adapter@D@__crt_stdio_output@@@2@@__crt_stdio_output@@AEAA_N_N@Z 000000014002dd50 f i libucrtd:output.obj
 0001:0002d1d0       ??$type_case_integer@$07@?$output_processor@DV?$string_output_adapter@D@__crt_stdio_output@@V?$format_validation_base@DV?$string_output_adapter@D@__crt_stdio_output@@@2@@__crt_stdio_output@@AEAA_N_N@Z 000000014002e1d0 f i libucrtd:output.obj
 0001:0002d650       ??$type_case_integer@$07@?$output_processor@DV?$string_output_adapter@D@__crt_stdio_output@@V?$positional_parameter_base@DV?$string_output_adapter@D@__crt_stdio_output@@@2@@__crt_stdio_output@@AEAA_N_N@Z 000000014002e650 f i libucrtd:output.obj
 0001:0002dad0       ??$type_case_integer@$07@?$output_processor@DV?$string_output_adapter@D@__crt_stdio_output@@V?$standard_base@DV?$string_output_adapter@D@__crt_stdio_output@@@2@@__crt_stdio_output@@AEAA_N_N@Z 000000014002ead0 f i libucrtd:output.obj
 0001:0002df50       ??$type_case_integer@$07@?$output_processor@_WV?$stream_output_adapter@_W@__crt_stdio_output@@V?$format_validation_base@_WV?$stream_output_adapter@_W@__crt_stdio_output@@@2@@__crt_stdio_output@@AEAA_N_N@Z 000000014002ef50 f i libucrtd:output.obj
 0001:0002e3d0       ??$type_case_integer@$07@?$output_processor@_WV?$stream_output_adapter@_W@__crt_stdio_output@@V?$positional_parameter_base@_WV?$stream_output_adapter@_W@__crt_stdio_output@@@2@@__crt_stdio_output@@AEAA_N_N@Z 000000014002f3d0 f i libucrtd:output.obj
 0001:0002e850       ??$type_case_integer@$07@?$output_processor@_WV?$stream_output_adapter@_W@__crt_stdio_output@@V?$standard_base@_WV?$stream_output_adapter@_W@__crt_stdio_output@@@2@@__crt_stdio_output@@AEAA_N_N@Z 000000014002f850 f i libucrtd:output.obj
 0001:0002ecd0       ??$type_case_integer@$07@?$output_processor@_WV?$string_output_adapter@_W@__crt_stdio_output@@V?$format_validation_base@_WV?$string_output_adapter@_W@__crt_stdio_output@@@2@@__crt_stdio_output@@AEAA_N_N@Z 000000014002fcd0 f i libucrtd:output.obj
 0001:0002f150       ??$type_case_integer@$07@?$output_processor@_WV?$string_output_adapter@_W@__crt_stdio_output@@V?$positional_parameter_base@_WV?$string_output_adapter@_W@__crt_stdio_output@@@2@@__crt_stdio_output@@AEAA_N_N@Z 0000000140030150 f i libucrtd:output.obj
 0001:0002f5d0       ??$type_case_integer@$07@?$output_processor@_WV?$string_output_adapter@_W@__crt_stdio_output@@V?$standard_base@_WV?$string_output_adapter@_W@__crt_stdio_output@@@2@@__crt_stdio_output@@AEAA_N_N@Z 00000001400305d0 f i libucrtd:output.obj
 0001:0002fa50       ??$type_case_integer@$09@?$output_processor@DV?$stream_output_adapter@D@__crt_stdio_output@@V?$format_validation_base@DV?$stream_output_adapter@D@__crt_stdio_output@@@2@@__crt_stdio_output@@AEAA_N_N@Z 0000000140030a50 f i libucrtd:output.obj
 0001:0002fed0       ??$type_case_integer@$09@?$output_processor@DV?$stream_output_adapter@D@__crt_stdio_output@@V?$positional_parameter_base@DV?$stream_output_adapter@D@__crt_stdio_output@@@2@@__crt_stdio_output@@AEAA_N_N@Z 0000000140030ed0 f i libucrtd:output.obj
 0001:00030350       ??$type_case_integer@$09@?$output_processor@DV?$stream_output_adapter@D@__crt_stdio_output@@V?$standard_base@DV?$stream_output_adapter@D@__crt_stdio_output@@@2@@__crt_stdio_output@@AEAA_N_N@Z 0000000140031350 f i libucrtd:output.obj
 0001:000307d0       ??$type_case_integer@$09@?$output_processor@DV?$string_output_adapter@D@__crt_stdio_output@@V?$format_validation_base@DV?$string_output_adapter@D@__crt_stdio_output@@@2@@__crt_stdio_output@@AEAA_N_N@Z 00000001400317d0 f i libucrtd:output.obj
 0001:00030c50       ??$type_case_integer@$09@?$output_processor@DV?$string_output_adapter@D@__crt_stdio_output@@V?$positional_parameter_base@DV?$string_output_adapter@D@__crt_stdio_output@@@2@@__crt_stdio_output@@AEAA_N_N@Z 0000000140031c50 f i libucrtd:output.obj
 0001:000310d0       ??$type_case_integer@$09@?$output_processor@DV?$string_output_adapter@D@__crt_stdio_output@@V?$standard_base@DV?$string_output_adapter@D@__crt_stdio_output@@@2@@__crt_stdio_output@@AEAA_N_N@Z 00000001400320d0 f i libucrtd:output.obj
 0001:00031550       ??$type_case_integer@$09@?$output_processor@_WV?$stream_output_adapter@_W@__crt_stdio_output@@V?$format_validation_base@_WV?$stream_output_adapter@_W@__crt_stdio_output@@@2@@__crt_stdio_output@@AEAA_N_N@Z 0000000140032550 f i libucrtd:output.obj
 0001:000319d0       ??$type_case_integer@$09@?$output_processor@_WV?$stream_output_adapter@_W@__crt_stdio_output@@V?$positional_parameter_base@_WV?$stream_output_adapter@_W@__crt_stdio_output@@@2@@__crt_stdio_output@@AEAA_N_N@Z 00000001400329d0 f i libucrtd:output.obj
 0001:00031e50       ??$type_case_integer@$09@?$output_processor@_WV?$stream_output_adapter@_W@__crt_stdio_output@@V?$standard_base@_WV?$stream_output_adapter@_W@__crt_stdio_output@@@2@@__crt_stdio_output@@AEAA_N_N@Z 0000000140032e50 f i libucrtd:output.obj
 0001:000322d0       ??$type_case_integer@$09@?$output_processor@_WV?$string_output_adapter@_W@__crt_stdio_output@@V?$format_validation_base@_WV?$string_output_adapter@_W@__crt_stdio_output@@@2@@__crt_stdio_output@@AEAA_N_N@Z 00000001400332d0 f i libucrtd:output.obj
 0001:00032750       ??$type_case_integer@$09@?$output_processor@_WV?$string_output_adapter@_W@__crt_stdio_output@@V?$positional_parameter_base@_WV?$string_output_adapter@_W@__crt_stdio_output@@@2@@__crt_stdio_output@@AEAA_N_N@Z 0000000140033750 f i libucrtd:output.obj
 0001:00032bd0       ??$type_case_integer@$09@?$output_processor@_WV?$string_output_adapter@_W@__crt_stdio_output@@V?$standard_base@_WV?$string_output_adapter@_W@__crt_stdio_output@@@2@@__crt_stdio_output@@AEAA_N_N@Z 0000000140033bd0 f i libucrtd:output.obj
 0001:00033050       ??$type_case_integer@$0BA@@?$output_processor@DV?$stream_output_adapter@D@__crt_stdio_output@@V?$format_validation_base@DV?$stream_output_adapter@D@__crt_stdio_output@@@2@@__crt_stdio_output@@AEAA_N_N@Z 0000000140034050 f i libucrtd:output.obj
 0001:000334d0       ??$type_case_integer@$0BA@@?$output_processor@DV?$stream_output_adapter@D@__crt_stdio_output@@V?$positional_parameter_base@DV?$stream_output_adapter@D@__crt_stdio_output@@@2@@__crt_stdio_output@@AEAA_N_N@Z 00000001400344d0 f i libucrtd:output.obj
 0001:00033950       ??$type_case_integer@$0BA@@?$output_processor@DV?$stream_output_adapter@D@__crt_stdio_output@@V?$standard_base@DV?$stream_output_adapter@D@__crt_stdio_output@@@2@@__crt_stdio_output@@AEAA_N_N@Z 0000000140034950 f i libucrtd:output.obj
 0001:00033dd0       ??$type_case_integer@$0BA@@?$output_processor@DV?$string_output_adapter@D@__crt_stdio_output@@V?$format_validation_base@DV?$string_output_adapter@D@__crt_stdio_output@@@2@@__crt_stdio_output@@AEAA_N_N@Z 0000000140034dd0 f i libucrtd:output.obj
 0001:00034250       ??$type_case_integer@$0BA@@?$output_processor@DV?$string_output_adapter@D@__crt_stdio_output@@V?$positional_parameter_base@DV?$string_output_adapter@D@__crt_stdio_output@@@2@@__crt_stdio_output@@AEAA_N_N@Z 0000000140035250 f i libucrtd:output.obj
 0001:000346d0       ??$type_case_integer@$0BA@@?$output_processor@DV?$string_output_adapter@D@__crt_stdio_output@@V?$standard_base@DV?$string_output_adapter@D@__crt_stdio_output@@@2@@__crt_stdio_output@@AEAA_N_N@Z 00000001400356d0 f i libucrtd:output.obj
 0001:00034b50       ??$type_case_integer@$0BA@@?$output_processor@_WV?$stream_output_adapter@_W@__crt_stdio_output@@V?$format_validation_base@_WV?$stream_output_adapter@_W@__crt_stdio_output@@@2@@__crt_stdio_output@@AEAA_N_N@Z 0000000140035b50 f i libucrtd:output.obj
 0001:00034fd0       ??$type_case_integer@$0BA@@?$output_processor@_WV?$stream_output_adapter@_W@__crt_stdio_output@@V?$positional_parameter_base@_WV?$stream_output_adapter@_W@__crt_stdio_output@@@2@@__crt_stdio_output@@AEAA_N_N@Z 0000000140035fd0 f i libucrtd:output.obj
 0001:00035450       ??$type_case_integer@$0BA@@?$output_processor@_WV?$stream_output_adapter@_W@__crt_stdio_output@@V?$standard_base@_WV?$stream_output_adapter@_W@__crt_stdio_output@@@2@@__crt_stdio_output@@AEAA_N_N@Z 0000000140036450 f i libucrtd:output.obj
 0001:000358d0       ??$type_case_integer@$0BA@@?$output_processor@_WV?$string_output_adapter@_W@__crt_stdio_output@@V?$format_validation_base@_WV?$string_output_adapter@_W@__crt_stdio_output@@@2@@__crt_stdio_output@@AEAA_N_N@Z 00000001400368d0 f i libucrtd:output.obj
 0001:00035d50       ??$type_case_integer@$0BA@@?$output_processor@_WV?$string_output_adapter@_W@__crt_stdio_output@@V?$positional_parameter_base@_WV?$string_output_adapter@_W@__crt_stdio_output@@@2@@__crt_stdio_output@@AEAA_N_N@Z 0000000140036d50 f i libucrtd:output.obj
 0001:000361d0       ??$type_case_integer@$0BA@@?$output_processor@_WV?$string_output_adapter@_W@__crt_stdio_output@@V?$standard_base@_WV?$string_output_adapter@_W@__crt_stdio_output@@@2@@__crt_stdio_output@@AEAA_N_N@Z 00000001400371d0 f i libucrtd:output.obj
 0001:00036650       ??$type_case_integer_parse_into_buffer@I$07@?$output_processor@DV?$stream_output_adapter@D@__crt_stdio_output@@V?$format_validation_base@DV?$stream_output_adapter@D@__crt_stdio_output@@@2@@__crt_stdio_output@@AEAAXI_N@Z 0000000140037650 f i libucrtd:output.obj
 0001:00036780       ??$type_case_integer_parse_into_buffer@I$07@?$output_processor@DV?$stream_output_adapter@D@__crt_stdio_output@@V?$positional_parameter_base@DV?$stream_output_adapter@D@__crt_stdio_output@@@2@@__crt_stdio_output@@AEAAXI_N@Z 0000000140037780 f i libucrtd:output.obj
 0001:000368b0       ??$type_case_integer_parse_into_buffer@I$07@?$output_processor@DV?$stream_output_adapter@D@__crt_stdio_output@@V?$standard_base@DV?$stream_output_adapter@D@__crt_stdio_output@@@2@@__crt_stdio_output@@AEAAXI_N@Z 00000001400378b0 f i libucrtd:output.obj
 0001:000369e0       ??$type_case_integer_parse_into_buffer@I$07@?$output_processor@DV?$string_output_adapter@D@__crt_stdio_output@@V?$format_validation_base@DV?$string_output_adapter@D@__crt_stdio_output@@@2@@__crt_stdio_output@@AEAAXI_N@Z 00000001400379e0 f i libucrtd:output.obj
 0001:00036b10       ??$type_case_integer_parse_into_buffer@I$07@?$output_processor@DV?$string_output_adapter@D@__crt_stdio_output@@V?$positional_parameter_base@DV?$string_output_adapter@D@__crt_stdio_output@@@2@@__crt_stdio_output@@AEAAXI_N@Z 0000000140037b10 f i libucrtd:output.obj
 0001:00036c40       ??$type_case_integer_parse_into_buffer@I$07@?$output_processor@DV?$string_output_adapter@D@__crt_stdio_output@@V?$standard_base@DV?$string_output_adapter@D@__crt_stdio_output@@@2@@__crt_stdio_output@@AEAAXI_N@Z 0000000140037c40 f i libucrtd:output.obj
 0001:00036d70       ??$type_case_integer_parse_into_buffer@I$07@?$output_processor@_WV?$stream_output_adapter@_W@__crt_stdio_output@@V?$format_validation_base@_WV?$stream_output_adapter@_W@__crt_stdio_output@@@2@@__crt_stdio_output@@AEAAXI_N@Z 0000000140037d70 f i libucrtd:output.obj
 0001:00036eb0       ??$type_case_integer_parse_into_buffer@I$07@?$output_processor@_WV?$stream_output_adapter@_W@__crt_stdio_output@@V?$positional_parameter_base@_WV?$stream_output_adapter@_W@__crt_stdio_output@@@2@@__crt_stdio_output@@AEAAXI_N@Z 0000000140037eb0 f i libucrtd:output.obj
 0001:00036ff0       ??$type_case_integer_parse_into_buffer@I$07@?$output_processor@_WV?$stream_output_adapter@_W@__crt_stdio_output@@V?$standard_base@_WV?$stream_output_adapter@_W@__crt_stdio_output@@@2@@__crt_stdio_output@@AEAAXI_N@Z 0000000140037ff0 f i libucrtd:output.obj
 0001:00037130       ??$type_case_integer_parse_into_buffer@I$07@?$output_processor@_WV?$string_output_adapter@_W@__crt_stdio_output@@V?$format_validation_base@_WV?$string_output_adapter@_W@__crt_stdio_output@@@2@@__crt_stdio_output@@AEAAXI_N@Z 0000000140038130 f i libucrtd:output.obj
 0001:00037270       ??$type_case_integer_parse_into_buffer@I$07@?$output_processor@_WV?$string_output_adapter@_W@__crt_stdio_output@@V?$positional_parameter_base@_WV?$string_output_adapter@_W@__crt_stdio_output@@@2@@__crt_stdio_output@@AEAAXI_N@Z 0000000140038270 f i libucrtd:output.obj
 0001:000373b0       ??$type_case_integer_parse_into_buffer@I$07@?$output_processor@_WV?$string_output_adapter@_W@__crt_stdio_output@@V?$standard_base@_WV?$string_output_adapter@_W@__crt_stdio_output@@@2@@__crt_stdio_output@@AEAAXI_N@Z 00000001400383b0 f i libucrtd:output.obj
 0001:000374f0       ??$type_case_integer_parse_into_buffer@I$09@?$output_processor@DV?$stream_output_adapter@D@__crt_stdio_output@@V?$format_validation_base@DV?$stream_output_adapter@D@__crt_stdio_output@@@2@@__crt_stdio_output@@AEAAXI_N@Z 00000001400384f0 f i libucrtd:output.obj
 0001:00037620       ??$type_case_integer_parse_into_buffer@I$09@?$output_processor@DV?$stream_output_adapter@D@__crt_stdio_output@@V?$positional_parameter_base@DV?$stream_output_adapter@D@__crt_stdio_output@@@2@@__crt_stdio_output@@AEAAXI_N@Z 0000000140038620 f i libucrtd:output.obj
 0001:00037750       ??$type_case_integer_parse_into_buffer@I$09@?$output_processor@DV?$stream_output_adapter@D@__crt_stdio_output@@V?$standard_base@DV?$stream_output_adapter@D@__crt_stdio_output@@@2@@__crt_stdio_output@@AEAAXI_N@Z 0000000140038750 f i libucrtd:output.obj
 0001:00037880       ??$type_case_integer_parse_into_buffer@I$09@?$output_processor@DV?$string_output_adapter@D@__crt_stdio_output@@V?$format_validation_base@DV?$string_output_adapter@D@__crt_stdio_output@@@2@@__crt_stdio_output@@AEAAXI_N@Z 0000000140038880 f i libucrtd:output.obj
 0001:000379b0       ??$type_case_integer_parse_into_buffer@I$09@?$output_processor@DV?$string_output_adapter@D@__crt_stdio_output@@V?$positional_parameter_base@DV?$string_output_adapter@D@__crt_stdio_output@@@2@@__crt_stdio_output@@AEAAXI_N@Z 00000001400389b0 f i libucrtd:output.obj
 0001:00037ae0       ??$type_case_integer_parse_into_buffer@I$09@?$output_processor@DV?$string_output_adapter@D@__crt_stdio_output@@V?$standard_base@DV?$string_output_adapter@D@__crt_stdio_output@@@2@@__crt_stdio_output@@AEAAXI_N@Z 0000000140038ae0 f i libucrtd:output.obj
 0001:00037c10       ??$type_case_integer_parse_into_buffer@I$09@?$output_processor@_WV?$stream_output_adapter@_W@__crt_stdio_output@@V?$format_validation_base@_WV?$stream_output_adapter@_W@__crt_stdio_output@@@2@@__crt_stdio_output@@AEAAXI_N@Z 0000000140038c10 f i libucrtd:output.obj
 0001:00037d50       ??$type_case_integer_parse_into_buffer@I$09@?$output_processor@_WV?$stream_output_adapter@_W@__crt_stdio_output@@V?$positional_parameter_base@_WV?$stream_output_adapter@_W@__crt_stdio_output@@@2@@__crt_stdio_output@@AEAAXI_N@Z 0000000140038d50 f i libucrtd:output.obj
 0001:00037e90       ??$type_case_integer_parse_into_buffer@I$09@?$output_processor@_WV?$stream_output_adapter@_W@__crt_stdio_output@@V?$standard_base@_WV?$stream_output_adapter@_W@__crt_stdio_output@@@2@@__crt_stdio_output@@AEAAXI_N@Z 0000000140038e90 f i libucrtd:output.obj
 0001:00037fd0       ??$type_case_integer_parse_into_buffer@I$09@?$output_processor@_WV?$string_output_adapter@_W@__crt_stdio_output@@V?$format_validation_base@_WV?$string_output_adapter@_W@__crt_stdio_output@@@2@@__crt_stdio_output@@AEAAXI_N@Z 0000000140038fd0 f i libucrtd:output.obj
 0001:00038110       ??$type_case_integer_parse_into_buffer@I$09@?$output_processor@_WV?$string_output_adapter@_W@__crt_stdio_output@@V?$positional_parameter_base@_WV?$string_output_adapter@_W@__crt_stdio_output@@@2@@__crt_stdio_output@@AEAAXI_N@Z 0000000140039110 f i libucrtd:output.obj
 0001:00038250       ??$type_case_integer_parse_into_buffer@I$09@?$output_processor@_WV?$string_output_adapter@_W@__crt_stdio_output@@V?$standard_base@_WV?$string_output_adapter@_W@__crt_stdio_output@@@2@@__crt_stdio_output@@AEAAXI_N@Z 0000000140039250 f i libucrtd:output.obj
 0001:00038390       ??$type_case_integer_parse_into_buffer@I$0BA@@?$output_processor@DV?$stream_output_adapter@D@__crt_stdio_output@@V?$format_validation_base@DV?$stream_output_adapter@D@__crt_stdio_output@@@2@@__crt_stdio_output@@AEAAXI_N@Z 0000000140039390 f i libucrtd:output.obj
 0001:000384c0       ??$type_case_integer_parse_into_buffer@I$0BA@@?$output_processor@DV?$stream_output_adapter@D@__crt_stdio_output@@V?$positional_parameter_base@DV?$stream_output_adapter@D@__crt_stdio_output@@@2@@__crt_stdio_output@@AEAAXI_N@Z 00000001400394c0 f i libucrtd:output.obj
 0001:000385f0       ??$type_case_integer_parse_into_buffer@I$0BA@@?$output_processor@DV?$stream_output_adapter@D@__crt_stdio_output@@V?$standard_base@DV?$stream_output_adapter@D@__crt_stdio_output@@@2@@__crt_stdio_output@@AEAAXI_N@Z 00000001400395f0 f i libucrtd:output.obj
 0001:00038720       ??$type_case_integer_parse_into_buffer@I$0BA@@?$output_processor@DV?$string_output_adapter@D@__crt_stdio_output@@V?$format_validation_base@DV?$string_output_adapter@D@__crt_stdio_output@@@2@@__crt_stdio_output@@AEAAXI_N@Z 0000000140039720 f i libucrtd:output.obj
 0001:00038850       ??$type_case_integer_parse_into_buffer@I$0BA@@?$output_processor@DV?$string_output_adapter@D@__crt_stdio_output@@V?$positional_parameter_base@DV?$string_output_adapter@D@__crt_stdio_output@@@2@@__crt_stdio_output@@AEAAXI_N@Z 0000000140039850 f i libucrtd:output.obj
 0001:00038980       ??$type_case_integer_parse_into_buffer@I$0BA@@?$output_processor@DV?$string_output_adapter@D@__crt_stdio_output@@V?$standard_base@DV?$string_output_adapter@D@__crt_stdio_output@@@2@@__crt_stdio_output@@AEAAXI_N@Z 0000000140039980 f i libucrtd:output.obj
 0001:00038ab0       ??$type_case_integer_parse_into_buffer@I$0BA@@?$output_processor@_WV?$stream_output_adapter@_W@__crt_stdio_output@@V?$format_validation_base@_WV?$stream_output_adapter@_W@__crt_stdio_output@@@2@@__crt_stdio_output@@AEAAXI_N@Z 0000000140039ab0 f i libucrtd:output.obj
 0001:00038bf0       ??$type_case_integer_parse_into_buffer@I$0BA@@?$output_processor@_WV?$stream_output_adapter@_W@__crt_stdio_output@@V?$positional_parameter_base@_WV?$stream_output_adapter@_W@__crt_stdio_output@@@2@@__crt_stdio_output@@AEAAXI_N@Z 0000000140039bf0 f i libucrtd:output.obj
 0001:00038d30       ??$type_case_integer_parse_into_buffer@I$0BA@@?$output_processor@_WV?$stream_output_adapter@_W@__crt_stdio_output@@V?$standard_base@_WV?$stream_output_adapter@_W@__crt_stdio_output@@@2@@__crt_stdio_output@@AEAAXI_N@Z 0000000140039d30 f i libucrtd:output.obj
 0001:00038e70       ??$type_case_integer_parse_into_buffer@I$0BA@@?$output_processor@_WV?$string_output_adapter@_W@__crt_stdio_output@@V?$format_validation_base@_WV?$string_output_adapter@_W@__crt_stdio_output@@@2@@__crt_stdio_output@@AEAAXI_N@Z 0000000140039e70 f i libucrtd:output.obj
 0001:00038fb0       ??$type_case_integer_parse_into_buffer@I$0BA@@?$output_processor@_WV?$string_output_adapter@_W@__crt_stdio_output@@V?$positional_parameter_base@_WV?$string_output_adapter@_W@__crt_stdio_output@@@2@@__crt_stdio_output@@AEAAXI_N@Z 0000000140039fb0 f i libucrtd:output.obj
 0001:000390f0       ??$type_case_integer_parse_into_buffer@I$0BA@@?$output_processor@_WV?$string_output_adapter@_W@__crt_stdio_output@@V?$standard_base@_WV?$string_output_adapter@_W@__crt_stdio_output@@@2@@__crt_stdio_output@@AEAAXI_N@Z 000000014003a0f0 f i libucrtd:output.obj
 0001:00039230       ??$type_case_integer_parse_into_buffer@_K$07@?$output_processor@DV?$stream_output_adapter@D@__crt_stdio_output@@V?$format_validation_base@DV?$stream_output_adapter@D@__crt_stdio_output@@@2@@__crt_stdio_output@@AEAAX_K_N@Z 000000014003a230 f i libucrtd:output.obj
 0001:00039370       ??$type_case_integer_parse_into_buffer@_K$07@?$output_processor@DV?$stream_output_adapter@D@__crt_stdio_output@@V?$positional_parameter_base@DV?$stream_output_adapter@D@__crt_stdio_output@@@2@@__crt_stdio_output@@AEAAX_K_N@Z 000000014003a370 f i libucrtd:output.obj
 0001:000394b0       ??$type_case_integer_parse_into_buffer@_K$07@?$output_processor@DV?$stream_output_adapter@D@__crt_stdio_output@@V?$standard_base@DV?$stream_output_adapter@D@__crt_stdio_output@@@2@@__crt_stdio_output@@AEAAX_K_N@Z 000000014003a4b0 f i libucrtd:output.obj
 0001:000395f0       ??$type_case_integer_parse_into_buffer@_K$07@?$output_processor@DV?$string_output_adapter@D@__crt_stdio_output@@V?$format_validation_base@DV?$string_output_adapter@D@__crt_stdio_output@@@2@@__crt_stdio_output@@AEAAX_K_N@Z 000000014003a5f0 f i libucrtd:output.obj
 0001:00039730       ??$type_case_integer_parse_into_buffer@_K$07@?$output_processor@DV?$string_output_adapter@D@__crt_stdio_output@@V?$positional_parameter_base@DV?$string_output_adapter@D@__crt_stdio_output@@@2@@__crt_stdio_output@@AEAAX_K_N@Z 000000014003a730 f i libucrtd:output.obj
 0001:00039870       ??$type_case_integer_parse_into_buffer@_K$07@?$output_processor@DV?$string_output_adapter@D@__crt_stdio_output@@V?$standard_base@DV?$string_output_adapter@D@__crt_stdio_output@@@2@@__crt_stdio_output@@AEAAX_K_N@Z 000000014003a870 f i libucrtd:output.obj
 0001:000399b0       ??$type_case_integer_parse_into_buffer@_K$07@?$output_processor@_WV?$stream_output_adapter@_W@__crt_stdio_output@@V?$format_validation_base@_WV?$stream_output_adapter@_W@__crt_stdio_output@@@2@@__crt_stdio_output@@AEAAX_K_N@Z 000000014003a9b0 f i libucrtd:output.obj
 0001:00039af0       ??$type_case_integer_parse_into_buffer@_K$07@?$output_processor@_WV?$stream_output_adapter@_W@__crt_stdio_output@@V?$positional_parameter_base@_WV?$stream_output_adapter@_W@__crt_stdio_output@@@2@@__crt_stdio_output@@AEAAX_K_N@Z 000000014003aaf0 f i libucrtd:output.obj
 0001:00039c30       ??$type_case_integer_parse_into_buffer@_K$07@?$output_processor@_WV?$stream_output_adapter@_W@__crt_stdio_output@@V?$standard_base@_WV?$stream_output_adapter@_W@__crt_stdio_output@@@2@@__crt_stdio_output@@AEAAX_K_N@Z 000000014003ac30 f i libucrtd:output.obj
 0001:00039d70       ??$type_case_integer_parse_into_buffer@_K$07@?$output_processor@_WV?$string_output_adapter@_W@__crt_stdio_output@@V?$format_validation_base@_WV?$string_output_adapter@_W@__crt_stdio_output@@@2@@__crt_stdio_output@@AEAAX_K_N@Z 000000014003ad70 f i libucrtd:output.obj
 0001:00039eb0       ??$type_case_integer_parse_into_buffer@_K$07@?$output_processor@_WV?$string_output_adapter@_W@__crt_stdio_output@@V?$positional_parameter_base@_WV?$string_output_adapter@_W@__crt_stdio_output@@@2@@__crt_stdio_output@@AEAAX_K_N@Z 000000014003aeb0 f i libucrtd:output.obj
 0001:00039ff0       ??$type_case_integer_parse_into_buffer@_K$07@?$output_processor@_WV?$string_output_adapter@_W@__crt_stdio_output@@V?$standard_base@_WV?$string_output_adapter@_W@__crt_stdio_output@@@2@@__crt_stdio_output@@AEAAX_K_N@Z 000000014003aff0 f i libucrtd:output.obj
 0001:0003a130       ??$type_case_integer_parse_into_buffer@_K$09@?$output_processor@DV?$stream_output_adapter@D@__crt_stdio_output@@V?$format_validation_base@DV?$stream_output_adapter@D@__crt_stdio_output@@@2@@__crt_stdio_output@@AEAAX_K_N@Z 000000014003b130 f i libucrtd:output.obj
 0001:0003a270       ??$type_case_integer_parse_into_buffer@_K$09@?$output_processor@DV?$stream_output_adapter@D@__crt_stdio_output@@V?$positional_parameter_base@DV?$stream_output_adapter@D@__crt_stdio_output@@@2@@__crt_stdio_output@@AEAAX_K_N@Z 000000014003b270 f i libucrtd:output.obj
 0001:0003a3b0       ??$type_case_integer_parse_into_buffer@_K$09@?$output_processor@DV?$stream_output_adapter@D@__crt_stdio_output@@V?$standard_base@DV?$stream_output_adapter@D@__crt_stdio_output@@@2@@__crt_stdio_output@@AEAAX_K_N@Z 000000014003b3b0 f i libucrtd:output.obj
 0001:0003a4f0       ??$type_case_integer_parse_into_buffer@_K$09@?$output_processor@DV?$string_output_adapter@D@__crt_stdio_output@@V?$format_validation_base@DV?$string_output_adapter@D@__crt_stdio_output@@@2@@__crt_stdio_output@@AEAAX_K_N@Z 000000014003b4f0 f i libucrtd:output.obj
 0001:0003a630       ??$type_case_integer_parse_into_buffer@_K$09@?$output_processor@DV?$string_output_adapter@D@__crt_stdio_output@@V?$positional_parameter_base@DV?$string_output_adapter@D@__crt_stdio_output@@@2@@__crt_stdio_output@@AEAAX_K_N@Z 000000014003b630 f i libucrtd:output.obj
 0001:0003a770       ??$type_case_integer_parse_into_buffer@_K$09@?$output_processor@DV?$string_output_adapter@D@__crt_stdio_output@@V?$standard_base@DV?$string_output_adapter@D@__crt_stdio_output@@@2@@__crt_stdio_output@@AEAAX_K_N@Z 000000014003b770 f i libucrtd:output.obj
 0001:0003a8b0       ??$type_case_integer_parse_into_buffer@_K$09@?$output_processor@_WV?$stream_output_adapter@_W@__crt_stdio_output@@V?$format_validation_base@_WV?$stream_output_adapter@_W@__crt_stdio_output@@@2@@__crt_stdio_output@@AEAAX_K_N@Z 000000014003b8b0 f i libucrtd:output.obj
 0001:0003a9f0       ??$type_case_integer_parse_into_buffer@_K$09@?$output_processor@_WV?$stream_output_adapter@_W@__crt_stdio_output@@V?$positional_parameter_base@_WV?$stream_output_adapter@_W@__crt_stdio_output@@@2@@__crt_stdio_output@@AEAAX_K_N@Z 000000014003b9f0 f i libucrtd:output.obj
 0001:0003ab30       ??$type_case_integer_parse_into_buffer@_K$09@?$output_processor@_WV?$stream_output_adapter@_W@__crt_stdio_output@@V?$standard_base@_WV?$stream_output_adapter@_W@__crt_stdio_output@@@2@@__crt_stdio_output@@AEAAX_K_N@Z 000000014003bb30 f i libucrtd:output.obj
 0001:0003ac70       ??$type_case_integer_parse_into_buffer@_K$09@?$output_processor@_WV?$string_output_adapter@_W@__crt_stdio_output@@V?$format_validation_base@_WV?$string_output_adapter@_W@__crt_stdio_output@@@2@@__crt_stdio_output@@AEAAX_K_N@Z 000000014003bc70 f i libucrtd:output.obj
 0001:0003adb0       ??$type_case_integer_parse_into_buffer@_K$09@?$output_processor@_WV?$string_output_adapter@_W@__crt_stdio_output@@V?$positional_parameter_base@_WV?$string_output_adapter@_W@__crt_stdio_output@@@2@@__crt_stdio_output@@AEAAX_K_N@Z 000000014003bdb0 f i libucrtd:output.obj
 0001:0003aef0       ??$type_case_integer_parse_into_buffer@_K$09@?$output_processor@_WV?$string_output_adapter@_W@__crt_stdio_output@@V?$standard_base@_WV?$string_output_adapter@_W@__crt_stdio_output@@@2@@__crt_stdio_output@@AEAAX_K_N@Z 000000014003bef0 f i libucrtd:output.obj
 0001:0003b030       ??$type_case_integer_parse_into_buffer@_K$0BA@@?$output_processor@DV?$stream_output_adapter@D@__crt_stdio_output@@V?$format_validation_base@DV?$stream_output_adapter@D@__crt_stdio_output@@@2@@__crt_stdio_output@@AEAAX_K_N@Z 000000014003c030 f i libucrtd:output.obj
 0001:0003b170       ??$type_case_integer_parse_into_buffer@_K$0BA@@?$output_processor@DV?$stream_output_adapter@D@__crt_stdio_output@@V?$positional_parameter_base@DV?$stream_output_adapter@D@__crt_stdio_output@@@2@@__crt_stdio_output@@AEAAX_K_N@Z 000000014003c170 f i libucrtd:output.obj
 0001:0003b2b0       ??$type_case_integer_parse_into_buffer@_K$0BA@@?$output_processor@DV?$stream_output_adapter@D@__crt_stdio_output@@V?$standard_base@DV?$stream_output_adapter@D@__crt_stdio_output@@@2@@__crt_stdio_output@@AEAAX_K_N@Z 000000014003c2b0 f i libucrtd:output.obj
 0001:0003b3f0       ??$type_case_integer_parse_into_buffer@_K$0BA@@?$output_processor@DV?$string_output_adapter@D@__crt_stdio_output@@V?$format_validation_base@DV?$string_output_adapter@D@__crt_stdio_output@@@2@@__crt_stdio_output@@AEAAX_K_N@Z 000000014003c3f0 f i libucrtd:output.obj
 0001:0003b530       ??$type_case_integer_parse_into_buffer@_K$0BA@@?$output_processor@DV?$string_output_adapter@D@__crt_stdio_output@@V?$positional_parameter_base@DV?$string_output_adapter@D@__crt_stdio_output@@@2@@__crt_stdio_output@@AEAAX_K_N@Z 000000014003c530 f i libucrtd:output.obj
 0001:0003b670       ??$type_case_integer_parse_into_buffer@_K$0BA@@?$output_processor@DV?$string_output_adapter@D@__crt_stdio_output@@V?$standard_base@DV?$string_output_adapter@D@__crt_stdio_output@@@2@@__crt_stdio_output@@AEAAX_K_N@Z 000000014003c670 f i libucrtd:output.obj
 0001:0003b7b0       ??$type_case_integer_parse_into_buffer@_K$0BA@@?$output_processor@_WV?$stream_output_adapter@_W@__crt_stdio_output@@V?$format_validation_base@_WV?$stream_output_adapter@_W@__crt_stdio_output@@@2@@__crt_stdio_output@@AEAAX_K_N@Z 000000014003c7b0 f i libucrtd:output.obj
 0001:0003b8f0       ??$type_case_integer_parse_into_buffer@_K$0BA@@?$output_processor@_WV?$stream_output_adapter@_W@__crt_stdio_output@@V?$positional_parameter_base@_WV?$stream_output_adapter@_W@__crt_stdio_output@@@2@@__crt_stdio_output@@AEAAX_K_N@Z 000000014003c8f0 f i libucrtd:output.obj
 0001:0003ba30       ??$type_case_integer_parse_into_buffer@_K$0BA@@?$output_processor@_WV?$stream_output_adapter@_W@__crt_stdio_output@@V?$standard_base@_WV?$stream_output_adapter@_W@__crt_stdio_output@@@2@@__crt_stdio_output@@AEAAX_K_N@Z 000000014003ca30 f i libucrtd:output.obj
 0001:0003bb70       ??$type_case_integer_parse_into_buffer@_K$0BA@@?$output_processor@_WV?$string_output_adapter@_W@__crt_stdio_output@@V?$format_validation_base@_WV?$string_output_adapter@_W@__crt_stdio_output@@@2@@__crt_stdio_output@@AEAAX_K_N@Z 000000014003cb70 f i libucrtd:output.obj
 0001:0003bcb0       ??$type_case_integer_parse_into_buffer@_K$0BA@@?$output_processor@_WV?$string_output_adapter@_W@__crt_stdio_output@@V?$positional_parameter_base@_WV?$string_output_adapter@_W@__crt_stdio_output@@@2@@__crt_stdio_output@@AEAAX_K_N@Z 000000014003ccb0 f i libucrtd:output.obj
 0001:0003bdf0       ??$type_case_integer_parse_into_buffer@_K$0BA@@?$output_processor@_WV?$string_output_adapter@_W@__crt_stdio_output@@V?$standard_base@_WV?$string_output_adapter@_W@__crt_stdio_output@@@2@@__crt_stdio_output@@AEAAX_K_N@Z 000000014003cdf0 f i libucrtd:output.obj
 0001:0003bf30       ??$write_multiple_characters@V?$stream_output_adapter@D@__crt_stdio_output@@D@__crt_stdio_output@@YAXAEBV?$stream_output_adapter@D@0@DHQEAHAEAV__crt_cached_ptd_host@@@Z 000000014003cf30 f i libucrtd:output.obj
 0001:0003bfa0       ??$write_multiple_characters@V?$stream_output_adapter@_W@__crt_stdio_output@@D@__crt_stdio_output@@YAXAEBV?$stream_output_adapter@_W@0@DHQEAHAEAV__crt_cached_ptd_host@@@Z 000000014003cfa0 f i libucrtd:output.obj
 0001:0003c010       ??$write_multiple_characters@V?$string_output_adapter@D@__crt_stdio_output@@D@__crt_stdio_output@@YAXAEBV?$string_output_adapter@D@0@DHQEAHAEAV__crt_cached_ptd_host@@@Z 000000014003d010 f i libucrtd:output.obj
 0001:0003c080       ??$write_multiple_characters@V?$string_output_adapter@_W@__crt_stdio_output@@D@__crt_stdio_output@@YAXAEBV?$string_output_adapter@_W@0@DHQEAHAEAV__crt_cached_ptd_host@@@Z 000000014003d080 f i libucrtd:output.obj
 0001:0003c4b0       ??0?$c_string_character_source@D@__crt_strtox@@QEAA@QEBDQEAPEBD@Z 000000014003d4b0 f i libucrtd:output.obj
 0001:0003c500       ??0?$c_string_character_source@_W@__crt_strtox@@QEAA@QEB_WQEAPEB_W@Z 000000014003d500 f i libucrtd:output.obj
 0001:0003c550       ??0?$cached@H@__crt_cached_ptd_host@@QEAA@XZ 000000014003d550 f i libucrtd:output.obj
 0001:0003c570       ??0?$cached@K@__crt_cached_ptd_host@@QEAA@XZ 000000014003d570 f i libucrtd:output.obj
 0001:0003c590       ??0?$common_data@D@__crt_stdio_output@@IEAA@AEAV__crt_cached_ptd_host@@@Z 000000014003d590 f i libucrtd:output.obj
 0001:0003c650       ??0?$common_data@_W@__crt_stdio_output@@IEAA@AEAV__crt_cached_ptd_host@@@Z 000000014003d650 f i libucrtd:output.obj
 0001:0003c710       ??0?$output_adapter_data@DV?$stream_output_adapter@D@__crt_stdio_output@@@__crt_stdio_output@@IEAA@AEBV?$stream_output_adapter@D@1@_KQEBDAEAV__crt_cached_ptd_host@@QEAD@Z 000000014003d710 f i libucrtd:output.obj
 0001:0003c790       ??0?$output_adapter_data@DV?$string_output_adapter@D@__crt_stdio_output@@@__crt_stdio_output@@IEAA@AEBV?$string_output_adapter@D@1@_KQEBDAEAV__crt_cached_ptd_host@@QEAD@Z 000000014003d790 f i libucrtd:output.obj
 0001:0003c810       ??0?$output_adapter_data@_WV?$stream_output_adapter@_W@__crt_stdio_output@@@__crt_stdio_output@@IEAA@AEBV?$stream_output_adapter@_W@1@_KQEB_WAEAV__crt_cached_ptd_host@@QEAD@Z 000000014003d810 f i libucrtd:output.obj
 0001:0003c890       ??0?$output_adapter_data@_WV?$string_output_adapter@_W@__crt_stdio_output@@@__crt_stdio_output@@IEAA@AEBV?$string_output_adapter@_W@1@_KQEB_WAEAV__crt_cached_ptd_host@@QEAD@Z 000000014003d890 f i libucrtd:output.obj
 0001:0003c910       ??0?$output_processor@DV?$stream_output_adapter@D@__crt_stdio_output@@V?$format_validation_base@DV?$stream_output_adapter@D@__crt_stdio_output@@@2@@__crt_stdio_output@@QEAA@AEBV?$stream_output_adapter@D@1@_KQEBDAEAV__crt_cached_ptd_host@@QEAD@Z 000000014003d910 f i libucrtd:output.obj
 0001:0003c960       ??0?$output_processor@DV?$stream_output_adapter@D@__crt_stdio_output@@V?$positional_parameter_base@DV?$stream_output_adapter@D@__crt_stdio_output@@@2@@__crt_stdio_output@@QEAA@AEBV?$stream_output_adapter@D@1@_KQEBDAEAV__crt_cached_ptd_host@@QEAD@Z 000000014003d960 f i libucrtd:output.obj
 0001:0003c9b0       ??0?$output_processor@DV?$stream_output_adapter@D@__crt_stdio_output@@V?$standard_base@DV?$stream_output_adapter@D@__crt_stdio_output@@@2@@__crt_stdio_output@@QEAA@AEBV?$stream_output_adapter@D@1@_KQEBDAEAV__crt_cached_ptd_host@@QEAD@Z 000000014003d9b0 f i libucrtd:output.obj
 0001:0003ca00       ??0?$output_processor@DV?$string_output_adapter@D@__crt_stdio_output@@V?$format_validation_base@DV?$string_output_adapter@D@__crt_stdio_output@@@2@@__crt_stdio_output@@QEAA@AEBV?$string_output_adapter@D@1@_KQEBDAEAV__crt_cached_ptd_host@@QEAD@Z 000000014003da00 f i libucrtd:output.obj
 0001:0003ca50       ??0?$output_processor@DV?$string_output_adapter@D@__crt_stdio_output@@V?$positional_parameter_base@DV?$string_output_adapter@D@__crt_stdio_output@@@2@@__crt_stdio_output@@QEAA@AEBV?$string_output_adapter@D@1@_KQEBDAEAV__crt_cached_ptd_host@@QEAD@Z 000000014003da50 f i libucrtd:output.obj
 0001:0003caa0       ??0?$output_processor@DV?$string_output_adapter@D@__crt_stdio_output@@V?$standard_base@DV?$string_output_adapter@D@__crt_stdio_output@@@2@@__crt_stdio_output@@QEAA@AEBV?$string_output_adapter@D@1@_KQEBDAEAV__crt_cached_ptd_host@@QEAD@Z 000000014003daa0 f i libucrtd:output.obj
 0001:0003caf0       ??0?$output_processor@_WV?$stream_output_adapter@_W@__crt_stdio_output@@V?$format_validation_base@_WV?$stream_output_adapter@_W@__crt_stdio_output@@@2@@__crt_stdio_output@@QEAA@AEBV?$stream_output_adapter@_W@1@_KQEB_WAEAV__crt_cached_ptd_host@@QEAD@Z 000000014003daf0 f i libucrtd:output.obj
 0001:0003cb40       ??0?$output_processor@_WV?$stream_output_adapter@_W@__crt_stdio_output@@V?$positional_parameter_base@_WV?$stream_output_adapter@_W@__crt_stdio_output@@@2@@__crt_stdio_output@@QEAA@AEBV?$stream_output_adapter@_W@1@_KQEB_WAEAV__crt_cached_ptd_host@@QEAD@Z 000000014003db40 f i libucrtd:output.obj
 0001:0003cb90       ??0?$output_processor@_WV?$stream_output_adapter@_W@__crt_stdio_output@@V?$standard_base@_WV?$stream_output_adapter@_W@__crt_stdio_output@@@2@@__crt_stdio_output@@QEAA@AEBV?$stream_output_adapter@_W@1@_KQEB_WAEAV__crt_cached_ptd_host@@QEAD@Z 000000014003db90 f i libucrtd:output.obj
 0001:0003cbe0       ??0?$output_processor@_WV?$string_output_adapter@_W@__crt_stdio_output@@V?$format_validation_base@_WV?$string_output_adapter@_W@__crt_stdio_output@@@2@@__crt_stdio_output@@QEAA@AEBV?$string_output_adapter@_W@1@_KQEB_WAEAV__crt_cached_ptd_host@@QEAD@Z 000000014003dbe0 f i libucrtd:output.obj
 0001:0003cc30       ??0?$output_processor@_WV?$string_output_adapter@_W@__crt_stdio_output@@V?$positional_parameter_base@_WV?$string_output_adapter@_W@__crt_stdio_output@@@2@@__crt_stdio_output@@QEAA@AEBV?$string_output_adapter@_W@1@_KQEB_WAEAV__crt_cached_ptd_host@@QEAD@Z 000000014003dc30 f i libucrtd:output.obj
 0001:0003cc80       ??0?$output_processor@_WV?$string_output_adapter@_W@__crt_stdio_output@@V?$standard_base@_WV?$string_output_adapter@_W@__crt_stdio_output@@@2@@__crt_stdio_output@@QEAA@AEBV?$string_output_adapter@_W@1@_KQEB_WAEAV__crt_cached_ptd_host@@QEAD@Z 000000014003dc80 f i libucrtd:output.obj
 0001:0003ccd0       ??0?$stream_output_adapter@D@__crt_stdio_output@@QEAA@QEAU_iobuf@@@Z 000000014003dcd0 f i libucrtd:output.obj
 0001:0003cd10       ??0?$stream_output_adapter@_W@__crt_stdio_output@@QEAA@QEAU_iobuf@@@Z 000000014003dd10 f i libucrtd:output.obj
 0001:0003cd50       ??0?$string_output_adapter@D@__crt_stdio_output@@QEAA@QEAU?$string_output_adapter_context@D@1@@Z 000000014003dd50 f i libucrtd:output.obj
 0001:0003cd70       ??0?$string_output_adapter@_W@__crt_stdio_output@@QEAA@QEAU?$string_output_adapter_context@_W@1@@Z 000000014003dd70 f i libucrtd:output.obj
 0001:0003cd90       ??0__acrt_stdio_temporary_buffering_guard@@QEAA@QEAU_iobuf@@AEAV__crt_cached_ptd_host@@@Z 000000014003dd90 f i libucrtd:output.obj
 0001:0003cde0       ??0__crt_cached_ptd_host@@QEAA@QEAU__crt_locale_pointers@@@Z 000000014003dde0 f i libucrtd:output.obj
 0001:0003cea0       ??0__crt_scoped_get_last_error_reset@@QEAA@XZ 000000014003dea0 f i libucrtd:output.obj
 0001:0003cec0       ??0formatting_buffer@__crt_stdio_output@@QEAA@XZ 000000014003dec0 f i libucrtd:output.obj
 0001:0003cf00       ??0guard@?$cached@H@__crt_cached_ptd_host@@QEAA@AEAU12@@Z 000000014003df00 f i libucrtd:output.obj
 0001:0003cf40       ??1?$c_string_character_source@D@__crt_strtox@@QEAA@XZ 000000014003df40 f i libucrtd:output.obj
 0001:0003cf70       ??1?$c_string_character_source@_W@__crt_strtox@@QEAA@XZ 000000014003df70 f i libucrtd:output.obj
 0001:0003cfa0       ??1?$common_data@D@__crt_stdio_output@@QEAA@XZ 000000014003dfa0 f i libucrtd:output.obj
 0001:0003cfc0       ??1?$common_data@_W@__crt_stdio_output@@QEAA@XZ 000000014003dfc0 f i libucrtd:output.obj
 0001:0003cfe0       ??1?$format_validation_base@DV?$stream_output_adapter@D@__crt_stdio_output@@@__crt_stdio_output@@QEAA@XZ 000000014003dfe0 f i libucrtd:output.obj
 0001:0003d000       ??1?$format_validation_base@DV?$string_output_adapter@D@__crt_stdio_output@@@__crt_stdio_output@@QEAA@XZ 000000014003e000 f i libucrtd:output.obj
 0001:0003d020       ??1?$format_validation_base@_WV?$stream_output_adapter@_W@__crt_stdio_output@@@__crt_stdio_output@@QEAA@XZ 000000014003e020 f i libucrtd:output.obj
 0001:0003d040       ??1?$format_validation_base@_WV?$string_output_adapter@_W@__crt_stdio_output@@@__crt_stdio_output@@QEAA@XZ 000000014003e040 f i libucrtd:output.obj
 0001:0003d060       ??1?$output_adapter_data@DV?$stream_output_adapter@D@__crt_stdio_output@@@__crt_stdio_output@@QEAA@XZ 000000014003e060 f i libucrtd:output.obj
 0001:0003d080       ??1?$output_adapter_data@DV?$string_output_adapter@D@__crt_stdio_output@@@__crt_stdio_output@@QEAA@XZ 000000014003e080 f i libucrtd:output.obj
 0001:0003d0a0       ??1?$output_adapter_data@_WV?$stream_output_adapter@_W@__crt_stdio_output@@@__crt_stdio_output@@QEAA@XZ 000000014003e0a0 f i libucrtd:output.obj
 0001:0003d0c0       ??1?$output_adapter_data@_WV?$string_output_adapter@_W@__crt_stdio_output@@@__crt_stdio_output@@QEAA@XZ 000000014003e0c0 f i libucrtd:output.obj
 0001:0003d0e0       ??1?$output_processor@DV?$stream_output_adapter@D@__crt_stdio_output@@V?$format_validation_base@DV?$stream_output_adapter@D@__crt_stdio_output@@@2@@__crt_stdio_output@@QEAA@XZ 000000014003e0e0 f i libucrtd:output.obj
 0001:0003d100       ??1?$output_processor@DV?$stream_output_adapter@D@__crt_stdio_output@@V?$positional_parameter_base@DV?$stream_output_adapter@D@__crt_stdio_output@@@2@@__crt_stdio_output@@QEAA@XZ 000000014003e100 f i libucrtd:output.obj
 0001:0003d120       ??1?$output_processor@DV?$stream_output_adapter@D@__crt_stdio_output@@V?$standard_base@DV?$stream_output_adapter@D@__crt_stdio_output@@@2@@__crt_stdio_output@@QEAA@XZ 000000014003e120 f i libucrtd:output.obj
 0001:0003d140       ??1?$output_processor@DV?$string_output_adapter@D@__crt_stdio_output@@V?$format_validation_base@DV?$string_output_adapter@D@__crt_stdio_output@@@2@@__crt_stdio_output@@QEAA@XZ 000000014003e140 f i libucrtd:output.obj
 0001:0003d160       ??1?$output_processor@DV?$string_output_adapter@D@__crt_stdio_output@@V?$positional_parameter_base@DV?$string_output_adapter@D@__crt_stdio_output@@@2@@__crt_stdio_output@@QEAA@XZ 000000014003e160 f i libucrtd:output.obj
 0001:0003d180       ??1?$output_processor@DV?$string_output_adapter@D@__crt_stdio_output@@V?$standard_base@DV?$string_output_adapter@D@__crt_stdio_output@@@2@@__crt_stdio_output@@QEAA@XZ 000000014003e180 f i libucrtd:output.obj
 0001:0003d1a0       ??1?$output_processor@_WV?$stream_output_adapter@_W@__crt_stdio_output@@V?$format_validation_base@_WV?$stream_output_adapter@_W@__crt_stdio_output@@@2@@__crt_stdio_output@@QEAA@XZ 000000014003e1a0 f i libucrtd:output.obj
 0001:0003d1c0       ??1?$output_processor@_WV?$stream_output_adapter@_W@__crt_stdio_output@@V?$positional_parameter_base@_WV?$stream_output_adapter@_W@__crt_stdio_output@@@2@@__crt_stdio_output@@QEAA@XZ 000000014003e1c0 f i libucrtd:output.obj
 0001:0003d1e0       ??1?$output_processor@_WV?$stream_output_adapter@_W@__crt_stdio_output@@V?$standard_base@_WV?$stream_output_adapter@_W@__crt_stdio_output@@@2@@__crt_stdio_output@@QEAA@XZ 000000014003e1e0 f i libucrtd:output.obj
 0001:0003d200       ??1?$output_processor@_WV?$string_output_adapter@_W@__crt_stdio_output@@V?$format_validation_base@_WV?$string_output_adapter@_W@__crt_stdio_output@@@2@@__crt_stdio_output@@QEAA@XZ 000000014003e200 f i libucrtd:output.obj
 0001:0003d220       ??1?$output_processor@_WV?$string_output_adapter@_W@__crt_stdio_output@@V?$positional_parameter_base@_WV?$string_output_adapter@_W@__crt_stdio_output@@@2@@__crt_stdio_output@@QEAA@XZ 000000014003e220 f i libucrtd:output.obj
 0001:0003d240       ??1?$output_processor@_WV?$string_output_adapter@_W@__crt_stdio_output@@V?$standard_base@_WV?$string_output_adapter@_W@__crt_stdio_output@@@2@@__crt_stdio_output@@QEAA@XZ 000000014003e240 f i libucrtd:output.obj
 0001:0003d260       ??1?$positional_parameter_base@DV?$stream_output_adapter@D@__crt_stdio_output@@@__crt_stdio_output@@QEAA@XZ 000000014003e260 f i libucrtd:output.obj
 0001:0003d280       ??1?$positional_parameter_base@DV?$string_output_adapter@D@__crt_stdio_output@@@__crt_stdio_output@@QEAA@XZ 000000014003e280 f i libucrtd:output.obj
 0001:0003d2a0       ??1?$positional_parameter_base@_WV?$stream_output_adapter@_W@__crt_stdio_output@@@__crt_stdio_output@@QEAA@XZ 000000014003e2a0 f i libucrtd:output.obj
 0001:0003d2c0       ??1?$positional_parameter_base@_WV?$string_output_adapter@_W@__crt_stdio_output@@@__crt_stdio_output@@QEAA@XZ 000000014003e2c0 f i libucrtd:output.obj
 0001:0003d2e0       ??1?$standard_base@DV?$stream_output_adapter@D@__crt_stdio_output@@@__crt_stdio_output@@QEAA@XZ 000000014003e2e0 f i libucrtd:output.obj
 0001:0003d300       ??1?$standard_base@DV?$string_output_adapter@D@__crt_stdio_output@@@__crt_stdio_output@@QEAA@XZ 000000014003e300 f i libucrtd:output.obj
 0001:0003d320       ??1?$standard_base@_WV?$stream_output_adapter@_W@__crt_stdio_output@@@__crt_stdio_output@@QEAA@XZ 000000014003e320 f i libucrtd:output.obj
 0001:0003d340       ??1?$standard_base@_WV?$string_output_adapter@_W@__crt_stdio_output@@@__crt_stdio_output@@QEAA@XZ 000000014003e340 f i libucrtd:output.obj
 0001:0003d360       ??1__acrt_stdio_temporary_buffering_guard@@QEAA@XZ 000000014003e360 f i libucrtd:output.obj
 0001:0003d390       ??1__crt_cached_ptd_host@@QEAA@XZ 000000014003e390 f i libucrtd:output.obj
 0001:0003d440       ??1__crt_scoped_get_last_error_reset@@QEAA@XZ 000000014003e440 f i libucrtd:output.obj
 0001:0003d460       ??1formatting_buffer@__crt_stdio_output@@QEAA@XZ 000000014003e460 f i libucrtd:output.obj
 0001:0003d490       ??1guard@?$cached@H@__crt_cached_ptd_host@@QEAA@XZ 000000014003e490 f i libucrtd:output.obj
 0001:0003d4c0       ??4?$__crt_unique_heap_ptr@DU__crt_internal_free_policy@@@@QEAAAEAV0@$$QEAV0@@Z 000000014003e4c0 f i libucrtd:output.obj
 0001:0003d500       ??A?$spectre_mitigated_lookup_table@Ustate_transition_pair@__crt_stdio_output@@$0IA@@__crt_stdio_output@@QEBAAEBUstate_transition_pair@1@_K@Z 000000014003e500 f i libucrtd:output.obj
 0001:0003dd60       ?__crt_interlocked_read_32@@YAHPEDH@Z 000000014003ed60 f i libucrtd:output.obj
 0001:0003dd80       ?adjust_hexit@?$output_processor@DV?$stream_output_adapter@D@__crt_stdio_output@@V?$format_validation_base@DV?$stream_output_adapter@D@__crt_stdio_output@@@2@@__crt_stdio_output@@CADH_N@Z 000000014003ed80 f i libucrtd:output.obj
 0001:0003ddd0       ?adjust_hexit@?$output_processor@DV?$stream_output_adapter@D@__crt_stdio_output@@V?$positional_parameter_base@DV?$stream_output_adapter@D@__crt_stdio_output@@@2@@__crt_stdio_output@@CADH_N@Z 000000014003edd0 f i libucrtd:output.obj
 0001:0003de20       ?adjust_hexit@?$output_processor@DV?$stream_output_adapter@D@__crt_stdio_output@@V?$standard_base@DV?$stream_output_adapter@D@__crt_stdio_output@@@2@@__crt_stdio_output@@CADH_N@Z 000000014003ee20 f i libucrtd:output.obj
 0001:0003de70       ?adjust_hexit@?$output_processor@DV?$string_output_adapter@D@__crt_stdio_output@@V?$format_validation_base@DV?$string_output_adapter@D@__crt_stdio_output@@@2@@__crt_stdio_output@@CADH_N@Z 000000014003ee70 f i libucrtd:output.obj
 0001:0003dec0       ?adjust_hexit@?$output_processor@DV?$string_output_adapter@D@__crt_stdio_output@@V?$positional_parameter_base@DV?$string_output_adapter@D@__crt_stdio_output@@@2@@__crt_stdio_output@@CADH_N@Z 000000014003eec0 f i libucrtd:output.obj
 0001:0003df10       ?adjust_hexit@?$output_processor@DV?$string_output_adapter@D@__crt_stdio_output@@V?$standard_base@DV?$string_output_adapter@D@__crt_stdio_output@@@2@@__crt_stdio_output@@CADH_N@Z 000000014003ef10 f i libucrtd:output.obj
 0001:0003df60       ?adjust_hexit@?$output_processor@_WV?$stream_output_adapter@_W@__crt_stdio_output@@V?$format_validation_base@_WV?$stream_output_adapter@_W@__crt_stdio_output@@@2@@__crt_stdio_output@@CADH_N@Z 000000014003ef60 f i libucrtd:output.obj
 0001:0003dfb0       ?adjust_hexit@?$output_processor@_WV?$stream_output_adapter@_W@__crt_stdio_output@@V?$positional_parameter_base@_WV?$stream_output_adapter@_W@__crt_stdio_output@@@2@@__crt_stdio_output@@CADH_N@Z 000000014003efb0 f i libucrtd:output.obj
 0001:0003e000       ?adjust_hexit@?$output_processor@_WV?$stream_output_adapter@_W@__crt_stdio_output@@V?$standard_base@_WV?$stream_output_adapter@_W@__crt_stdio_output@@@2@@__crt_stdio_output@@CADH_N@Z 000000014003f000 f i libucrtd:output.obj
 0001:0003e050       ?adjust_hexit@?$output_processor@_WV?$string_output_adapter@_W@__crt_stdio_output@@V?$format_validation_base@_WV?$string_output_adapter@_W@__crt_stdio_output@@@2@@__crt_stdio_output@@CADH_N@Z 000000014003f050 f i libucrtd:output.obj
 0001:0003e0a0       ?adjust_hexit@?$output_processor@_WV?$string_output_adapter@_W@__crt_stdio_output@@V?$positional_parameter_base@_WV?$string_output_adapter@_W@__crt_stdio_output@@@2@@__crt_stdio_output@@CADH_N@Z 000000014003f0a0 f i libucrtd:output.obj
 0001:0003e0f0       ?adjust_hexit@?$output_processor@_WV?$string_output_adapter@_W@__crt_stdio_output@@V?$standard_base@_WV?$string_output_adapter@_W@__crt_stdio_output@@@2@@__crt_stdio_output@@CADH_N@Z 000000014003f0f0 f i libucrtd:output.obj
 0001:0003e140       ?advance_to_next_pass@?$positional_parameter_base@DV?$stream_output_adapter@D@__crt_stdio_output@@@__crt_stdio_output@@IEAA_NXZ 000000014003f140 f i libucrtd:output.obj
 0001:0003e1f0       ?advance_to_next_pass@?$positional_parameter_base@DV?$string_output_adapter@D@__crt_stdio_output@@@__crt_stdio_output@@IEAA_NXZ 000000014003f1f0 f i libucrtd:output.obj
 0001:0003e2a0       ?advance_to_next_pass@?$positional_parameter_base@_WV?$stream_output_adapter@_W@__crt_stdio_output@@@__crt_stdio_output@@IEAA_NXZ 000000014003f2a0 f i libucrtd:output.obj
 0001:0003e350       ?advance_to_next_pass@?$positional_parameter_base@_WV?$string_output_adapter@_W@__crt_stdio_output@@@__crt_stdio_output@@IEAA_NXZ 000000014003f350 f i libucrtd:output.obj
 0001:0003e400       ?advance_to_next_pass@?$standard_base@DV?$stream_output_adapter@D@__crt_stdio_output@@@__crt_stdio_output@@IEAA_NXZ 000000014003f400 f i libucrtd:output.obj
 0001:0003e450       ?advance_to_next_pass@?$standard_base@DV?$string_output_adapter@D@__crt_stdio_output@@@__crt_stdio_output@@IEAA_NXZ 000000014003f450 f i libucrtd:output.obj
 0001:0003e4a0       ?advance_to_next_pass@?$standard_base@_WV?$stream_output_adapter@_W@__crt_stdio_output@@@__crt_stdio_output@@IEAA_NXZ 000000014003f4a0 f i libucrtd:output.obj
 0001:0003e4f0       ?advance_to_next_pass@?$standard_base@_WV?$string_output_adapter@_W@__crt_stdio_output@@@__crt_stdio_output@@IEAA_NXZ 000000014003f4f0 f i libucrtd:output.obj
 0001:0003e540       ?check@?$cached@H@__crt_cached_ptd_host@@QEBA_NH@Z 000000014003f540 f i libucrtd:output.obj
 0001:0003e580       ?check_synchronize_global_state_index@__crt_cached_ptd_host@@AEAA_KAEBV__crt_scoped_get_last_error_reset@@@Z 000000014003f580 f i libucrtd:output.obj
 0001:0003e5c0       ?check_synchronize_per_thread_data@__crt_cached_ptd_host@@AEAAPEAU__acrt_ptd@@XZ 000000014003f5c0 f i libucrtd:output.obj
 0001:0003e600       ?create_guard@?$cached@H@__crt_cached_ptd_host@@QEAA?AVguard@12@XZ 000000014003f600 f i libucrtd:output.obj
 0001:0003e630       ?crop_zeroes@__crt_stdio_output@@YAXPEADQEAU__crt_locale_pointers@@@Z 000000014003f630 f i libucrtd:output.obj
 0001:0003e780       ?disable@guard@?$cached@H@__crt_cached_ptd_host@@QEAAXXZ 000000014003f780 f i libucrtd:output.obj
 0001:0003e790       ?enable@guard@?$cached@H@__crt_cached_ptd_host@@QEAAXXZ 000000014003f790 f i libucrtd:output.obj
 0001:0003e7a0       ?find_next_state@?$output_processor@DV?$stream_output_adapter@D@__crt_stdio_output@@V?$format_validation_base@DV?$stream_output_adapter@D@__crt_stdio_output@@@2@@__crt_stdio_output@@AEBA?AW4state@2@DW432@@Z 000000014003f7a0 f i libucrtd:output.obj
 0001:0003e840       ?find_next_state@?$output_processor@DV?$stream_output_adapter@D@__crt_stdio_output@@V?$positional_parameter_base@DV?$stream_output_adapter@D@__crt_stdio_output@@@2@@__crt_stdio_output@@AEBA?AW4state@2@DW432@@Z 000000014003f840 f i libucrtd:output.obj
 0001:0003e8e0       ?find_next_state@?$output_processor@DV?$stream_output_adapter@D@__crt_stdio_output@@V?$standard_base@DV?$stream_output_adapter@D@__crt_stdio_output@@@2@@__crt_stdio_output@@AEBA?AW4state@2@DW432@@Z 000000014003f8e0 f i libucrtd:output.obj
 0001:0003e980       ?find_next_state@?$output_processor@DV?$string_output_adapter@D@__crt_stdio_output@@V?$format_validation_base@DV?$string_output_adapter@D@__crt_stdio_output@@@2@@__crt_stdio_output@@AEBA?AW4state@2@DW432@@Z 000000014003f980 f i libucrtd:output.obj
 0001:0003ea20       ?find_next_state@?$output_processor@DV?$string_output_adapter@D@__crt_stdio_output@@V?$positional_parameter_base@DV?$string_output_adapter@D@__crt_stdio_output@@@2@@__crt_stdio_output@@AEBA?AW4state@2@DW432@@Z 000000014003fa20 f i libucrtd:output.obj
 0001:0003eac0       ?find_next_state@?$output_processor@DV?$string_output_adapter@D@__crt_stdio_output@@V?$standard_base@DV?$string_output_adapter@D@__crt_stdio_output@@@2@@__crt_stdio_output@@AEBA?AW4state@2@DW432@@Z 000000014003fac0 f i libucrtd:output.obj
 0001:0003eb60       ?find_next_state@?$output_processor@_WV?$stream_output_adapter@_W@__crt_stdio_output@@V?$format_validation_base@_WV?$stream_output_adapter@_W@__crt_stdio_output@@@2@@__crt_stdio_output@@AEBA?AW4state@2@_WW432@@Z 000000014003fb60 f i libucrtd:output.obj
 0001:0003ec00       ?find_next_state@?$output_processor@_WV?$stream_output_adapter@_W@__crt_stdio_output@@V?$positional_parameter_base@_WV?$stream_output_adapter@_W@__crt_stdio_output@@@2@@__crt_stdio_output@@AEBA?AW4state@2@_WW432@@Z 000000014003fc00 f i libucrtd:output.obj
 0001:0003eca0       ?find_next_state@?$output_processor@_WV?$stream_output_adapter@_W@__crt_stdio_output@@V?$standard_base@_WV?$stream_output_adapter@_W@__crt_stdio_output@@@2@@__crt_stdio_output@@AEBA?AW4state@2@_WW432@@Z 000000014003fca0 f i libucrtd:output.obj
 0001:0003ed40       ?find_next_state@?$output_processor@_WV?$string_output_adapter@_W@__crt_stdio_output@@V?$format_validation_base@_WV?$string_output_adapter@_W@__crt_stdio_output@@@2@@__crt_stdio_output@@AEBA?AW4state@2@_WW432@@Z 000000014003fd40 f i libucrtd:output.obj
 0001:0003ede0       ?find_next_state@?$output_processor@_WV?$string_output_adapter@_W@__crt_stdio_output@@V?$positional_parameter_base@_WV?$string_output_adapter@_W@__crt_stdio_output@@@2@@__crt_stdio_output@@AEBA?AW4state@2@_WW432@@Z 000000014003fde0 f i libucrtd:output.obj
 0001:0003ee80       ?find_next_state@?$output_processor@_WV?$string_output_adapter@_W@__crt_stdio_output@@V?$standard_base@_WV?$string_output_adapter@_W@__crt_stdio_output@@@2@@__crt_stdio_output@@AEBA?AW4state@2@_WW432@@Z 000000014003fe80 f i libucrtd:output.obj
 0001:0003ef20       ?force_decimal_point@__crt_stdio_output@@YAXPEADQEAU__crt_locale_pointers@@@Z 000000014003ff20 f i libucrtd:output.obj
 0001:0003f020       ?force_synchronize_global_state_index@__crt_cached_ptd_host@@AEAA_KAEBV__crt_scoped_get_last_error_reset@@@Z 0000000140040020 f i libucrtd:output.obj
 0001:0003f060       ?force_synchronize_per_thread_data@__crt_cached_ptd_host@@AEAAPEAU__acrt_ptd@@XZ 0000000140040060 f i libucrtd:output.obj
 0001:0003f0c0       ?get@?$c_string_character_source@D@__crt_strtox@@QEAADXZ 00000001400400c0 f i libucrtd:output.obj
 0001:0003f100       ?get@?$c_string_character_source@_W@__crt_strtox@@QEAA_WXZ 0000000140040100 f i libucrtd:output.obj
 0001:0003f140       ?get_current_state_index@__crt_state_management@@YA_KAEBV__crt_scoped_get_last_error_reset@@@Z 0000000140040140 f i libucrtd:output.obj
 0001:0003f150       ?get_errno@__crt_cached_ptd_host@@QEAA@XZ 0000000140040150 f i libucrtd:output.obj
 0001:0003f160       ?get_flags@__crt_stdio_stream@@QEBAJXZ 0000000140040160 f i libucrtd:output.obj
 0001:0003f190       ?get_locale@__crt_cached_ptd_host@@QEAAPEAU__crt_locale_pointers@@XZ 0000000140040190 f i libucrtd:output.obj
 0001:0003f1c0       ?get_parameter_type@?$positional_parameter_base@DV?$stream_output_adapter@D@__crt_stdio_output@@@__crt_stdio_output@@CA?AW4parameter_type@12@F@Z 00000001400401c0 f i libucrtd:output.obj
 0001:0003f1d0       ?get_parameter_type@?$positional_parameter_base@DV?$stream_output_adapter@D@__crt_stdio_output@@@__crt_stdio_output@@CA?AW4parameter_type@12@G@Z 00000001400401d0 f i libucrtd:output.obj
 0001:0003f1e0       ?get_parameter_type@?$positional_parameter_base@DV?$stream_output_adapter@D@__crt_stdio_output@@@__crt_stdio_output@@CA?AW4parameter_type@12@H@Z 00000001400401e0 f i libucrtd:output.obj
 0001:0003f1f0       ?get_parameter_type@?$positional_parameter_base@DV?$stream_output_adapter@D@__crt_stdio_output@@@__crt_stdio_output@@CA?AW4parameter_type@12@I@Z 00000001400401f0 f i libucrtd:output.obj
 0001:0003f200       ?get_parameter_type@?$positional_parameter_base@DV?$stream_output_adapter@D@__crt_stdio_output@@@__crt_stdio_output@@CA?AW4parameter_type@12@U_CRT_DOUBLE@@@Z 0000000140040200 f i libucrtd:output.obj
 0001:0003f210       ?get_parameter_type@?$positional_parameter_base@DV?$stream_output_adapter@D@__crt_stdio_output@@@__crt_stdio_output@@CA?AW4parameter_type@12@_J@Z 0000000140040210 f i libucrtd:output.obj
 0001:0003f220       ?get_parameter_type@?$positional_parameter_base@DV?$stream_output_adapter@D@__crt_stdio_output@@@__crt_stdio_output@@CA?AW4parameter_type@12@_K@Z 0000000140040220 f i libucrtd:output.obj
 0001:0003f230       ?get_parameter_type@?$positional_parameter_base@DV?$stream_output_adapter@D@__crt_stdio_output@@@__crt_stdio_output@@CA?AW4parameter_type@12@_W@Z 0000000140040230 f i libucrtd:output.obj
 0001:0003f240       ?get_parameter_type@?$positional_parameter_base@DV?$string_output_adapter@D@__crt_stdio_output@@@__crt_stdio_output@@CA?AW4parameter_type@12@F@Z 0000000140040240 f i libucrtd:output.obj
 0001:0003f250       ?get_parameter_type@?$positional_parameter_base@DV?$string_output_adapter@D@__crt_stdio_output@@@__crt_stdio_output@@CA?AW4parameter_type@12@G@Z 0000000140040250 f i libucrtd:output.obj
 0001:0003f260       ?get_parameter_type@?$positional_parameter_base@DV?$string_output_adapter@D@__crt_stdio_output@@@__crt_stdio_output@@CA?AW4parameter_type@12@H@Z 0000000140040260 f i libucrtd:output.obj
 0001:0003f270       ?get_parameter_type@?$positional_parameter_base@DV?$string_output_adapter@D@__crt_stdio_output@@@__crt_stdio_output@@CA?AW4parameter_type@12@I@Z 0000000140040270 f i libucrtd:output.obj
 0001:0003f280       ?get_parameter_type@?$positional_parameter_base@DV?$string_output_adapter@D@__crt_stdio_output@@@__crt_stdio_output@@CA?AW4parameter_type@12@U_CRT_DOUBLE@@@Z 0000000140040280 f i libucrtd:output.obj
 0001:0003f290       ?get_parameter_type@?$positional_parameter_base@DV?$string_output_adapter@D@__crt_stdio_output@@@__crt_stdio_output@@CA?AW4parameter_type@12@_J@Z 0000000140040290 f i libucrtd:output.obj
 0001:0003f2a0       ?get_parameter_type@?$positional_parameter_base@DV?$string_output_adapter@D@__crt_stdio_output@@@__crt_stdio_output@@CA?AW4parameter_type@12@_K@Z 00000001400402a0 f i libucrtd:output.obj
 0001:0003f2b0       ?get_parameter_type@?$positional_parameter_base@DV?$string_output_adapter@D@__crt_stdio_output@@@__crt_stdio_output@@CA?AW4parameter_type@12@_W@Z 00000001400402b0 f i libucrtd:output.obj
 0001:0003f2c0       ?get_parameter_type@?$positional_parameter_base@_WV?$stream_output_adapter@_W@__crt_stdio_output@@@__crt_stdio_output@@CA?AW4parameter_type@12@F@Z 00000001400402c0 f i libucrtd:output.obj
 0001:0003f2d0       ?get_parameter_type@?$positional_parameter_base@_WV?$stream_output_adapter@_W@__crt_stdio_output@@@__crt_stdio_output@@CA?AW4parameter_type@12@G@Z 00000001400402d0 f i libucrtd:output.obj
 0001:0003f2e0       ?get_parameter_type@?$positional_parameter_base@_WV?$stream_output_adapter@_W@__crt_stdio_output@@@__crt_stdio_output@@CA?AW4parameter_type@12@H@Z 00000001400402e0 f i libucrtd:output.obj
 0001:0003f2f0       ?get_parameter_type@?$positional_parameter_base@_WV?$stream_output_adapter@_W@__crt_stdio_output@@@__crt_stdio_output@@CA?AW4parameter_type@12@I@Z 00000001400402f0 f i libucrtd:output.obj
 0001:0003f300       ?get_parameter_type@?$positional_parameter_base@_WV?$stream_output_adapter@_W@__crt_stdio_output@@@__crt_stdio_output@@CA?AW4parameter_type@12@U_CRT_DOUBLE@@@Z 0000000140040300 f i libucrtd:output.obj
 0001:0003f310       ?get_parameter_type@?$positional_parameter_base@_WV?$stream_output_adapter@_W@__crt_stdio_output@@@__crt_stdio_output@@CA?AW4parameter_type@12@_J@Z 0000000140040310 f i libucrtd:output.obj
 0001:0003f320       ?get_parameter_type@?$positional_parameter_base@_WV?$stream_output_adapter@_W@__crt_stdio_output@@@__crt_stdio_output@@CA?AW4parameter_type@12@_K@Z 0000000140040320 f i libucrtd:output.obj
 0001:0003f330       ?get_parameter_type@?$positional_parameter_base@_WV?$stream_output_adapter@_W@__crt_stdio_output@@@__crt_stdio_output@@CA?AW4parameter_type@12@_W@Z 0000000140040330 f i libucrtd:output.obj
 0001:0003f340       ?get_parameter_type@?$positional_parameter_base@_WV?$string_output_adapter@_W@__crt_stdio_output@@@__crt_stdio_output@@CA?AW4parameter_type@12@F@Z 0000000140040340 f i libucrtd:output.obj
 0001:0003f350       ?get_parameter_type@?$positional_parameter_base@_WV?$string_output_adapter@_W@__crt_stdio_output@@@__crt_stdio_output@@CA?AW4parameter_type@12@G@Z 0000000140040350 f i libucrtd:output.obj
 0001:0003f360       ?get_parameter_type@?$positional_parameter_base@_WV?$string_output_adapter@_W@__crt_stdio_output@@@__crt_stdio_output@@CA?AW4parameter_type@12@H@Z 0000000140040360 f i libucrtd:output.obj
 0001:0003f370       ?get_parameter_type@?$positional_parameter_base@_WV?$string_output_adapter@_W@__crt_stdio_output@@@__crt_stdio_output@@CA?AW4parameter_type@12@I@Z 0000000140040370 f i libucrtd:output.obj
 0001:0003f380       ?get_parameter_type@?$positional_parameter_base@_WV?$string_output_adapter@_W@__crt_stdio_output@@@__crt_stdio_output@@CA?AW4parameter_type@12@U_CRT_DOUBLE@@@Z 0000000140040380 f i libucrtd:output.obj
 0001:0003f390       ?get_parameter_type@?$positional_parameter_base@_WV?$string_output_adapter@_W@__crt_stdio_output@@@__crt_stdio_output@@CA?AW4parameter_type@12@_J@Z 0000000140040390 f i libucrtd:output.obj
 0001:0003f3a0       ?get_parameter_type@?$positional_parameter_base@_WV?$string_output_adapter@_W@__crt_stdio_output@@@__crt_stdio_output@@CA?AW4parameter_type@12@_K@Z 00000001400403a0 f i libucrtd:output.obj
 0001:0003f3b0       ?get_parameter_type@?$positional_parameter_base@_WV?$string_output_adapter@_W@__crt_stdio_output@@@__crt_stdio_output@@CA?AW4parameter_type@12@_W@Z 00000001400403b0 f i libucrtd:output.obj
 0001:0003f3c0       ?get_raw_ptd@__crt_cached_ptd_host@@QEAAPEAU__acrt_ptd@@XZ 00000001400403c0 f i libucrtd:output.obj
 0001:0003f3e0       ?has_flag@?$output_processor@DV?$stream_output_adapter@D@__crt_stdio_output@@V?$format_validation_base@DV?$stream_output_adapter@D@__crt_stdio_output@@@2@@__crt_stdio_output@@AEBA_NI@Z 00000001400403e0 f i libucrtd:output.obj
 0001:0003f420       ?has_flag@?$output_processor@DV?$stream_output_adapter@D@__crt_stdio_output@@V?$positional_parameter_base@DV?$stream_output_adapter@D@__crt_stdio_output@@@2@@__crt_stdio_output@@AEBA_NI@Z 0000000140040420 f i libucrtd:output.obj
 0001:0003f460       ?has_flag@?$output_processor@DV?$stream_output_adapter@D@__crt_stdio_output@@V?$standard_base@DV?$stream_output_adapter@D@__crt_stdio_output@@@2@@__crt_stdio_output@@AEBA_NI@Z 0000000140040460 f i libucrtd:output.obj
 0001:0003f4a0       ?has_flag@?$output_processor@DV?$string_output_adapter@D@__crt_stdio_output@@V?$format_validation_base@DV?$string_output_adapter@D@__crt_stdio_output@@@2@@__crt_stdio_output@@AEBA_NI@Z 00000001400404a0 f i libucrtd:output.obj
 0001:0003f4e0       ?has_flag@?$output_processor@DV?$string_output_adapter@D@__crt_stdio_output@@V?$positional_parameter_base@DV?$string_output_adapter@D@__crt_stdio_output@@@2@@__crt_stdio_output@@AEBA_NI@Z 00000001400404e0 f i libucrtd:output.obj
 0001:0003f520       ?has_flag@?$output_processor@DV?$string_output_adapter@D@__crt_stdio_output@@V?$standard_base@DV?$string_output_adapter@D@__crt_stdio_output@@@2@@__crt_stdio_output@@AEBA_NI@Z 0000000140040520 f i libucrtd:output.obj
 0001:0003f560       ?has_flag@?$output_processor@_WV?$stream_output_adapter@_W@__crt_stdio_output@@V?$format_validation_base@_WV?$stream_output_adapter@_W@__crt_stdio_output@@@2@@__crt_stdio_output@@AEBA_NI@Z 0000000140040560 f i libucrtd:output.obj
 0001:0003f5a0       ?has_flag@?$output_processor@_WV?$stream_output_adapter@_W@__crt_stdio_output@@V?$positional_parameter_base@_WV?$stream_output_adapter@_W@__crt_stdio_output@@@2@@__crt_stdio_output@@AEBA_NI@Z 00000001400405a0 f i libucrtd:output.obj
 0001:0003f5e0       ?has_flag@?$output_processor@_WV?$stream_output_adapter@_W@__crt_stdio_output@@V?$standard_base@_WV?$stream_output_adapter@_W@__crt_stdio_output@@@2@@__crt_stdio_output@@AEBA_NI@Z 00000001400405e0 f i libucrtd:output.obj
 0001:0003f620       ?has_flag@?$output_processor@_WV?$string_output_adapter@_W@__crt_stdio_output@@V?$format_validation_base@_WV?$string_output_adapter@_W@__crt_stdio_output@@@2@@__crt_stdio_output@@AEBA_NI@Z 0000000140040620 f i libucrtd:output.obj
 0001:0003f660       ?has_flag@?$output_processor@_WV?$string_output_adapter@_W@__crt_stdio_output@@V?$positional_parameter_base@_WV?$string_output_adapter@_W@__crt_stdio_output@@@2@@__crt_stdio_output@@AEBA_NI@Z 0000000140040660 f i libucrtd:output.obj
 0001:0003f6a0       ?has_flag@?$output_processor@_WV?$string_output_adapter@_W@__crt_stdio_output@@V?$standard_base@_WV?$string_output_adapter@_W@__crt_stdio_output@@@2@@__crt_stdio_output@@AEBA_NI@Z 00000001400406a0 f i libucrtd:output.obj
 0001:0003f6e0       ?is_positional_parameter_reappearance_consistent@?$positional_parameter_base@DV?$stream_output_adapter@D@__crt_stdio_output@@@__crt_stdio_output@@AEAA_NAEBUparameter_data@12@W4parameter_type@12@DW4length_modifier@2@@Z 00000001400406e0 f i libucrtd:output.obj
 0001:0003f940       ?is_positional_parameter_reappearance_consistent@?$positional_parameter_base@DV?$string_output_adapter@D@__crt_stdio_output@@@__crt_stdio_output@@AEAA_NAEBUparameter_data@12@W4parameter_type@12@DW4length_modifier@2@@Z 0000000140040940 f i libucrtd:output.obj
 0001:0003fba0       ?is_positional_parameter_reappearance_consistent@?$positional_parameter_base@_WV?$stream_output_adapter@_W@__crt_stdio_output@@@__crt_stdio_output@@AEAA_NAEBUparameter_data@12@W4parameter_type@12@_WW4length_modifier@2@@Z 0000000140040ba0 f i libucrtd:output.obj
 0001:0003fe00       ?is_positional_parameter_reappearance_consistent@?$positional_parameter_base@_WV?$string_output_adapter@_W@__crt_stdio_output@@@__crt_stdio_output@@AEAA_NAEBUparameter_data@12@W4parameter_type@12@_WW4length_modifier@2@@Z 0000000140040e00 f i libucrtd:output.obj
 0001:00040060       ?is_string_backed@__crt_stdio_stream@@QEBA_NXZ 0000000140041060 f i libucrtd:output.obj
 0001:000400a0       ?maximum_signed_value@__crt_strtox@@YAJK@Z 00000001400410a0 f i libucrtd:output.obj
 0001:000400b0       ?minimum_signed_value@__crt_strtox@@YAJK@Z 00000001400410b0 f i libucrtd:output.obj
 0001:000400c0       ?narrow_null_string@?$output_processor@DV?$stream_output_adapter@D@__crt_stdio_output@@V?$format_validation_base@DV?$stream_output_adapter@D@__crt_stdio_output@@@2@@__crt_stdio_output@@CAPEADXZ 00000001400410c0 f i libucrtd:output.obj
 0001:000400d0       ?narrow_null_string@?$output_processor@DV?$stream_output_adapter@D@__crt_stdio_output@@V?$positional_parameter_base@DV?$stream_output_adapter@D@__crt_stdio_output@@@2@@__crt_stdio_output@@CAPEADXZ 00000001400410d0 f i libucrtd:output.obj
 0001:000400e0       ?narrow_null_string@?$output_processor@DV?$stream_output_adapter@D@__crt_stdio_output@@V?$standard_base@DV?$stream_output_adapter@D@__crt_stdio_output@@@2@@__crt_stdio_output@@CAPEADXZ 00000001400410e0 f i libucrtd:output.obj
 0001:000400f0       ?narrow_null_string@?$output_processor@DV?$string_output_adapter@D@__crt_stdio_output@@V?$format_validation_base@DV?$string_output_adapter@D@__crt_stdio_output@@@2@@__crt_stdio_output@@CAPEADXZ 00000001400410f0 f i libucrtd:output.obj
 0001:00040100       ?narrow_null_string@?$output_processor@DV?$string_output_adapter@D@__crt_stdio_output@@V?$positional_parameter_base@DV?$string_output_adapter@D@__crt_stdio_output@@@2@@__crt_stdio_output@@CAPEADXZ 0000000140041100 f i libucrtd:output.obj
 0001:00040110       ?narrow_null_string@?$output_processor@DV?$string_output_adapter@D@__crt_stdio_output@@V?$standard_base@DV?$string_output_adapter@D@__crt_stdio_output@@@2@@__crt_stdio_output@@CAPEADXZ 0000000140041110 f i libucrtd:output.obj
 0001:00040120       ?narrow_null_string@?$output_processor@_WV?$stream_output_adapter@_W@__crt_stdio_output@@V?$format_validation_base@_WV?$stream_output_adapter@_W@__crt_stdio_output@@@2@@__crt_stdio_output@@CAPEADXZ 0000000140041120 f i libucrtd:output.obj
 0001:00040130       ?narrow_null_string@?$output_processor@_WV?$stream_output_adapter@_W@__crt_stdio_output@@V?$positional_parameter_base@_WV?$stream_output_adapter@_W@__crt_stdio_output@@@2@@__crt_stdio_output@@CAPEADXZ 0000000140041130 f i libucrtd:output.obj
 0001:00040140       ?narrow_null_string@?$output_processor@_WV?$stream_output_adapter@_W@__crt_stdio_output@@V?$standard_base@_WV?$stream_output_adapter@_W@__crt_stdio_output@@@2@@__crt_stdio_output@@CAPEADXZ 0000000140041140 f i libucrtd:output.obj
 0001:00040150       ?narrow_null_string@?$output_processor@_WV?$string_output_adapter@_W@__crt_stdio_output@@V?$format_validation_base@_WV?$string_output_adapter@_W@__crt_stdio_output@@@2@@__crt_stdio_output@@CAPEADXZ 0000000140041150 f i libucrtd:output.obj
 0001:00040160       ?narrow_null_string@?$output_processor@_WV?$string_output_adapter@_W@__crt_stdio_output@@V?$positional_parameter_base@_WV?$string_output_adapter@_W@__crt_stdio_output@@@2@@__crt_stdio_output@@CAPEADXZ 0000000140041160 f i libucrtd:output.obj
 0001:00040170       ?narrow_null_string@?$output_processor@_WV?$string_output_adapter@_W@__crt_stdio_output@@V?$standard_base@_WV?$string_output_adapter@_W@__crt_stdio_output@@@2@@__crt_stdio_output@@CAPEADXZ 0000000140041170 f i libucrtd:output.obj
 0001:00040180       ?parse_digit@__crt_strtox@@YAID@Z 0000000140041180 f i libucrtd:output.obj
 0001:000401f0       ?parse_digit@__crt_strtox@@YAI_W@Z 00000001400411f0 f i libucrtd:output.obj
 0001:00040240       ?parse_int_from_format_string@?$output_processor@DV?$stream_output_adapter@D@__crt_stdio_output@@V?$format_validation_base@DV?$stream_output_adapter@D@__crt_stdio_output@@@2@@__crt_stdio_output@@AEAA_NQEAH@Z 0000000140041240 f i libucrtd:output.obj
 0001:00040340       ?parse_int_from_format_string@?$output_processor@DV?$stream_output_adapter@D@__crt_stdio_output@@V?$positional_parameter_base@DV?$stream_output_adapter@D@__crt_stdio_output@@@2@@__crt_stdio_output@@AEAA_NQEAH@Z 0000000140041340 f i libucrtd:output.obj
 0001:00040440       ?parse_int_from_format_string@?$output_processor@DV?$stream_output_adapter@D@__crt_stdio_output@@V?$standard_base@DV?$stream_output_adapter@D@__crt_stdio_output@@@2@@__crt_stdio_output@@AEAA_NQEAH@Z 0000000140041440 f i libucrtd:output.obj
 0001:00040540       ?parse_int_from_format_string@?$output_processor@DV?$string_output_adapter@D@__crt_stdio_output@@V?$format_validation_base@DV?$string_output_adapter@D@__crt_stdio_output@@@2@@__crt_stdio_output@@AEAA_NQEAH@Z 0000000140041540 f i libucrtd:output.obj
 0001:00040640       ?parse_int_from_format_string@?$output_processor@DV?$string_output_adapter@D@__crt_stdio_output@@V?$positional_parameter_base@DV?$string_output_adapter@D@__crt_stdio_output@@@2@@__crt_stdio_output@@AEAA_NQEAH@Z 0000000140041640 f i libucrtd:output.obj
 0001:00040740       ?parse_int_from_format_string@?$output_processor@DV?$string_output_adapter@D@__crt_stdio_output@@V?$standard_base@DV?$string_output_adapter@D@__crt_stdio_output@@@2@@__crt_stdio_output@@AEAA_NQEAH@Z 0000000140041740 f i libucrtd:output.obj
 0001:00040840       ?parse_int_from_format_string@?$output_processor@_WV?$stream_output_adapter@_W@__crt_stdio_output@@V?$format_validation_base@_WV?$stream_output_adapter@_W@__crt_stdio_output@@@2@@__crt_stdio_output@@AEAA_NQEAH@Z 0000000140041840 f i libucrtd:output.obj
 0001:00040940       ?parse_int_from_format_string@?$output_processor@_WV?$stream_output_adapter@_W@__crt_stdio_output@@V?$positional_parameter_base@_WV?$stream_output_adapter@_W@__crt_stdio_output@@@2@@__crt_stdio_output@@AEAA_NQEAH@Z 0000000140041940 f i libucrtd:output.obj
 0001:00040a40       ?parse_int_from_format_string@?$output_processor@_WV?$stream_output_adapter@_W@__crt_stdio_output@@V?$standard_base@_WV?$stream_output_adapter@_W@__crt_stdio_output@@@2@@__crt_stdio_output@@AEAA_NQEAH@Z 0000000140041a40 f i libucrtd:output.obj
 0001:00040b40       ?parse_int_from_format_string@?$output_processor@_WV?$string_output_adapter@_W@__crt_stdio_output@@V?$format_validation_base@_WV?$string_output_adapter@_W@__crt_stdio_output@@@2@@__crt_stdio_output@@AEAA_NQEAH@Z 0000000140041b40 f i libucrtd:output.obj
 0001:00040c40       ?parse_int_from_format_string@?$output_processor@_WV?$string_output_adapter@_W@__crt_stdio_output@@V?$positional_parameter_base@_WV?$string_output_adapter@_W@__crt_stdio_output@@@2@@__crt_stdio_output@@AEAA_NQEAH@Z 0000000140041c40 f i libucrtd:output.obj
 0001:00040d40       ?parse_int_from_format_string@?$output_processor@_WV?$string_output_adapter@_W@__crt_stdio_output@@V?$standard_base@_WV?$string_output_adapter@_W@__crt_stdio_output@@@2@@__crt_stdio_output@@AEAA_NQEAH@Z 0000000140041d40 f i libucrtd:output.obj
 0001:00040e40       ?process@?$output_processor@DV?$stream_output_adapter@D@__crt_stdio_output@@V?$format_validation_base@DV?$stream_output_adapter@D@__crt_stdio_output@@@2@@__crt_stdio_output@@QEAAHXZ 0000000140041e40 f i libucrtd:output.obj
 0001:00041200       ?process@?$output_processor@DV?$stream_output_adapter@D@__crt_stdio_output@@V?$positional_parameter_base@DV?$stream_output_adapter@D@__crt_stdio_output@@@2@@__crt_stdio_output@@QEAAHXZ 0000000140042200 f i libucrtd:output.obj
 0001:000415c0       ?process@?$output_processor@DV?$stream_output_adapter@D@__crt_stdio_output@@V?$standard_base@DV?$stream_output_adapter@D@__crt_stdio_output@@@2@@__crt_stdio_output@@QEAAHXZ 00000001400425c0 f i libucrtd:output.obj
 0001:00041980       ?process@?$output_processor@DV?$string_output_adapter@D@__crt_stdio_output@@V?$format_validation_base@DV?$string_output_adapter@D@__crt_stdio_output@@@2@@__crt_stdio_output@@QEAAHXZ 0000000140042980 f i libucrtd:output.obj
 0001:00041d40       ?process@?$output_processor@DV?$string_output_adapter@D@__crt_stdio_output@@V?$positional_parameter_base@DV?$string_output_adapter@D@__crt_stdio_output@@@2@@__crt_stdio_output@@QEAAHXZ 0000000140042d40 f i libucrtd:output.obj
 0001:00042100       ?process@?$output_processor@DV?$string_output_adapter@D@__crt_stdio_output@@V?$standard_base@DV?$string_output_adapter@D@__crt_stdio_output@@@2@@__crt_stdio_output@@QEAAHXZ 0000000140043100 f i libucrtd:output.obj
 0001:000424c0       ?process@?$output_processor@_WV?$stream_output_adapter@_W@__crt_stdio_output@@V?$format_validation_base@_WV?$stream_output_adapter@_W@__crt_stdio_output@@@2@@__crt_stdio_output@@QEAAHXZ 00000001400434c0 f i libucrtd:output.obj
 0001:00042880       ?process@?$output_processor@_WV?$stream_output_adapter@_W@__crt_stdio_output@@V?$positional_parameter_base@_WV?$stream_output_adapter@_W@__crt_stdio_output@@@2@@__crt_stdio_output@@QEAAHXZ 0000000140043880 f i libucrtd:output.obj
 0001:00042c40       ?process@?$output_processor@_WV?$stream_output_adapter@_W@__crt_stdio_output@@V?$standard_base@_WV?$stream_output_adapter@_W@__crt_stdio_output@@@2@@__crt_stdio_output@@QEAAHXZ 0000000140043c40 f i libucrtd:output.obj
 0001:00043000       ?process@?$output_processor@_WV?$string_output_adapter@_W@__crt_stdio_output@@V?$format_validation_base@_WV?$string_output_adapter@_W@__crt_stdio_output@@@2@@__crt_stdio_output@@QEAAHXZ 0000000140044000 f i libucrtd:output.obj
 0001:000433c0       ?process@?$output_processor@_WV?$string_output_adapter@_W@__crt_stdio_output@@V?$positional_parameter_base@_WV?$string_output_adapter@_W@__crt_stdio_output@@@2@@__crt_stdio_output@@QEAAHXZ 00000001400443c0 f i libucrtd:output.obj
 0001:00043780       ?process@?$output_processor@_WV?$string_output_adapter@_W@__crt_stdio_output@@V?$standard_base@_WV?$string_output_adapter@_W@__crt_stdio_output@@@2@@__crt_stdio_output@@QEAAHXZ 0000000140044780 f i libucrtd:output.obj
 0001:00043b40       ?public_stream@__crt_stdio_stream@@QEBAPEAU_iobuf@@XZ 0000000140044b40 f i libucrtd:output.obj
 0001:00043b50       ?restore_state@?$c_string_character_source@D@__crt_strtox@@QEAA_NQEBD@Z 0000000140044b50 f i libucrtd:output.obj
 0001:00043b70       ?restore_state@?$c_string_character_source@_W@__crt_strtox@@QEAA_NQEB_W@Z 0000000140044b70 f i libucrtd:output.obj
 0001:00043b90       ?save_state@?$c_string_character_source@D@__crt_strtox@@QEBAPEBDXZ 0000000140044b90 f i libucrtd:output.obj
 0001:00043ba0       ?save_state@?$c_string_character_source@_W@__crt_strtox@@QEBAPEB_WXZ 0000000140044ba0 f i libucrtd:output.obj
 0001:00043bb0       ?set@?$cached@H@__crt_cached_ptd_host@@QEAAHH@Z 0000000140044bb0 f i libucrtd:output.obj
 0001:00043be0       ?set_flag@?$output_processor@DV?$stream_output_adapter@D@__crt_stdio_output@@V?$format_validation_base@DV?$stream_output_adapter@D@__crt_stdio_output@@@2@@__crt_stdio_output@@AEAAXI@Z 0000000140044be0 f i libucrtd:output.obj
 0001:00043c00       ?set_flag@?$output_processor@DV?$stream_output_adapter@D@__crt_stdio_output@@V?$positional_parameter_base@DV?$stream_output_adapter@D@__crt_stdio_output@@@2@@__crt_stdio_output@@AEAAXI@Z 0000000140044c00 f i libucrtd:output.obj
 0001:00043c20       ?set_flag@?$output_processor@DV?$stream_output_adapter@D@__crt_stdio_output@@V?$standard_base@DV?$stream_output_adapter@D@__crt_stdio_output@@@2@@__crt_stdio_output@@AEAAXI@Z 0000000140044c20 f i libucrtd:output.obj
 0001:00043c40       ?set_flag@?$output_processor@DV?$string_output_adapter@D@__crt_stdio_output@@V?$format_validation_base@DV?$string_output_adapter@D@__crt_stdio_output@@@2@@__crt_stdio_output@@AEAAXI@Z 0000000140044c40 f i libucrtd:output.obj
 0001:00043c60       ?set_flag@?$output_processor@DV?$string_output_adapter@D@__crt_stdio_output@@V?$positional_parameter_base@DV?$string_output_adapter@D@__crt_stdio_output@@@2@@__crt_stdio_output@@AEAAXI@Z 0000000140044c60 f i libucrtd:output.obj
 0001:00043c80       ?set_flag@?$output_processor@DV?$string_output_adapter@D@__crt_stdio_output@@V?$standard_base@DV?$string_output_adapter@D@__crt_stdio_output@@@2@@__crt_stdio_output@@AEAAXI@Z 0000000140044c80 f i libucrtd:output.obj
 0001:00043ca0       ?set_flag@?$output_processor@_WV?$stream_output_adapter@_W@__crt_stdio_output@@V?$format_validation_base@_WV?$stream_output_adapter@_W@__crt_stdio_output@@@2@@__crt_stdio_output@@AEAAXI@Z 0000000140044ca0 f i libucrtd:output.obj
 0001:00043cc0       ?set_flag@?$output_processor@_WV?$stream_output_adapter@_W@__crt_stdio_output@@V?$positional_parameter_base@_WV?$stream_output_adapter@_W@__crt_stdio_output@@@2@@__crt_stdio_output@@AEAAXI@Z 0000000140044cc0 f i libucrtd:output.obj
 0001:00043ce0       ?set_flag@?$output_processor@_WV?$stream_output_adapter@_W@__crt_stdio_output@@V?$standard_base@_WV?$stream_output_adapter@_W@__crt_stdio_output@@@2@@__crt_stdio_output@@AEAAXI@Z 0000000140044ce0 f i libucrtd:output.obj
 0001:00043d00       ?set_flag@?$output_processor@_WV?$string_output_adapter@_W@__crt_stdio_output@@V?$format_validation_base@_WV?$string_output_adapter@_W@__crt_stdio_output@@@2@@__crt_stdio_output@@AEAAXI@Z 0000000140044d00 f i libucrtd:output.obj
 0001:00043d20       ?set_flag@?$output_processor@_WV?$string_output_adapter@_W@__crt_stdio_output@@V?$positional_parameter_base@_WV?$string_output_adapter@_W@__crt_stdio_output@@@2@@__crt_stdio_output@@AEAAXI@Z 0000000140044d20 f i libucrtd:output.obj
 0001:00043d40       ?set_flag@?$output_processor@_WV?$string_output_adapter@_W@__crt_stdio_output@@V?$standard_base@_WV?$string_output_adapter@_W@__crt_stdio_output@@@2@@__crt_stdio_output@@AEAAXI@Z 0000000140044d40 f i libucrtd:output.obj
 0001:00043d60       ?should_format@?$positional_parameter_base@DV?$stream_output_adapter@D@__crt_stdio_output@@@__crt_stdio_output@@IEAA_NXZ 0000000140044d60 f i libucrtd:output.obj
 0001:00043da0       ?should_format@?$positional_parameter_base@DV?$string_output_adapter@D@__crt_stdio_output@@@__crt_stdio_output@@IEAA_NXZ 0000000140044da0 f i libucrtd:output.obj
 0001:00043de0       ?should_format@?$positional_parameter_base@_WV?$stream_output_adapter@_W@__crt_stdio_output@@@__crt_stdio_output@@IEAA_NXZ 0000000140044de0 f i libucrtd:output.obj
 0001:00043e20       ?should_format@?$positional_parameter_base@_WV?$string_output_adapter@_W@__crt_stdio_output@@@__crt_stdio_output@@IEAA_NXZ 0000000140044e20 f i libucrtd:output.obj
 0001:00043e60       ?should_format@?$standard_base@DV?$stream_output_adapter@D@__crt_stdio_output@@@__crt_stdio_output@@IEAA_NXZ 0000000140044e60 f i libucrtd:output.obj
 0001:00043e70       ?should_format@?$standard_base@DV?$string_output_adapter@D@__crt_stdio_output@@@__crt_stdio_output@@IEAA_NXZ 0000000140044e70 f i libucrtd:output.obj
 0001:00043e80       ?should_format@?$standard_base@_WV?$stream_output_adapter@_W@__crt_stdio_output@@@__crt_stdio_output@@IEAA_NXZ 0000000140044e80 f i libucrtd:output.obj
 0001:00043e90       ?should_format@?$standard_base@_WV?$string_output_adapter@_W@__crt_stdio_output@@@__crt_stdio_output@@IEAA_NXZ 0000000140044e90 f i libucrtd:output.obj
 0001:00043ea0       ?should_skip_normal_state_processing@?$positional_parameter_base@DV?$stream_output_adapter@D@__crt_stdio_output@@@__crt_stdio_output@@IEAA_NXZ 0000000140044ea0 f i libucrtd:output.obj
 0001:00043ef0       ?should_skip_normal_state_processing@?$positional_parameter_base@DV?$string_output_adapter@D@__crt_stdio_output@@@__crt_stdio_output@@IEAA_NXZ 0000000140044ef0 f i libucrtd:output.obj
 0001:00043f40       ?should_skip_normal_state_processing@?$positional_parameter_base@_WV?$stream_output_adapter@_W@__crt_stdio_output@@@__crt_stdio_output@@IEAA_NXZ 0000000140044f40 f i libucrtd:output.obj
 0001:00043f90       ?should_skip_normal_state_processing@?$positional_parameter_base@_WV?$string_output_adapter@_W@__crt_stdio_output@@@__crt_stdio_output@@IEAA_NXZ 0000000140044f90 f i libucrtd:output.obj
 0001:00043fe0       ?should_skip_normal_state_processing@?$standard_base@DV?$stream_output_adapter@D@__crt_stdio_output@@@__crt_stdio_output@@IEAA_NXZ 0000000140044fe0 f i libucrtd:output.obj
 0001:00043ff0       ?should_skip_normal_state_processing@?$standard_base@DV?$string_output_adapter@D@__crt_stdio_output@@@__crt_stdio_output@@IEAA_NXZ 0000000140044ff0 f i libucrtd:output.obj
 0001:00044000       ?should_skip_normal_state_processing@?$standard_base@_WV?$stream_output_adapter@_W@__crt_stdio_output@@@__crt_stdio_output@@IEAA_NXZ 0000000140045000 f i libucrtd:output.obj
 0001:00044010       ?should_skip_normal_state_processing@?$standard_base@_WV?$string_output_adapter@_W@__crt_stdio_output@@@__crt_stdio_output@@IEAA_NXZ 0000000140045010 f i libucrtd:output.obj
 0001:00044020       ?should_skip_type_state_output@?$positional_parameter_base@DV?$stream_output_adapter@D@__crt_stdio_output@@@__crt_stdio_output@@IEBA_NXZ 0000000140045020 f i libucrtd:output.obj
 0001:00044060       ?should_skip_type_state_output@?$positional_parameter_base@DV?$string_output_adapter@D@__crt_stdio_output@@@__crt_stdio_output@@IEBA_NXZ 0000000140045060 f i libucrtd:output.obj
 0001:000440a0       ?should_skip_type_state_output@?$positional_parameter_base@_WV?$stream_output_adapter@_W@__crt_stdio_output@@@__crt_stdio_output@@IEBA_NXZ 00000001400450a0 f i libucrtd:output.obj
 0001:000440e0       ?should_skip_type_state_output@?$positional_parameter_base@_WV?$string_output_adapter@_W@__crt_stdio_output@@@__crt_stdio_output@@IEBA_NXZ 00000001400450e0 f i libucrtd:output.obj
 0001:00044120       ?should_skip_type_state_output@?$standard_base@DV?$stream_output_adapter@D@__crt_stdio_output@@@__crt_stdio_output@@IEBA_NXZ 0000000140045120 f i libucrtd:output.obj
 0001:00044130       ?should_skip_type_state_output@?$standard_base@DV?$string_output_adapter@D@__crt_stdio_output@@@__crt_stdio_output@@IEBA_NXZ 0000000140045130 f i libucrtd:output.obj
 0001:00044140       ?should_skip_type_state_output@?$standard_base@_WV?$stream_output_adapter@_W@__crt_stdio_output@@@__crt_stdio_output@@IEBA_NXZ 0000000140045140 f i libucrtd:output.obj
 0001:00044150       ?should_skip_type_state_output@?$standard_base@_WV?$string_output_adapter@_W@__crt_stdio_output@@@__crt_stdio_output@@IEBA_NXZ 0000000140045150 f i libucrtd:output.obj
 0001:00044160       ?state_case_dot@?$output_processor@DV?$stream_output_adapter@D@__crt_stdio_output@@V?$format_validation_base@DV?$stream_output_adapter@D@__crt_stdio_output@@@2@@__crt_stdio_output@@AEAA_NXZ 0000000140045160 f i libucrtd:output.obj
 0001:00044180       ?state_case_dot@?$output_processor@DV?$stream_output_adapter@D@__crt_stdio_output@@V?$positional_parameter_base@DV?$stream_output_adapter@D@__crt_stdio_output@@@2@@__crt_stdio_output@@AEAA_NXZ 0000000140045180 f i libucrtd:output.obj
 0001:000441a0       ?state_case_dot@?$output_processor@DV?$stream_output_adapter@D@__crt_stdio_output@@V?$standard_base@DV?$stream_output_adapter@D@__crt_stdio_output@@@2@@__crt_stdio_output@@AEAA_NXZ 00000001400451a0 f i libucrtd:output.obj
 0001:000441c0       ?state_case_dot@?$output_processor@DV?$string_output_adapter@D@__crt_stdio_output@@V?$format_validation_base@DV?$string_output_adapter@D@__crt_stdio_output@@@2@@__crt_stdio_output@@AEAA_NXZ 00000001400451c0 f i libucrtd:output.obj
 0001:000441e0       ?state_case_dot@?$output_processor@DV?$string_output_adapter@D@__crt_stdio_output@@V?$positional_parameter_base@DV?$string_output_adapter@D@__crt_stdio_output@@@2@@__crt_stdio_output@@AEAA_NXZ 00000001400451e0 f i libucrtd:output.obj
 0001:00044200       ?state_case_dot@?$output_processor@DV?$string_output_adapter@D@__crt_stdio_output@@V?$standard_base@DV?$string_output_adapter@D@__crt_stdio_output@@@2@@__crt_stdio_output@@AEAA_NXZ 0000000140045200 f i libucrtd:output.obj
 0001:00044220       ?state_case_dot@?$output_processor@_WV?$stream_output_adapter@_W@__crt_stdio_output@@V?$format_validation_base@_WV?$stream_output_adapter@_W@__crt_stdio_output@@@2@@__crt_stdio_output@@AEAA_NXZ 0000000140045220 f i libucrtd:output.obj
 0001:00044240       ?state_case_dot@?$output_processor@_WV?$stream_output_adapter@_W@__crt_stdio_output@@V?$positional_parameter_base@_WV?$stream_output_adapter@_W@__crt_stdio_output@@@2@@__crt_stdio_output@@AEAA_NXZ 0000000140045240 f i libucrtd:output.obj
 0001:00044260       ?state_case_dot@?$output_processor@_WV?$stream_output_adapter@_W@__crt_stdio_output@@V?$standard_base@_WV?$stream_output_adapter@_W@__crt_stdio_output@@@2@@__crt_stdio_output@@AEAA_NXZ 0000000140045260 f i libucrtd:output.obj
 0001:00044280       ?state_case_dot@?$output_processor@_WV?$string_output_adapter@_W@__crt_stdio_output@@V?$format_validation_base@_WV?$string_output_adapter@_W@__crt_stdio_output@@@2@@__crt_stdio_output@@AEAA_NXZ 0000000140045280 f i libucrtd:output.obj
 0001:000442a0       ?state_case_dot@?$output_processor@_WV?$string_output_adapter@_W@__crt_stdio_output@@V?$positional_parameter_base@_WV?$string_output_adapter@_W@__crt_stdio_output@@@2@@__crt_stdio_output@@AEAA_NXZ 00000001400452a0 f i libucrtd:output.obj
 0001:000442c0       ?state_case_dot@?$output_processor@_WV?$string_output_adapter@_W@__crt_stdio_output@@V?$standard_base@_WV?$string_output_adapter@_W@__crt_stdio_output@@@2@@__crt_stdio_output@@AEAA_NXZ 00000001400452c0 f i libucrtd:output.obj
 0001:000442e0       ?state_case_flag@?$output_processor@DV?$stream_output_adapter@D@__crt_stdio_output@@V?$format_validation_base@DV?$stream_output_adapter@D@__crt_stdio_output@@@2@@__crt_stdio_output@@AEAA_NXZ 00000001400452e0 f i libucrtd:output.obj
 0001:00044380       ?state_case_flag@?$output_processor@DV?$stream_output_adapter@D@__crt_stdio_output@@V?$positional_parameter_base@DV?$stream_output_adapter@D@__crt_stdio_output@@@2@@__crt_stdio_output@@AEAA_NXZ 0000000140045380 f i libucrtd:output.obj
 0001:00044420       ?state_case_flag@?$output_processor@DV?$stream_output_adapter@D@__crt_stdio_output@@V?$standard_base@DV?$stream_output_adapter@D@__crt_stdio_output@@@2@@__crt_stdio_output@@AEAA_NXZ 0000000140045420 f i libucrtd:output.obj
 0001:000444c0       ?state_case_flag@?$output_processor@DV?$string_output_adapter@D@__crt_stdio_output@@V?$format_validation_base@DV?$string_output_adapter@D@__crt_stdio_output@@@2@@__crt_stdio_output@@AEAA_NXZ 00000001400454c0 f i libucrtd:output.obj
 0001:00044560       ?state_case_flag@?$output_processor@DV?$string_output_adapter@D@__crt_stdio_output@@V?$positional_parameter_base@DV?$string_output_adapter@D@__crt_stdio_output@@@2@@__crt_stdio_output@@AEAA_NXZ 0000000140045560 f i libucrtd:output.obj
 0001:00044600       ?state_case_flag@?$output_processor@DV?$string_output_adapter@D@__crt_stdio_output@@V?$standard_base@DV?$string_output_adapter@D@__crt_stdio_output@@@2@@__crt_stdio_output@@AEAA_NXZ 0000000140045600 f i libucrtd:output.obj
 0001:000446a0       ?state_case_flag@?$output_processor@_WV?$stream_output_adapter@_W@__crt_stdio_output@@V?$format_validation_base@_WV?$stream_output_adapter@_W@__crt_stdio_output@@@2@@__crt_stdio_output@@AEAA_NXZ 00000001400456a0 f i libucrtd:output.obj
 0001:00044740       ?state_case_flag@?$output_processor@_WV?$stream_output_adapter@_W@__crt_stdio_output@@V?$positional_parameter_base@_WV?$stream_output_adapter@_W@__crt_stdio_output@@@2@@__crt_stdio_output@@AEAA_NXZ 0000000140045740 f i libucrtd:output.obj
 0001:000447e0       ?state_case_flag@?$output_processor@_WV?$stream_output_adapter@_W@__crt_stdio_output@@V?$standard_base@_WV?$stream_output_adapter@_W@__crt_stdio_output@@@2@@__crt_stdio_output@@AEAA_NXZ 00000001400457e0 f i libucrtd:output.obj
 0001:00044880       ?state_case_flag@?$output_processor@_WV?$string_output_adapter@_W@__crt_stdio_output@@V?$format_validation_base@_WV?$string_output_adapter@_W@__crt_stdio_output@@@2@@__crt_stdio_output@@AEAA_NXZ 0000000140045880 f i libucrtd:output.obj
 0001:00044920       ?state_case_flag@?$output_processor@_WV?$string_output_adapter@_W@__crt_stdio_output@@V?$positional_parameter_base@_WV?$string_output_adapter@_W@__crt_stdio_output@@@2@@__crt_stdio_output@@AEAA_NXZ 0000000140045920 f i libucrtd:output.obj
 0001:000449c0       ?state_case_flag@?$output_processor@_WV?$string_output_adapter@_W@__crt_stdio_output@@V?$standard_base@_WV?$string_output_adapter@_W@__crt_stdio_output@@@2@@__crt_stdio_output@@AEAA_NXZ 00000001400459c0 f i libucrtd:output.obj
 0001:00044a60       ?state_case_normal@?$output_processor@DV?$stream_output_adapter@D@__crt_stdio_output@@V?$format_validation_base@DV?$stream_output_adapter@D@__crt_stdio_output@@@2@@__crt_stdio_output@@AEAA_NXZ 0000000140045a60 f i libucrtd:output.obj
 0001:00044b60       ?state_case_normal@?$output_processor@DV?$stream_output_adapter@D@__crt_stdio_output@@V?$positional_parameter_base@DV?$stream_output_adapter@D@__crt_stdio_output@@@2@@__crt_stdio_output@@AEAA_NXZ 0000000140045b60 f i libucrtd:output.obj
 0001:00044c60       ?state_case_normal@?$output_processor@DV?$stream_output_adapter@D@__crt_stdio_output@@V?$standard_base@DV?$stream_output_adapter@D@__crt_stdio_output@@@2@@__crt_stdio_output@@AEAA_NXZ 0000000140045c60 f i libucrtd:output.obj
 0001:00044d60       ?state_case_normal@?$output_processor@DV?$string_output_adapter@D@__crt_stdio_output@@V?$format_validation_base@DV?$string_output_adapter@D@__crt_stdio_output@@@2@@__crt_stdio_output@@AEAA_NXZ 0000000140045d60 f i libucrtd:output.obj
 0001:00044e60       ?state_case_normal@?$output_processor@DV?$string_output_adapter@D@__crt_stdio_output@@V?$positional_parameter_base@DV?$string_output_adapter@D@__crt_stdio_output@@@2@@__crt_stdio_output@@AEAA_NXZ 0000000140045e60 f i libucrtd:output.obj
 0001:00044f60       ?state_case_normal@?$output_processor@DV?$string_output_adapter@D@__crt_stdio_output@@V?$standard_base@DV?$string_output_adapter@D@__crt_stdio_output@@@2@@__crt_stdio_output@@AEAA_NXZ 0000000140045f60 f i libucrtd:output.obj
 0001:00045060       ?state_case_normal@?$output_processor@_WV?$stream_output_adapter@_W@__crt_stdio_output@@V?$format_validation_base@_WV?$stream_output_adapter@_W@__crt_stdio_output@@@2@@__crt_stdio_output@@AEAA_NXZ 0000000140046060 f i libucrtd:output.obj
 0001:00045160       ?state_case_normal@?$output_processor@_WV?$stream_output_adapter@_W@__crt_stdio_output@@V?$positional_parameter_base@_WV?$stream_output_adapter@_W@__crt_stdio_output@@@2@@__crt_stdio_output@@AEAA_NXZ 0000000140046160 f i libucrtd:output.obj
 0001:00045260       ?state_case_normal@?$output_processor@_WV?$stream_output_adapter@_W@__crt_stdio_output@@V?$standard_base@_WV?$stream_output_adapter@_W@__crt_stdio_output@@@2@@__crt_stdio_output@@AEAA_NXZ 0000000140046260 f i libucrtd:output.obj
 0001:00045360       ?state_case_normal@?$output_processor@_WV?$string_output_adapter@_W@__crt_stdio_output@@V?$format_validation_base@_WV?$string_output_adapter@_W@__crt_stdio_output@@@2@@__crt_stdio_output@@AEAA_NXZ 0000000140046360 f i libucrtd:output.obj
 0001:00045460       ?state_case_normal@?$output_processor@_WV?$string_output_adapter@_W@__crt_stdio_output@@V?$positional_parameter_base@_WV?$string_output_adapter@_W@__crt_stdio_output@@@2@@__crt_stdio_output@@AEAA_NXZ 0000000140046460 f i libucrtd:output.obj
 0001:00045560       ?state_case_normal@?$output_processor@_WV?$string_output_adapter@_W@__crt_stdio_output@@V?$standard_base@_WV?$string_output_adapter@_W@__crt_stdio_output@@@2@@__crt_stdio_output@@AEAA_NXZ 0000000140046560 f i libucrtd:output.obj
 0001:00045660       ?state_case_normal_common@?$output_processor@DV?$stream_output_adapter@D@__crt_stdio_output@@V?$format_validation_base@DV?$stream_output_adapter@D@__crt_stdio_output@@@2@@__crt_stdio_output@@AEAA_NXZ 0000000140046660 f i libucrtd:output.obj
 0001:000456c0       ?state_case_normal_common@?$output_processor@DV?$stream_output_adapter@D@__crt_stdio_output@@V?$positional_parameter_base@DV?$stream_output_adapter@D@__crt_stdio_output@@@2@@__crt_stdio_output@@AEAA_NXZ 00000001400466c0 f i libucrtd:output.obj
 0001:00045720       ?state_case_normal_common@?$output_processor@DV?$stream_output_adapter@D@__crt_stdio_output@@V?$standard_base@DV?$stream_output_adapter@D@__crt_stdio_output@@@2@@__crt_stdio_output@@AEAA_NXZ 0000000140046720 f i libucrtd:output.obj
 0001:00045780       ?state_case_normal_common@?$output_processor@DV?$string_output_adapter@D@__crt_stdio_output@@V?$format_validation_base@DV?$string_output_adapter@D@__crt_stdio_output@@@2@@__crt_stdio_output@@AEAA_NXZ 0000000140046780 f i libucrtd:output.obj
 0001:000457e0       ?state_case_normal_common@?$output_processor@DV?$string_output_adapter@D@__crt_stdio_output@@V?$positional_parameter_base@DV?$string_output_adapter@D@__crt_stdio_output@@@2@@__crt_stdio_output@@AEAA_NXZ 00000001400467e0 f i libucrtd:output.obj
 0001:00045840       ?state_case_normal_common@?$output_processor@DV?$string_output_adapter@D@__crt_stdio_output@@V?$standard_base@DV?$string_output_adapter@D@__crt_stdio_output@@@2@@__crt_stdio_output@@AEAA_NXZ 0000000140046840 f i libucrtd:output.obj
 0001:000458a0       ?state_case_normal_common@?$output_processor@_WV?$stream_output_adapter@_W@__crt_stdio_output@@V?$format_validation_base@_WV?$stream_output_adapter@_W@__crt_stdio_output@@@2@@__crt_stdio_output@@AEAA_NXZ 00000001400468a0 f i libucrtd:output.obj
 0001:00045900       ?state_case_normal_common@?$output_processor@_WV?$stream_output_adapter@_W@__crt_stdio_output@@V?$positional_parameter_base@_WV?$stream_output_adapter@_W@__crt_stdio_output@@@2@@__crt_stdio_output@@AEAA_NXZ 0000000140046900 f i libucrtd:output.obj
 0001:00045960       ?state_case_normal_common@?$output_processor@_WV?$stream_output_adapter@_W@__crt_stdio_output@@V?$standard_base@_WV?$stream_output_adapter@_W@__crt_stdio_output@@@2@@__crt_stdio_output@@AEAA_NXZ 0000000140046960 f i libucrtd:output.obj
 0001:000459c0       ?state_case_normal_common@?$output_processor@_WV?$string_output_adapter@_W@__crt_stdio_output@@V?$format_validation_base@_WV?$string_output_adapter@_W@__crt_stdio_output@@@2@@__crt_stdio_output@@AEAA_NXZ 00000001400469c0 f i libucrtd:output.obj
 0001:00045a20       ?state_case_normal_common@?$output_processor@_WV?$string_output_adapter@_W@__crt_stdio_output@@V?$positional_parameter_base@_WV?$string_output_adapter@_W@__crt_stdio_output@@@2@@__crt_stdio_output@@AEAA_NXZ 0000000140046a20 f i libucrtd:output.obj
 0001:00045a80       ?state_case_normal_common@?$output_processor@_WV?$string_output_adapter@_W@__crt_stdio_output@@V?$standard_base@_WV?$string_output_adapter@_W@__crt_stdio_output@@@2@@__crt_stdio_output@@AEAA_NXZ 0000000140046a80 f i libucrtd:output.obj
 0001:00045ae0       ?state_case_normal_tchar@?$output_processor@DV?$stream_output_adapter@D@__crt_stdio_output@@V?$format_validation_base@DV?$stream_output_adapter@D@__crt_stdio_output@@@2@@__crt_stdio_output@@AEAA_ND@Z 0000000140046ae0 f i libucrtd:output.obj
 0001:00045c70       ?state_case_normal_tchar@?$output_processor@DV?$stream_output_adapter@D@__crt_stdio_output@@V?$positional_parameter_base@DV?$stream_output_adapter@D@__crt_stdio_output@@@2@@__crt_stdio_output@@AEAA_ND@Z 0000000140046c70 f i libucrtd:output.obj
 0001:00045e00       ?state_case_normal_tchar@?$output_processor@DV?$stream_output_adapter@D@__crt_stdio_output@@V?$standard_base@DV?$stream_output_adapter@D@__crt_stdio_output@@@2@@__crt_stdio_output@@AEAA_ND@Z 0000000140046e00 f i libucrtd:output.obj
 0001:00045f90       ?state_case_normal_tchar@?$output_processor@DV?$string_output_adapter@D@__crt_stdio_output@@V?$format_validation_base@DV?$string_output_adapter@D@__crt_stdio_output@@@2@@__crt_stdio_output@@AEAA_ND@Z 0000000140046f90 f i libucrtd:output.obj
 0001:00046120       ?state_case_normal_tchar@?$output_processor@DV?$string_output_adapter@D@__crt_stdio_output@@V?$positional_parameter_base@DV?$string_output_adapter@D@__crt_stdio_output@@@2@@__crt_stdio_output@@AEAA_ND@Z 0000000140047120 f i libucrtd:output.obj
 0001:000462b0       ?state_case_normal_tchar@?$output_processor@DV?$string_output_adapter@D@__crt_stdio_output@@V?$standard_base@DV?$string_output_adapter@D@__crt_stdio_output@@@2@@__crt_stdio_output@@AEAA_ND@Z 00000001400472b0 f i libucrtd:output.obj
 0001:00046440       ?state_case_normal_tchar@?$output_processor@_WV?$stream_output_adapter@_W@__crt_stdio_output@@V?$format_validation_base@_WV?$stream_output_adapter@_W@__crt_stdio_output@@@2@@__crt_stdio_output@@AEAA_N_W@Z 0000000140047440 f i libucrtd:output.obj
 0001:00046460       ?state_case_normal_tchar@?$output_processor@_WV?$stream_output_adapter@_W@__crt_stdio_output@@V?$positional_parameter_base@_WV?$stream_output_adapter@_W@__crt_stdio_output@@@2@@__crt_stdio_output@@AEAA_N_W@Z 0000000140047460 f i libucrtd:output.obj
 0001:00046480       ?state_case_normal_tchar@?$output_processor@_WV?$stream_output_adapter@_W@__crt_stdio_output@@V?$standard_base@_WV?$stream_output_adapter@_W@__crt_stdio_output@@@2@@__crt_stdio_output@@AEAA_N_W@Z 0000000140047480 f i libucrtd:output.obj
 0001:000464a0       ?state_case_normal_tchar@?$output_processor@_WV?$string_output_adapter@_W@__crt_stdio_output@@V?$format_validation_base@_WV?$string_output_adapter@_W@__crt_stdio_output@@@2@@__crt_stdio_output@@AEAA_N_W@Z 00000001400474a0 f i libucrtd:output.obj
 0001:000464c0       ?state_case_normal_tchar@?$output_processor@_WV?$string_output_adapter@_W@__crt_stdio_output@@V?$positional_parameter_base@_WV?$string_output_adapter@_W@__crt_stdio_output@@@2@@__crt_stdio_output@@AEAA_N_W@Z 00000001400474c0 f i libucrtd:output.obj
 0001:000464e0       ?state_case_normal_tchar@?$output_processor@_WV?$string_output_adapter@_W@__crt_stdio_output@@V?$standard_base@_WV?$string_output_adapter@_W@__crt_stdio_output@@@2@@__crt_stdio_output@@AEAA_N_W@Z 00000001400474e0 f i libucrtd:output.obj
 0001:00046500       ?state_case_percent@?$output_processor@DV?$stream_output_adapter@D@__crt_stdio_output@@V?$format_validation_base@DV?$stream_output_adapter@D@__crt_stdio_output@@@2@@__crt_stdio_output@@AEAA_NXZ 0000000140047500 f i libucrtd:output.obj
 0001:00046550       ?state_case_percent@?$output_processor@DV?$stream_output_adapter@D@__crt_stdio_output@@V?$positional_parameter_base@DV?$stream_output_adapter@D@__crt_stdio_output@@@2@@__crt_stdio_output@@AEAA_NXZ 0000000140047550 f i libucrtd:output.obj
 0001:000465a0       ?state_case_percent@?$output_processor@DV?$stream_output_adapter@D@__crt_stdio_output@@V?$standard_base@DV?$stream_output_adapter@D@__crt_stdio_output@@@2@@__crt_stdio_output@@AEAA_NXZ 00000001400475a0 f i libucrtd:output.obj
 0001:000465f0       ?state_case_percent@?$output_processor@DV?$string_output_adapter@D@__crt_stdio_output@@V?$format_validation_base@DV?$string_output_adapter@D@__crt_stdio_output@@@2@@__crt_stdio_output@@AEAA_NXZ 00000001400475f0 f i libucrtd:output.obj
 0001:00046640       ?state_case_percent@?$output_processor@DV?$string_output_adapter@D@__crt_stdio_output@@V?$positional_parameter_base@DV?$string_output_adapter@D@__crt_stdio_output@@@2@@__crt_stdio_output@@AEAA_NXZ 0000000140047640 f i libucrtd:output.obj
 0001:00046690       ?state_case_percent@?$output_processor@DV?$string_output_adapter@D@__crt_stdio_output@@V?$standard_base@DV?$string_output_adapter@D@__crt_stdio_output@@@2@@__crt_stdio_output@@AEAA_NXZ 0000000140047690 f i libucrtd:output.obj
 0001:000466e0       ?state_case_percent@?$output_processor@_WV?$stream_output_adapter@_W@__crt_stdio_output@@V?$format_validation_base@_WV?$stream_output_adapter@_W@__crt_stdio_output@@@2@@__crt_stdio_output@@AEAA_NXZ 00000001400476e0 f i libucrtd:output.obj
 0001:00046730       ?state_case_percent@?$output_processor@_WV?$stream_output_adapter@_W@__crt_stdio_output@@V?$positional_parameter_base@_WV?$stream_output_adapter@_W@__crt_stdio_output@@@2@@__crt_stdio_output@@AEAA_NXZ 0000000140047730 f i libucrtd:output.obj
 0001:00046780       ?state_case_percent@?$output_processor@_WV?$stream_output_adapter@_W@__crt_stdio_output@@V?$standard_base@_WV?$stream_output_adapter@_W@__crt_stdio_output@@@2@@__crt_stdio_output@@AEAA_NXZ 0000000140047780 f i libucrtd:output.obj
 0001:000467d0       ?state_case_percent@?$output_processor@_WV?$string_output_adapter@_W@__crt_stdio_output@@V?$format_validation_base@_WV?$string_output_adapter@_W@__crt_stdio_output@@@2@@__crt_stdio_output@@AEAA_NXZ 00000001400477d0 f i libucrtd:output.obj
 0001:00046820       ?state_case_percent@?$output_processor@_WV?$string_output_adapter@_W@__crt_stdio_output@@V?$positional_parameter_base@_WV?$string_output_adapter@_W@__crt_stdio_output@@@2@@__crt_stdio_output@@AEAA_NXZ 0000000140047820 f i libucrtd:output.obj
 0001:00046870       ?state_case_percent@?$output_processor@_WV?$string_output_adapter@_W@__crt_stdio_output@@V?$standard_base@_WV?$string_output_adapter@_W@__crt_stdio_output@@@2@@__crt_stdio_output@@AEAA_NXZ 0000000140047870 f i libucrtd:output.obj
 0001:000468c0       ?state_case_precision@?$output_processor@DV?$stream_output_adapter@D@__crt_stdio_output@@V?$format_validation_base@DV?$stream_output_adapter@D@__crt_stdio_output@@@2@@__crt_stdio_output@@AEAA_NXZ 00000001400478c0 f i libucrtd:output.obj
 0001:00046940       ?state_case_precision@?$output_processor@DV?$stream_output_adapter@D@__crt_stdio_output@@V?$positional_parameter_base@DV?$stream_output_adapter@D@__crt_stdio_output@@@2@@__crt_stdio_output@@AEAA_NXZ 0000000140047940 f i libucrtd:output.obj
 0001:000469c0       ?state_case_precision@?$output_processor@DV?$stream_output_adapter@D@__crt_stdio_output@@V?$standard_base@DV?$stream_output_adapter@D@__crt_stdio_output@@@2@@__crt_stdio_output@@AEAA_NXZ 00000001400479c0 f i libucrtd:output.obj
 0001:00046a40       ?state_case_precision@?$output_processor@DV?$string_output_adapter@D@__crt_stdio_output@@V?$format_validation_base@DV?$string_output_adapter@D@__crt_stdio_output@@@2@@__crt_stdio_output@@AEAA_NXZ 0000000140047a40 f i libucrtd:output.obj
 0001:00046ac0       ?state_case_precision@?$output_processor@DV?$string_output_adapter@D@__crt_stdio_output@@V?$positional_parameter_base@DV?$string_output_adapter@D@__crt_stdio_output@@@2@@__crt_stdio_output@@AEAA_NXZ 0000000140047ac0 f i libucrtd:output.obj
 0001:00046b40       ?state_case_precision@?$output_processor@DV?$string_output_adapter@D@__crt_stdio_output@@V?$standard_base@DV?$string_output_adapter@D@__crt_stdio_output@@@2@@__crt_stdio_output@@AEAA_NXZ 0000000140047b40 f i libucrtd:output.obj
 0001:00046bc0       ?state_case_precision@?$output_processor@_WV?$stream_output_adapter@_W@__crt_stdio_output@@V?$format_validation_base@_WV?$stream_output_adapter@_W@__crt_stdio_output@@@2@@__crt_stdio_output@@AEAA_NXZ 0000000140047bc0 f i libucrtd:output.obj
 0001:00046c40       ?state_case_precision@?$output_processor@_WV?$stream_output_adapter@_W@__crt_stdio_output@@V?$positional_parameter_base@_WV?$stream_output_adapter@_W@__crt_stdio_output@@@2@@__crt_stdio_output@@AEAA_NXZ 0000000140047c40 f i libucrtd:output.obj
 0001:00046cc0       ?state_case_precision@?$output_processor@_WV?$stream_output_adapter@_W@__crt_stdio_output@@V?$standard_base@_WV?$stream_output_adapter@_W@__crt_stdio_output@@@2@@__crt_stdio_output@@AEAA_NXZ 0000000140047cc0 f i libucrtd:output.obj
 0001:00046d40       ?state_case_precision@?$output_processor@_WV?$string_output_adapter@_W@__crt_stdio_output@@V?$format_validation_base@_WV?$string_output_adapter@_W@__crt_stdio_output@@@2@@__crt_stdio_output@@AEAA_NXZ 0000000140047d40 f i libucrtd:output.obj
 0001:00046dc0       ?state_case_precision@?$output_processor@_WV?$string_output_adapter@_W@__crt_stdio_output@@V?$positional_parameter_base@_WV?$string_output_adapter@_W@__crt_stdio_output@@@2@@__crt_stdio_output@@AEAA_NXZ 0000000140047dc0 f i libucrtd:output.obj
 0001:00046e40       ?state_case_precision@?$output_processor@_WV?$string_output_adapter@_W@__crt_stdio_output@@V?$standard_base@_WV?$string_output_adapter@_W@__crt_stdio_output@@@2@@__crt_stdio_output@@AEAA_NXZ 0000000140047e40 f i libucrtd:output.obj
 0001:00046ec0       ?state_case_size@?$output_processor@DV?$stream_output_adapter@D@__crt_stdio_output@@V?$format_validation_base@DV?$stream_output_adapter@D@__crt_stdio_output@@@2@@__crt_stdio_output@@AEAA_NXZ 0000000140047ec0 f i libucrtd:output.obj
 0001:00047380       ?state_case_size@?$output_processor@DV?$stream_output_adapter@D@__crt_stdio_output@@V?$positional_parameter_base@DV?$stream_output_adapter@D@__crt_stdio_output@@@2@@__crt_stdio_output@@AEAA_NXZ 0000000140048380 f i libucrtd:output.obj
 0001:00047840       ?state_case_size@?$output_processor@DV?$stream_output_adapter@D@__crt_stdio_output@@V?$standard_base@DV?$stream_output_adapter@D@__crt_stdio_output@@@2@@__crt_stdio_output@@AEAA_NXZ 0000000140048840 f i libucrtd:output.obj
 0001:00047d00       ?state_case_size@?$output_processor@DV?$string_output_adapter@D@__crt_stdio_output@@V?$format_validation_base@DV?$string_output_adapter@D@__crt_stdio_output@@@2@@__crt_stdio_output@@AEAA_NXZ 0000000140048d00 f i libucrtd:output.obj
 0001:000481c0       ?state_case_size@?$output_processor@DV?$string_output_adapter@D@__crt_stdio_output@@V?$positional_parameter_base@DV?$string_output_adapter@D@__crt_stdio_output@@@2@@__crt_stdio_output@@AEAA_NXZ 00000001400491c0 f i libucrtd:output.obj
 0001:00048680       ?state_case_size@?$output_processor@DV?$string_output_adapter@D@__crt_stdio_output@@V?$standard_base@DV?$string_output_adapter@D@__crt_stdio_output@@@2@@__crt_stdio_output@@AEAA_NXZ 0000000140049680 f i libucrtd:output.obj
 0001:00048b40       ?state_case_size@?$output_processor@_WV?$stream_output_adapter@_W@__crt_stdio_output@@V?$format_validation_base@_WV?$stream_output_adapter@_W@__crt_stdio_output@@@2@@__crt_stdio_output@@AEAA_NXZ 0000000140049b40 f i libucrtd:output.obj
 0001:00049000       ?state_case_size@?$output_processor@_WV?$stream_output_adapter@_W@__crt_stdio_output@@V?$positional_parameter_base@_WV?$stream_output_adapter@_W@__crt_stdio_output@@@2@@__crt_stdio_output@@AEAA_NXZ 000000014004a000 f i libucrtd:output.obj
 0001:000494c0       ?state_case_size@?$output_processor@_WV?$stream_output_adapter@_W@__crt_stdio_output@@V?$standard_base@_WV?$stream_output_adapter@_W@__crt_stdio_output@@@2@@__crt_stdio_output@@AEAA_NXZ 000000014004a4c0 f i libucrtd:output.obj
 0001:00049980       ?state_case_size@?$output_processor@_WV?$string_output_adapter@_W@__crt_stdio_output@@V?$format_validation_base@_WV?$string_output_adapter@_W@__crt_stdio_output@@@2@@__crt_stdio_output@@AEAA_NXZ 000000014004a980 f i libucrtd:output.obj
 0001:00049e40       ?state_case_size@?$output_processor@_WV?$string_output_adapter@_W@__crt_stdio_output@@V?$positional_parameter_base@_WV?$string_output_adapter@_W@__crt_stdio_output@@@2@@__crt_stdio_output@@AEAA_NXZ 000000014004ae40 f i libucrtd:output.obj
 0001:0004a300       ?state_case_size@?$output_processor@_WV?$string_output_adapter@_W@__crt_stdio_output@@V?$standard_base@_WV?$string_output_adapter@_W@__crt_stdio_output@@@2@@__crt_stdio_output@@AEAA_NXZ 000000014004b300 f i libucrtd:output.obj
 0001:0004a7c0       ?state_case_type@?$output_processor@DV?$stream_output_adapter@D@__crt_stdio_output@@V?$format_validation_base@DV?$stream_output_adapter@D@__crt_stdio_output@@@2@@__crt_stdio_output@@AEAA_NXZ 000000014004b7c0 f i libucrtd:output.obj
 0001:0004ac80       ?state_case_type@?$output_processor@DV?$stream_output_adapter@D@__crt_stdio_output@@V?$positional_parameter_base@DV?$stream_output_adapter@D@__crt_stdio_output@@@2@@__crt_stdio_output@@AEAA_NXZ 000000014004bc80 f i libucrtd:output.obj
 0001:0004b140       ?state_case_type@?$output_processor@DV?$stream_output_adapter@D@__crt_stdio_output@@V?$standard_base@DV?$stream_output_adapter@D@__crt_stdio_output@@@2@@__crt_stdio_output@@AEAA_NXZ 000000014004c140 f i libucrtd:output.obj
 0001:0004b600       ?state_case_type@?$output_processor@DV?$string_output_adapter@D@__crt_stdio_output@@V?$format_validation_base@DV?$string_output_adapter@D@__crt_stdio_output@@@2@@__crt_stdio_output@@AEAA_NXZ 000000014004c600 f i libucrtd:output.obj
 0001:0004bac0       ?state_case_type@?$output_processor@DV?$string_output_adapter@D@__crt_stdio_output@@V?$positional_parameter_base@DV?$string_output_adapter@D@__crt_stdio_output@@@2@@__crt_stdio_output@@AEAA_NXZ 000000014004cac0 f i libucrtd:output.obj
 0001:0004bf80       ?state_case_type@?$output_processor@DV?$string_output_adapter@D@__crt_stdio_output@@V?$standard_base@DV?$string_output_adapter@D@__crt_stdio_output@@@2@@__crt_stdio_output@@AEAA_NXZ 000000014004cf80 f i libucrtd:output.obj
 0001:0004c440       ?state_case_type@?$output_processor@_WV?$stream_output_adapter@_W@__crt_stdio_output@@V?$format_validation_base@_WV?$stream_output_adapter@_W@__crt_stdio_output@@@2@@__crt_stdio_output@@AEAA_NXZ 000000014004d440 f i libucrtd:output.obj
 0001:0004c9d0       ?state_case_type@?$output_processor@_WV?$stream_output_adapter@_W@__crt_stdio_output@@V?$positional_parameter_base@_WV?$stream_output_adapter@_W@__crt_stdio_output@@@2@@__crt_stdio_output@@AEAA_NXZ 000000014004d9d0 f i libucrtd:output.obj
 0001:0004cf60       ?state_case_type@?$output_processor@_WV?$stream_output_adapter@_W@__crt_stdio_output@@V?$standard_base@_WV?$stream_output_adapter@_W@__crt_stdio_output@@@2@@__crt_stdio_output@@AEAA_NXZ 000000014004df60 f i libucrtd:output.obj
 0001:0004d4f0       ?state_case_type@?$output_processor@_WV?$string_output_adapter@_W@__crt_stdio_output@@V?$format_validation_base@_WV?$string_output_adapter@_W@__crt_stdio_output@@@2@@__crt_stdio_output@@AEAA_NXZ 000000014004e4f0 f i libucrtd:output.obj
 0001:0004da80       ?state_case_type@?$output_processor@_WV?$string_output_adapter@_W@__crt_stdio_output@@V?$positional_parameter_base@_WV?$string_output_adapter@_W@__crt_stdio_output@@@2@@__crt_stdio_output@@AEAA_NXZ 000000014004ea80 f i libucrtd:output.obj
 0001:0004e010       ?state_case_type@?$output_processor@_WV?$string_output_adapter@_W@__crt_stdio_output@@V?$standard_base@_WV?$string_output_adapter@_W@__crt_stdio_output@@@2@@__crt_stdio_output@@AEAA_NXZ 000000014004f010 f i libucrtd:output.obj
 0001:0004e5a0       ?state_case_width@?$output_processor@DV?$stream_output_adapter@D@__crt_stdio_output@@V?$format_validation_base@DV?$stream_output_adapter@D@__crt_stdio_output@@@2@@__crt_stdio_output@@AEAA_NXZ 000000014004f5a0 f i libucrtd:output.obj
 0001:0004e630       ?state_case_width@?$output_processor@DV?$stream_output_adapter@D@__crt_stdio_output@@V?$positional_parameter_base@DV?$stream_output_adapter@D@__crt_stdio_output@@@2@@__crt_stdio_output@@AEAA_NXZ 000000014004f630 f i libucrtd:output.obj
 0001:0004e6c0       ?state_case_width@?$output_processor@DV?$stream_output_adapter@D@__crt_stdio_output@@V?$standard_base@DV?$stream_output_adapter@D@__crt_stdio_output@@@2@@__crt_stdio_output@@AEAA_NXZ 000000014004f6c0 f i libucrtd:output.obj
 0001:0004e750       ?state_case_width@?$output_processor@DV?$string_output_adapter@D@__crt_stdio_output@@V?$format_validation_base@DV?$string_output_adapter@D@__crt_stdio_output@@@2@@__crt_stdio_output@@AEAA_NXZ 000000014004f750 f i libucrtd:output.obj
 0001:0004e7e0       ?state_case_width@?$output_processor@DV?$string_output_adapter@D@__crt_stdio_output@@V?$positional_parameter_base@DV?$string_output_adapter@D@__crt_stdio_output@@@2@@__crt_stdio_output@@AEAA_NXZ 000000014004f7e0 f i libucrtd:output.obj
 0001:0004e870       ?state_case_width@?$output_processor@DV?$string_output_adapter@D@__crt_stdio_output@@V?$standard_base@DV?$string_output_adapter@D@__crt_stdio_output@@@2@@__crt_stdio_output@@AEAA_NXZ 000000014004f870 f i libucrtd:output.obj
 0001:0004e900       ?state_case_width@?$output_processor@_WV?$stream_output_adapter@_W@__crt_stdio_output@@V?$format_validation_base@_WV?$stream_output_adapter@_W@__crt_stdio_output@@@2@@__crt_stdio_output@@AEAA_NXZ 000000014004f900 f i libucrtd:output.obj
 0001:0004e990       ?state_case_width@?$output_processor@_WV?$stream_output_adapter@_W@__crt_stdio_output@@V?$positional_parameter_base@_WV?$stream_output_adapter@_W@__crt_stdio_output@@@2@@__crt_stdio_output@@AEAA_NXZ 000000014004f990 f i libucrtd:output.obj
 0001:0004ea20       ?state_case_width@?$output_processor@_WV?$stream_output_adapter@_W@__crt_stdio_output@@V?$standard_base@_WV?$stream_output_adapter@_W@__crt_stdio_output@@@2@@__crt_stdio_output@@AEAA_NXZ 000000014004fa20 f i libucrtd:output.obj
 0001:0004eab0       ?state_case_width@?$output_processor@_WV?$string_output_adapter@_W@__crt_stdio_output@@V?$format_validation_base@_WV?$string_output_adapter@_W@__crt_stdio_output@@@2@@__crt_stdio_output@@AEAA_NXZ 000000014004fab0 f i libucrtd:output.obj
 0001:0004eb40       ?state_case_width@?$output_processor@_WV?$string_output_adapter@_W@__crt_stdio_output@@V?$positional_parameter_base@_WV?$string_output_adapter@_W@__crt_stdio_output@@@2@@__crt_stdio_output@@AEAA_NXZ 000000014004fb40 f i libucrtd:output.obj
 0001:0004ebd0       ?state_case_width@?$output_processor@_WV?$string_output_adapter@_W@__crt_stdio_output@@V?$standard_base@_WV?$string_output_adapter@_W@__crt_stdio_output@@@2@@__crt_stdio_output@@AEAA_NXZ 000000014004fbd0 f i libucrtd:output.obj
 0001:0004ec60       ?state_count@?$format_validation_base@DV?$stream_output_adapter@D@__crt_stdio_output@@@__crt_stdio_output@@KAIXZ 000000014004fc60 f i libucrtd:output.obj
 0001:0004ec70       ?state_count@?$format_validation_base@DV?$string_output_adapter@D@__crt_stdio_output@@@__crt_stdio_output@@KAIXZ 000000014004fc70 f i libucrtd:output.obj
 0001:0004ec80       ?state_count@?$format_validation_base@_WV?$stream_output_adapter@_W@__crt_stdio_output@@@__crt_stdio_output@@KAIXZ 000000014004fc80 f i libucrtd:output.obj
 0001:0004ec90       ?state_count@?$format_validation_base@_WV?$string_output_adapter@_W@__crt_stdio_output@@@__crt_stdio_output@@KAIXZ 000000014004fc90 f i libucrtd:output.obj
 0001:0004eca0       ?state_count@?$standard_base@DV?$stream_output_adapter@D@__crt_stdio_output@@@__crt_stdio_output@@KAIXZ 000000014004fca0 f i libucrtd:output.obj
 0001:0004ecb0       ?state_count@?$standard_base@DV?$string_output_adapter@D@__crt_stdio_output@@@__crt_stdio_output@@KAIXZ 000000014004fcb0 f i libucrtd:output.obj
 0001:0004ecc0       ?state_count@?$standard_base@_WV?$stream_output_adapter@_W@__crt_stdio_output@@@__crt_stdio_output@@KAIXZ 000000014004fcc0 f i libucrtd:output.obj
 0001:0004ecd0       ?state_count@?$standard_base@_WV?$string_output_adapter@_W@__crt_stdio_output@@@__crt_stdio_output@@KAIXZ 000000014004fcd0 f i libucrtd:output.obj
 0001:0004ece0       ?state_transition_table@?$format_validation_base@DV?$stream_output_adapter@D@__crt_stdio_output@@@__crt_stdio_output@@KAAEBV?$spectre_mitigated_lookup_table@Ustate_transition_pair@__crt_stdio_output@@$0IA@@2@XZ 000000014004fce0 f i libucrtd:output.obj
 0001:0004ecf0       ?state_transition_table@?$format_validation_base@DV?$string_output_adapter@D@__crt_stdio_output@@@__crt_stdio_output@@KAAEBV?$spectre_mitigated_lookup_table@Ustate_transition_pair@__crt_stdio_output@@$0IA@@2@XZ 000000014004fcf0 f i libucrtd:output.obj
 0001:0004ed00       ?state_transition_table@?$format_validation_base@_WV?$stream_output_adapter@_W@__crt_stdio_output@@@__crt_stdio_output@@KAAEBV?$spectre_mitigated_lookup_table@Ustate_transition_pair@__crt_stdio_output@@$0IA@@2@XZ 000000014004fd00 f i libucrtd:output.obj
 0001:0004ed10       ?state_transition_table@?$format_validation_base@_WV?$string_output_adapter@_W@__crt_stdio_output@@@__crt_stdio_output@@KAAEBV?$spectre_mitigated_lookup_table@Ustate_transition_pair@__crt_stdio_output@@$0IA@@2@XZ 000000014004fd10 f i libucrtd:output.obj
 0001:0004ed20       ?state_transition_table@?$standard_base@DV?$stream_output_adapter@D@__crt_stdio_output@@@__crt_stdio_output@@KAAEBV?$spectre_mitigated_lookup_table@Ustate_transition_pair@__crt_stdio_output@@$0IA@@2@XZ 000000014004fd20 f i libucrtd:output.obj
 0001:0004ed30       ?state_transition_table@?$standard_base@DV?$string_output_adapter@D@__crt_stdio_output@@@__crt_stdio_output@@KAAEBV?$spectre_mitigated_lookup_table@Ustate_transition_pair@__crt_stdio_output@@$0IA@@2@XZ 000000014004fd30 f i libucrtd:output.obj
 0001:0004ed40       ?state_transition_table@?$standard_base@_WV?$stream_output_adapter@_W@__crt_stdio_output@@@__crt_stdio_output@@KAAEBV?$spectre_mitigated_lookup_table@Ustate_transition_pair@__crt_stdio_output@@$0IA@@2@XZ 000000014004fd40 f i libucrtd:output.obj
 0001:0004ed50       ?state_transition_table@?$standard_base@_WV?$string_output_adapter@_W@__crt_stdio_output@@@__crt_stdio_output@@KAAEBV?$spectre_mitigated_lookup_table@Ustate_transition_pair@__crt_stdio_output@@$0IA@@2@XZ 000000014004fd50 f i libucrtd:output.obj
 0001:0004ed60       ?tchar_string@?$common_data@D@__crt_stdio_output@@IEAAAEAPEADD@Z 000000014004fd60 f i libucrtd:output.obj
 0001:0004ed80       ?tchar_string@?$common_data@D@__crt_stdio_output@@IEAAAEAPEADXZ 000000014004fd80 f i libucrtd:output.obj
 0001:0004eda0       ?tchar_string@?$common_data@_W@__crt_stdio_output@@IEAAAEAPEA_WXZ 000000014004fda0 f i libucrtd:output.obj
 0001:0004edc0       ?tchar_string@?$common_data@_W@__crt_stdio_output@@IEAAAEAPEA_W_W@Z 000000014004fdc0 f i libucrtd:output.obj
 0001:0004ede0       ?to_integer_size@__crt_stdio_output@@YA_KW4length_modifier@1@@Z 000000014004fde0 f i libucrtd:output.obj
 0001:0004ee90       ?type_case_X@?$output_processor@DV?$stream_output_adapter@D@__crt_stdio_output@@V?$format_validation_base@DV?$stream_output_adapter@D@__crt_stdio_output@@@2@@__crt_stdio_output@@AEAA_NXZ 000000014004fe90 f i libucrtd:output.obj
 0001:0004eeb0       ?type_case_X@?$output_processor@DV?$stream_output_adapter@D@__crt_stdio_output@@V?$positional_parameter_base@DV?$stream_output_adapter@D@__crt_stdio_output@@@2@@__crt_stdio_output@@AEAA_NXZ 000000014004feb0 f i libucrtd:output.obj
 0001:0004eed0       ?type_case_X@?$output_processor@DV?$stream_output_adapter@D@__crt_stdio_output@@V?$standard_base@DV?$stream_output_adapter@D@__crt_stdio_output@@@2@@__crt_stdio_output@@AEAA_NXZ 000000014004fed0 f i libucrtd:output.obj
 0001:0004eef0       ?type_case_X@?$output_processor@DV?$string_output_adapter@D@__crt_stdio_output@@V?$format_validation_base@DV?$string_output_adapter@D@__crt_stdio_output@@@2@@__crt_stdio_output@@AEAA_NXZ 000000014004fef0 f i libucrtd:output.obj
 0001:0004ef10       ?type_case_X@?$output_processor@DV?$string_output_adapter@D@__crt_stdio_output@@V?$positional_parameter_base@DV?$string_output_adapter@D@__crt_stdio_output@@@2@@__crt_stdio_output@@AEAA_NXZ 000000014004ff10 f i libucrtd:output.obj
 0001:0004ef30       ?type_case_X@?$output_processor@DV?$string_output_adapter@D@__crt_stdio_output@@V?$standard_base@DV?$string_output_adapter@D@__crt_stdio_output@@@2@@__crt_stdio_output@@AEAA_NXZ 000000014004ff30 f i libucrtd:output.obj
 0001:0004ef50       ?type_case_X@?$output_processor@_WV?$stream_output_adapter@_W@__crt_stdio_output@@V?$format_validation_base@_WV?$stream_output_adapter@_W@__crt_stdio_output@@@2@@__crt_stdio_output@@AEAA_NXZ 000000014004ff50 f i libucrtd:output.obj
 0001:0004ef70       ?type_case_X@?$output_processor@_WV?$stream_output_adapter@_W@__crt_stdio_output@@V?$positional_parameter_base@_WV?$stream_output_adapter@_W@__crt_stdio_output@@@2@@__crt_stdio_output@@AEAA_NXZ 000000014004ff70 f i libucrtd:output.obj
 0001:0004ef90       ?type_case_X@?$output_processor@_WV?$stream_output_adapter@_W@__crt_stdio_output@@V?$standard_base@_WV?$stream_output_adapter@_W@__crt_stdio_output@@@2@@__crt_stdio_output@@AEAA_NXZ 000000014004ff90 f i libucrtd:output.obj
 0001:0004efb0       ?type_case_X@?$output_processor@_WV?$string_output_adapter@_W@__crt_stdio_output@@V?$format_validation_base@_WV?$string_output_adapter@_W@__crt_stdio_output@@@2@@__crt_stdio_output@@AEAA_NXZ 000000014004ffb0 f i libucrtd:output.obj
 0001:0004efd0       ?type_case_X@?$output_processor@_WV?$string_output_adapter@_W@__crt_stdio_output@@V?$positional_parameter_base@_WV?$string_output_adapter@_W@__crt_stdio_output@@@2@@__crt_stdio_output@@AEAA_NXZ 000000014004ffd0 f i libucrtd:output.obj
 0001:0004eff0       ?type_case_X@?$output_processor@_WV?$string_output_adapter@_W@__crt_stdio_output@@V?$standard_base@_WV?$string_output_adapter@_W@__crt_stdio_output@@@2@@__crt_stdio_output@@AEAA_NXZ 000000014004fff0 f i libucrtd:output.obj
 0001:0004f010       ?type_case_Z@?$output_processor@DV?$stream_output_adapter@D@__crt_stdio_output@@V?$format_validation_base@DV?$stream_output_adapter@D@__crt_stdio_output@@@2@@__crt_stdio_output@@AEAA_NXZ 0000000140050010 f i libucrtd:output.obj
 0001:0004f130       ?type_case_Z@?$output_processor@DV?$stream_output_adapter@D@__crt_stdio_output@@V?$positional_parameter_base@DV?$stream_output_adapter@D@__crt_stdio_output@@@2@@__crt_stdio_output@@AEAA_NXZ 0000000140050130 f i libucrtd:output.obj
 0001:0004f250       ?type_case_Z@?$output_processor@DV?$stream_output_adapter@D@__crt_stdio_output@@V?$standard_base@DV?$stream_output_adapter@D@__crt_stdio_output@@@2@@__crt_stdio_output@@AEAA_NXZ 0000000140050250 f i libucrtd:output.obj
 0001:0004f370       ?type_case_Z@?$output_processor@DV?$string_output_adapter@D@__crt_stdio_output@@V?$format_validation_base@DV?$string_output_adapter@D@__crt_stdio_output@@@2@@__crt_stdio_output@@AEAA_NXZ 0000000140050370 f i libucrtd:output.obj
 0001:0004f490       ?type_case_Z@?$output_processor@DV?$string_output_adapter@D@__crt_stdio_output@@V?$positional_parameter_base@DV?$string_output_adapter@D@__crt_stdio_output@@@2@@__crt_stdio_output@@AEAA_NXZ 0000000140050490 f i libucrtd:output.obj
 0001:0004f5b0       ?type_case_Z@?$output_processor@DV?$string_output_adapter@D@__crt_stdio_output@@V?$standard_base@DV?$string_output_adapter@D@__crt_stdio_output@@@2@@__crt_stdio_output@@AEAA_NXZ 00000001400505b0 f i libucrtd:output.obj
 0001:0004f6d0       ?type_case_Z@?$output_processor@_WV?$stream_output_adapter@_W@__crt_stdio_output@@V?$format_validation_base@_WV?$stream_output_adapter@_W@__crt_stdio_output@@@2@@__crt_stdio_output@@AEAA_NXZ 00000001400506d0 f i libucrtd:output.obj
 0001:0004f7f0       ?type_case_Z@?$output_processor@_WV?$stream_output_adapter@_W@__crt_stdio_output@@V?$positional_parameter_base@_WV?$stream_output_adapter@_W@__crt_stdio_output@@@2@@__crt_stdio_output@@AEAA_NXZ 00000001400507f0 f i libucrtd:output.obj
 0001:0004f910       ?type_case_Z@?$output_processor@_WV?$stream_output_adapter@_W@__crt_stdio_output@@V?$standard_base@_WV?$stream_output_adapter@_W@__crt_stdio_output@@@2@@__crt_stdio_output@@AEAA_NXZ 0000000140050910 f i libucrtd:output.obj
 0001:0004fa30       ?type_case_Z@?$output_processor@_WV?$string_output_adapter@_W@__crt_stdio_output@@V?$format_validation_base@_WV?$string_output_adapter@_W@__crt_stdio_output@@@2@@__crt_stdio_output@@AEAA_NXZ 0000000140050a30 f i libucrtd:output.obj
 0001:0004fb50       ?type_case_Z@?$output_processor@_WV?$string_output_adapter@_W@__crt_stdio_output@@V?$positional_parameter_base@_WV?$string_output_adapter@_W@__crt_stdio_output@@@2@@__crt_stdio_output@@AEAA_NXZ 0000000140050b50 f i libucrtd:output.obj
 0001:0004fc70       ?type_case_Z@?$output_processor@_WV?$string_output_adapter@_W@__crt_stdio_output@@V?$standard_base@_WV?$string_output_adapter@_W@__crt_stdio_output@@@2@@__crt_stdio_output@@AEAA_NXZ 0000000140050c70 f i libucrtd:output.obj
 0001:0004fd90       ?type_case_a@?$output_processor@DV?$stream_output_adapter@D@__crt_stdio_output@@V?$format_validation_base@DV?$stream_output_adapter@D@__crt_stdio_output@@@2@@__crt_stdio_output@@AEAA_NXZ 0000000140050d90 f i libucrtd:output.obj
 0001:000501f0       ?type_case_a@?$output_processor@DV?$stream_output_adapter@D@__crt_stdio_output@@V?$positional_parameter_base@DV?$stream_output_adapter@D@__crt_stdio_output@@@2@@__crt_stdio_output@@AEAA_NXZ 00000001400511f0 f i libucrtd:output.obj
 0001:00050650       ?type_case_a@?$output_processor@DV?$stream_output_adapter@D@__crt_stdio_output@@V?$standard_base@DV?$stream_output_adapter@D@__crt_stdio_output@@@2@@__crt_stdio_output@@AEAA_NXZ 0000000140051650 f i libucrtd:output.obj
 0001:00050ab0       ?type_case_a@?$output_processor@DV?$string_output_adapter@D@__crt_stdio_output@@V?$format_validation_base@DV?$string_output_adapter@D@__crt_stdio_output@@@2@@__crt_stdio_output@@AEAA_NXZ 0000000140051ab0 f i libucrtd:output.obj
 0001:00050f10       ?type_case_a@?$output_processor@DV?$string_output_adapter@D@__crt_stdio_output@@V?$positional_parameter_base@DV?$string_output_adapter@D@__crt_stdio_output@@@2@@__crt_stdio_output@@AEAA_NXZ 0000000140051f10 f i libucrtd:output.obj
 0001:00051370       ?type_case_a@?$output_processor@DV?$string_output_adapter@D@__crt_stdio_output@@V?$standard_base@DV?$string_output_adapter@D@__crt_stdio_output@@@2@@__crt_stdio_output@@AEAA_NXZ 0000000140052370 f i libucrtd:output.obj
 0001:000517d0       ?type_case_a@?$output_processor@_WV?$stream_output_adapter@_W@__crt_stdio_output@@V?$format_validation_base@_WV?$stream_output_adapter@_W@__crt_stdio_output@@@2@@__crt_stdio_output@@AEAA_NXZ 00000001400527d0 f i libucrtd:output.obj
 0001:00051c40       ?type_case_a@?$output_processor@_WV?$stream_output_adapter@_W@__crt_stdio_output@@V?$positional_parameter_base@_WV?$stream_output_adapter@_W@__crt_stdio_output@@@2@@__crt_stdio_output@@AEAA_NXZ 0000000140052c40 f i libucrtd:output.obj
 0001:000520b0       ?type_case_a@?$output_processor@_WV?$stream_output_adapter@_W@__crt_stdio_output@@V?$standard_base@_WV?$stream_output_adapter@_W@__crt_stdio_output@@@2@@__crt_stdio_output@@AEAA_NXZ 00000001400530b0 f i libucrtd:output.obj
 0001:00052520       ?type_case_a@?$output_processor@_WV?$string_output_adapter@_W@__crt_stdio_output@@V?$format_validation_base@_WV?$string_output_adapter@_W@__crt_stdio_output@@@2@@__crt_stdio_output@@AEAA_NXZ 0000000140053520 f i libucrtd:output.obj
 0001:00052990       ?type_case_a@?$output_processor@_WV?$string_output_adapter@_W@__crt_stdio_output@@V?$positional_parameter_base@_WV?$string_output_adapter@_W@__crt_stdio_output@@@2@@__crt_stdio_output@@AEAA_NXZ 0000000140053990 f i libucrtd:output.obj
 0001:00052e00       ?type_case_a@?$output_processor@_WV?$string_output_adapter@_W@__crt_stdio_output@@V?$standard_base@_WV?$string_output_adapter@_W@__crt_stdio_output@@@2@@__crt_stdio_output@@AEAA_NXZ 0000000140053e00 f i libucrtd:output.obj
 0001:00053270       ?type_case_c@?$output_processor@DV?$stream_output_adapter@D@__crt_stdio_output@@V?$format_validation_base@DV?$stream_output_adapter@D@__crt_stdio_output@@@2@@__crt_stdio_output@@AEAA_NXZ 0000000140054270 f i libucrtd:output.obj
 0001:00053290       ?type_case_c@?$output_processor@DV?$stream_output_adapter@D@__crt_stdio_output@@V?$positional_parameter_base@DV?$stream_output_adapter@D@__crt_stdio_output@@@2@@__crt_stdio_output@@AEAA_NXZ 0000000140054290 f i libucrtd:output.obj
 0001:000532b0       ?type_case_c@?$output_processor@DV?$stream_output_adapter@D@__crt_stdio_output@@V?$standard_base@DV?$stream_output_adapter@D@__crt_stdio_output@@@2@@__crt_stdio_output@@AEAA_NXZ 00000001400542b0 f i libucrtd:output.obj
 0001:000532d0       ?type_case_c@?$output_processor@DV?$string_output_adapter@D@__crt_stdio_output@@V?$format_validation_base@DV?$string_output_adapter@D@__crt_stdio_output@@@2@@__crt_stdio_output@@AEAA_NXZ 00000001400542d0 f i libucrtd:output.obj
 0001:000532f0       ?type_case_c@?$output_processor@DV?$string_output_adapter@D@__crt_stdio_output@@V?$positional_parameter_base@DV?$string_output_adapter@D@__crt_stdio_output@@@2@@__crt_stdio_output@@AEAA_NXZ 00000001400542f0 f i libucrtd:output.obj
 0001:00053310       ?type_case_c@?$output_processor@DV?$string_output_adapter@D@__crt_stdio_output@@V?$standard_base@DV?$string_output_adapter@D@__crt_stdio_output@@@2@@__crt_stdio_output@@AEAA_NXZ 0000000140054310 f i libucrtd:output.obj
 0001:00053330       ?type_case_c@?$output_processor@_WV?$stream_output_adapter@_W@__crt_stdio_output@@V?$format_validation_base@_WV?$stream_output_adapter@_W@__crt_stdio_output@@@2@@__crt_stdio_output@@AEAA_NXZ 0000000140054330 f i libucrtd:output.obj
 0001:00053350       ?type_case_c@?$output_processor@_WV?$stream_output_adapter@_W@__crt_stdio_output@@V?$positional_parameter_base@_WV?$stream_output_adapter@_W@__crt_stdio_output@@@2@@__crt_stdio_output@@AEAA_NXZ 0000000140054350 f i libucrtd:output.obj
 0001:00053370       ?type_case_c@?$output_processor@_WV?$stream_output_adapter@_W@__crt_stdio_output@@V?$standard_base@_WV?$stream_output_adapter@_W@__crt_stdio_output@@@2@@__crt_stdio_output@@AEAA_NXZ 0000000140054370 f i libucrtd:output.obj
 0001:00053390       ?type_case_c@?$output_processor@_WV?$string_output_adapter@_W@__crt_stdio_output@@V?$format_validation_base@_WV?$string_output_adapter@_W@__crt_stdio_output@@@2@@__crt_stdio_output@@AEAA_NXZ 0000000140054390 f i libucrtd:output.obj
 0001:000533b0       ?type_case_c@?$output_processor@_WV?$string_output_adapter@_W@__crt_stdio_output@@V?$positional_parameter_base@_WV?$string_output_adapter@_W@__crt_stdio_output@@@2@@__crt_stdio_output@@AEAA_NXZ 00000001400543b0 f i libucrtd:output.obj
 0001:000533d0       ?type_case_c@?$output_processor@_WV?$string_output_adapter@_W@__crt_stdio_output@@V?$standard_base@_WV?$string_output_adapter@_W@__crt_stdio_output@@@2@@__crt_stdio_output@@AEAA_NXZ 00000001400543d0 f i libucrtd:output.obj
 0001:000533f0       ?type_case_c_tchar@?$output_processor@DV?$stream_output_adapter@D@__crt_stdio_output@@V?$format_validation_base@DV?$stream_output_adapter@D@__crt_stdio_output@@@2@@__crt_stdio_output@@AEAA_ND@Z 00000001400543f0 f i libucrtd:output.obj
 0001:00053560       ?type_case_c_tchar@?$output_processor@DV?$stream_output_adapter@D@__crt_stdio_output@@V?$positional_parameter_base@DV?$stream_output_adapter@D@__crt_stdio_output@@@2@@__crt_stdio_output@@AEAA_ND@Z 0000000140054560 f i libucrtd:output.obj
 0001:000536d0       ?type_case_c_tchar@?$output_processor@DV?$stream_output_adapter@D@__crt_stdio_output@@V?$standard_base@DV?$stream_output_adapter@D@__crt_stdio_output@@@2@@__crt_stdio_output@@AEAA_ND@Z 00000001400546d0 f i libucrtd:output.obj
 0001:00053840       ?type_case_c_tchar@?$output_processor@DV?$string_output_adapter@D@__crt_stdio_output@@V?$format_validation_base@DV?$string_output_adapter@D@__crt_stdio_output@@@2@@__crt_stdio_output@@AEAA_ND@Z 0000000140054840 f i libucrtd:output.obj
 0001:000539b0       ?type_case_c_tchar@?$output_processor@DV?$string_output_adapter@D@__crt_stdio_output@@V?$positional_parameter_base@DV?$string_output_adapter@D@__crt_stdio_output@@@2@@__crt_stdio_output@@AEAA_ND@Z 00000001400549b0 f i libucrtd:output.obj
 0001:00053b20       ?type_case_c_tchar@?$output_processor@DV?$string_output_adapter@D@__crt_stdio_output@@V?$standard_base@DV?$string_output_adapter@D@__crt_stdio_output@@@2@@__crt_stdio_output@@AEAA_ND@Z 0000000140054b20 f i libucrtd:output.obj
 0001:00053c90       ?type_case_c_tchar@?$output_processor@_WV?$stream_output_adapter@_W@__crt_stdio_output@@V?$format_validation_base@_WV?$stream_output_adapter@_W@__crt_stdio_output@@@2@@__crt_stdio_output@@AEAA_N_W@Z 0000000140054c90 f i libucrtd:output.obj
 0001:00053df0       ?type_case_c_tchar@?$output_processor@_WV?$stream_output_adapter@_W@__crt_stdio_output@@V?$positional_parameter_base@_WV?$stream_output_adapter@_W@__crt_stdio_output@@@2@@__crt_stdio_output@@AEAA_N_W@Z 0000000140054df0 f i libucrtd:output.obj
 0001:00053f50       ?type_case_c_tchar@?$output_processor@_WV?$stream_output_adapter@_W@__crt_stdio_output@@V?$standard_base@_WV?$stream_output_adapter@_W@__crt_stdio_output@@@2@@__crt_stdio_output@@AEAA_N_W@Z 0000000140054f50 f i libucrtd:output.obj
 0001:000540b0       ?type_case_c_tchar@?$output_processor@_WV?$string_output_adapter@_W@__crt_stdio_output@@V?$format_validation_base@_WV?$string_output_adapter@_W@__crt_stdio_output@@@2@@__crt_stdio_output@@AEAA_N_W@Z 00000001400550b0 f i libucrtd:output.obj
 0001:00054210       ?type_case_c_tchar@?$output_processor@_WV?$string_output_adapter@_W@__crt_stdio_output@@V?$positional_parameter_base@_WV?$string_output_adapter@_W@__crt_stdio_output@@@2@@__crt_stdio_output@@AEAA_N_W@Z 0000000140055210 f i libucrtd:output.obj
 0001:00054370       ?type_case_c_tchar@?$output_processor@_WV?$string_output_adapter@_W@__crt_stdio_output@@V?$standard_base@_WV?$string_output_adapter@_W@__crt_stdio_output@@@2@@__crt_stdio_output@@AEAA_N_W@Z 0000000140055370 f i libucrtd:output.obj
 0001:000544d0       ?type_case_d@?$output_processor@DV?$stream_output_adapter@D@__crt_stdio_output@@V?$format_validation_base@DV?$stream_output_adapter@D@__crt_stdio_output@@@2@@__crt_stdio_output@@AEAA_NXZ 00000001400554d0 f i libucrtd:output.obj
 0001:00054500       ?type_case_d@?$output_processor@DV?$stream_output_adapter@D@__crt_stdio_output@@V?$positional_parameter_base@DV?$stream_output_adapter@D@__crt_stdio_output@@@2@@__crt_stdio_output@@AEAA_NXZ 0000000140055500 f i libucrtd:output.obj
 0001:00054530       ?type_case_d@?$output_processor@DV?$stream_output_adapter@D@__crt_stdio_output@@V?$standard_base@DV?$stream_output_adapter@D@__crt_stdio_output@@@2@@__crt_stdio_output@@AEAA_NXZ 0000000140055530 f i libucrtd:output.obj
 0001:00054560       ?type_case_d@?$output_processor@DV?$string_output_adapter@D@__crt_stdio_output@@V?$format_validation_base@DV?$string_output_adapter@D@__crt_stdio_output@@@2@@__crt_stdio_output@@AEAA_NXZ 0000000140055560 f i libucrtd:output.obj
 0001:00054590       ?type_case_d@?$output_processor@DV?$string_output_adapter@D@__crt_stdio_output@@V?$positional_parameter_base@DV?$string_output_adapter@D@__crt_stdio_output@@@2@@__crt_stdio_output@@AEAA_NXZ 0000000140055590 f i libucrtd:output.obj
 0001:000545c0       ?type_case_d@?$output_processor@DV?$string_output_adapter@D@__crt_stdio_output@@V?$standard_base@DV?$string_output_adapter@D@__crt_stdio_output@@@2@@__crt_stdio_output@@AEAA_NXZ 00000001400555c0 f i libucrtd:output.obj
 0001:000545f0       ?type_case_d@?$output_processor@_WV?$stream_output_adapter@_W@__crt_stdio_output@@V?$format_validation_base@_WV?$stream_output_adapter@_W@__crt_stdio_output@@@2@@__crt_stdio_output@@AEAA_NXZ 00000001400555f0 f i libucrtd:output.obj
 0001:00054620       ?type_case_d@?$output_processor@_WV?$stream_output_adapter@_W@__crt_stdio_output@@V?$positional_parameter_base@_WV?$stream_output_adapter@_W@__crt_stdio_output@@@2@@__crt_stdio_output@@AEAA_NXZ 0000000140055620 f i libucrtd:output.obj
 0001:00054650       ?type_case_d@?$output_processor@_WV?$stream_output_adapter@_W@__crt_stdio_output@@V?$standard_base@_WV?$stream_output_adapter@_W@__crt_stdio_output@@@2@@__crt_stdio_output@@AEAA_NXZ 0000000140055650 f i libucrtd:output.obj
 0001:00054680       ?type_case_d@?$output_processor@_WV?$string_output_adapter@_W@__crt_stdio_output@@V?$format_validation_base@_WV?$string_output_adapter@_W@__crt_stdio_output@@@2@@__crt_stdio_output@@AEAA_NXZ 0000000140055680 f i libucrtd:output.obj
 0001:000546b0       ?type_case_d@?$output_processor@_WV?$string_output_adapter@_W@__crt_stdio_output@@V?$positional_parameter_base@_WV?$string_output_adapter@_W@__crt_stdio_output@@@2@@__crt_stdio_output@@AEAA_NXZ 00000001400556b0 f i libucrtd:output.obj
 0001:000546e0       ?type_case_d@?$output_processor@_WV?$string_output_adapter@_W@__crt_stdio_output@@V?$standard_base@_WV?$string_output_adapter@_W@__crt_stdio_output@@@2@@__crt_stdio_output@@AEAA_NXZ 00000001400556e0 f i libucrtd:output.obj
 0001:00054710       ?type_case_n@?$output_processor@DV?$stream_output_adapter@D@__crt_stdio_output@@V?$format_validation_base@DV?$stream_output_adapter@D@__crt_stdio_output@@@2@@__crt_stdio_output@@AEAA_NXZ 0000000140055710 f i libucrtd:output.obj
 0001:000549a0       ?type_case_n@?$output_processor@DV?$stream_output_adapter@D@__crt_stdio_output@@V?$positional_parameter_base@DV?$stream_output_adapter@D@__crt_stdio_output@@@2@@__crt_stdio_output@@AEAA_NXZ 00000001400559a0 f i libucrtd:output.obj
 0001:00054c30       ?type_case_n@?$output_processor@DV?$stream_output_adapter@D@__crt_stdio_output@@V?$standard_base@DV?$stream_output_adapter@D@__crt_stdio_output@@@2@@__crt_stdio_output@@AEAA_NXZ 0000000140055c30 f i libucrtd:output.obj
 0001:00054ec0       ?type_case_n@?$output_processor@DV?$string_output_adapter@D@__crt_stdio_output@@V?$format_validation_base@DV?$string_output_adapter@D@__crt_stdio_output@@@2@@__crt_stdio_output@@AEAA_NXZ 0000000140055ec0 f i libucrtd:output.obj
 0001:00055150       ?type_case_n@?$output_processor@DV?$string_output_adapter@D@__crt_stdio_output@@V?$positional_parameter_base@DV?$string_output_adapter@D@__crt_stdio_output@@@2@@__crt_stdio_output@@AEAA_NXZ 0000000140056150 f i libucrtd:output.obj
 0001:000553e0       ?type_case_n@?$output_processor@DV?$string_output_adapter@D@__crt_stdio_output@@V?$standard_base@DV?$string_output_adapter@D@__crt_stdio_output@@@2@@__crt_stdio_output@@AEAA_NXZ 00000001400563e0 f i libucrtd:output.obj
 0001:00055670       ?type_case_n@?$output_processor@_WV?$stream_output_adapter@_W@__crt_stdio_output@@V?$format_validation_base@_WV?$stream_output_adapter@_W@__crt_stdio_output@@@2@@__crt_stdio_output@@AEAA_NXZ 0000000140056670 f i libucrtd:output.obj
 0001:00055900       ?type_case_n@?$output_processor@_WV?$stream_output_adapter@_W@__crt_stdio_output@@V?$positional_parameter_base@_WV?$stream_output_adapter@_W@__crt_stdio_output@@@2@@__crt_stdio_output@@AEAA_NXZ 0000000140056900 f i libucrtd:output.obj
 0001:00055b90       ?type_case_n@?$output_processor@_WV?$stream_output_adapter@_W@__crt_stdio_output@@V?$standard_base@_WV?$stream_output_adapter@_W@__crt_stdio_output@@@2@@__crt_stdio_output@@AEAA_NXZ 0000000140056b90 f i libucrtd:output.obj
 0001:00055e20       ?type_case_n@?$output_processor@_WV?$string_output_adapter@_W@__crt_stdio_output@@V?$format_validation_base@_WV?$string_output_adapter@_W@__crt_stdio_output@@@2@@__crt_stdio_output@@AEAA_NXZ 0000000140056e20 f i libucrtd:output.obj
 0001:000560b0       ?type_case_n@?$output_processor@_WV?$string_output_adapter@_W@__crt_stdio_output@@V?$positional_parameter_base@_WV?$string_output_adapter@_W@__crt_stdio_output@@@2@@__crt_stdio_output@@AEAA_NXZ 00000001400570b0 f i libucrtd:output.obj
 0001:00056340       ?type_case_n@?$output_processor@_WV?$string_output_adapter@_W@__crt_stdio_output@@V?$standard_base@_WV?$string_output_adapter@_W@__crt_stdio_output@@@2@@__crt_stdio_output@@AEAA_NXZ 0000000140057340 f i libucrtd:output.obj
 0001:000565d0       ?type_case_o@?$output_processor@DV?$stream_output_adapter@D@__crt_stdio_output@@V?$format_validation_base@DV?$stream_output_adapter@D@__crt_stdio_output@@@2@@__crt_stdio_output@@AEAA_NXZ 00000001400575d0 f i libucrtd:output.obj
 0001:00056610       ?type_case_o@?$output_processor@DV?$stream_output_adapter@D@__crt_stdio_output@@V?$positional_parameter_base@DV?$stream_output_adapter@D@__crt_stdio_output@@@2@@__crt_stdio_output@@AEAA_NXZ 0000000140057610 f i libucrtd:output.obj
 0001:00056650       ?type_case_o@?$output_processor@DV?$stream_output_adapter@D@__crt_stdio_output@@V?$standard_base@DV?$stream_output_adapter@D@__crt_stdio_output@@@2@@__crt_stdio_output@@AEAA_NXZ 0000000140057650 f i libucrtd:output.obj
 0001:00056690       ?type_case_o@?$output_processor@DV?$string_output_adapter@D@__crt_stdio_output@@V?$format_validation_base@DV?$string_output_adapter@D@__crt_stdio_output@@@2@@__crt_stdio_output@@AEAA_NXZ 0000000140057690 f i libucrtd:output.obj
 0001:000566d0       ?type_case_o@?$output_processor@DV?$string_output_adapter@D@__crt_stdio_output@@V?$positional_parameter_base@DV?$string_output_adapter@D@__crt_stdio_output@@@2@@__crt_stdio_output@@AEAA_NXZ 00000001400576d0 f i libucrtd:output.obj
 0001:00056710       ?type_case_o@?$output_processor@DV?$string_output_adapter@D@__crt_stdio_output@@V?$standard_base@DV?$string_output_adapter@D@__crt_stdio_output@@@2@@__crt_stdio_output@@AEAA_NXZ 0000000140057710 f i libucrtd:output.obj
 0001:00056750       ?type_case_o@?$output_processor@_WV?$stream_output_adapter@_W@__crt_stdio_output@@V?$format_validation_base@_WV?$stream_output_adapter@_W@__crt_stdio_output@@@2@@__crt_stdio_output@@AEAA_NXZ 0000000140057750 f i libucrtd:output.obj
 0001:00056790       ?type_case_o@?$output_processor@_WV?$stream_output_adapter@_W@__crt_stdio_output@@V?$positional_parameter_base@_WV?$stream_output_adapter@_W@__crt_stdio_output@@@2@@__crt_stdio_output@@AEAA_NXZ 0000000140057790 f i libucrtd:output.obj
 0001:000567d0       ?type_case_o@?$output_processor@_WV?$stream_output_adapter@_W@__crt_stdio_output@@V?$standard_base@_WV?$stream_output_adapter@_W@__crt_stdio_output@@@2@@__crt_stdio_output@@AEAA_NXZ 00000001400577d0 f i libucrtd:output.obj
 0001:00056810       ?type_case_o@?$output_processor@_WV?$string_output_adapter@_W@__crt_stdio_output@@V?$format_validation_base@_WV?$string_output_adapter@_W@__crt_stdio_output@@@2@@__crt_stdio_output@@AEAA_NXZ 0000000140057810 f i libucrtd:output.obj
 0001:00056850       ?type_case_o@?$output_processor@_WV?$string_output_adapter@_W@__crt_stdio_output@@V?$positional_parameter_base@_WV?$string_output_adapter@_W@__crt_stdio_output@@@2@@__crt_stdio_output@@AEAA_NXZ 0000000140057850 f i libucrtd:output.obj
 0001:00056890       ?type_case_o@?$output_processor@_WV?$string_output_adapter@_W@__crt_stdio_output@@V?$standard_base@_WV?$string_output_adapter@_W@__crt_stdio_output@@@2@@__crt_stdio_output@@AEAA_NXZ 0000000140057890 f i libucrtd:output.obj
 0001:000568d0       ?type_case_p@?$output_processor@DV?$stream_output_adapter@D@__crt_stdio_output@@V?$format_validation_base@DV?$stream_output_adapter@D@__crt_stdio_output@@@2@@__crt_stdio_output@@AEAA_NXZ 00000001400578d0 f i libucrtd:output.obj
 0001:00056910       ?type_case_p@?$output_processor@DV?$stream_output_adapter@D@__crt_stdio_output@@V?$positional_parameter_base@DV?$stream_output_adapter@D@__crt_stdio_output@@@2@@__crt_stdio_output@@AEAA_NXZ 0000000140057910 f i libucrtd:output.obj
 0001:00056950       ?type_case_p@?$output_processor@DV?$stream_output_adapter@D@__crt_stdio_output@@V?$standard_base@DV?$stream_output_adapter@D@__crt_stdio_output@@@2@@__crt_stdio_output@@AEAA_NXZ 0000000140057950 f i libucrtd:output.obj
 0001:00056990       ?type_case_p@?$output_processor@DV?$string_output_adapter@D@__crt_stdio_output@@V?$format_validation_base@DV?$string_output_adapter@D@__crt_stdio_output@@@2@@__crt_stdio_output@@AEAA_NXZ 0000000140057990 f i libucrtd:output.obj
 0001:000569d0       ?type_case_p@?$output_processor@DV?$string_output_adapter@D@__crt_stdio_output@@V?$positional_parameter_base@DV?$string_output_adapter@D@__crt_stdio_output@@@2@@__crt_stdio_output@@AEAA_NXZ 00000001400579d0 f i libucrtd:output.obj
 0001:00056a10       ?type_case_p@?$output_processor@DV?$string_output_adapter@D@__crt_stdio_output@@V?$standard_base@DV?$string_output_adapter@D@__crt_stdio_output@@@2@@__crt_stdio_output@@AEAA_NXZ 0000000140057a10 f i libucrtd:output.obj
 0001:00056a50       ?type_case_p@?$output_processor@_WV?$stream_output_adapter@_W@__crt_stdio_output@@V?$format_validation_base@_WV?$stream_output_adapter@_W@__crt_stdio_output@@@2@@__crt_stdio_output@@AEAA_NXZ 0000000140057a50 f i libucrtd:output.obj
 0001:00056a90       ?type_case_p@?$output_processor@_WV?$stream_output_adapter@_W@__crt_stdio_output@@V?$positional_parameter_base@_WV?$stream_output_adapter@_W@__crt_stdio_output@@@2@@__crt_stdio_output@@AEAA_NXZ 0000000140057a90 f i libucrtd:output.obj
 0001:00056ad0       ?type_case_p@?$output_processor@_WV?$stream_output_adapter@_W@__crt_stdio_output@@V?$standard_base@_WV?$stream_output_adapter@_W@__crt_stdio_output@@@2@@__crt_stdio_output@@AEAA_NXZ 0000000140057ad0 f i libucrtd:output.obj
 0001:00056b10       ?type_case_p@?$output_processor@_WV?$string_output_adapter@_W@__crt_stdio_output@@V?$format_validation_base@_WV?$string_output_adapter@_W@__crt_stdio_output@@@2@@__crt_stdio_output@@AEAA_NXZ 0000000140057b10 f i libucrtd:output.obj
 0001:00056b50       ?type_case_p@?$output_processor@_WV?$string_output_adapter@_W@__crt_stdio_output@@V?$positional_parameter_base@_WV?$string_output_adapter@_W@__crt_stdio_output@@@2@@__crt_stdio_output@@AEAA_NXZ 0000000140057b50 f i libucrtd:output.obj
 0001:00056b90       ?type_case_p@?$output_processor@_WV?$string_output_adapter@_W@__crt_stdio_output@@V?$standard_base@_WV?$string_output_adapter@_W@__crt_stdio_output@@@2@@__crt_stdio_output@@AEAA_NXZ 0000000140057b90 f i libucrtd:output.obj
 0001:00056bd0       ?type_case_s@?$output_processor@DV?$stream_output_adapter@D@__crt_stdio_output@@V?$format_validation_base@DV?$stream_output_adapter@D@__crt_stdio_output@@@2@@__crt_stdio_output@@AEAA_NXZ 0000000140057bd0 f i libucrtd:output.obj
 0001:00056cf0       ?type_case_s@?$output_processor@DV?$stream_output_adapter@D@__crt_stdio_output@@V?$positional_parameter_base@DV?$stream_output_adapter@D@__crt_stdio_output@@@2@@__crt_stdio_output@@AEAA_NXZ 0000000140057cf0 f i libucrtd:output.obj
 0001:00056e10       ?type_case_s@?$output_processor@DV?$stream_output_adapter@D@__crt_stdio_output@@V?$standard_base@DV?$stream_output_adapter@D@__crt_stdio_output@@@2@@__crt_stdio_output@@AEAA_NXZ 0000000140057e10 f i libucrtd:output.obj
 0001:00056f30       ?type_case_s@?$output_processor@DV?$string_output_adapter@D@__crt_stdio_output@@V?$format_validation_base@DV?$string_output_adapter@D@__crt_stdio_output@@@2@@__crt_stdio_output@@AEAA_NXZ 0000000140057f30 f i libucrtd:output.obj
 0001:00057050       ?type_case_s@?$output_processor@DV?$string_output_adapter@D@__crt_stdio_output@@V?$positional_parameter_base@DV?$string_output_adapter@D@__crt_stdio_output@@@2@@__crt_stdio_output@@AEAA_NXZ 0000000140058050 f i libucrtd:output.obj
 0001:00057170       ?type_case_s@?$output_processor@DV?$string_output_adapter@D@__crt_stdio_output@@V?$standard_base@DV?$string_output_adapter@D@__crt_stdio_output@@@2@@__crt_stdio_output@@AEAA_NXZ 0000000140058170 f i libucrtd:output.obj
 0001:00057290       ?type_case_s@?$output_processor@_WV?$stream_output_adapter@_W@__crt_stdio_output@@V?$format_validation_base@_WV?$stream_output_adapter@_W@__crt_stdio_output@@@2@@__crt_stdio_output@@AEAA_NXZ 0000000140058290 f i libucrtd:output.obj
 0001:000573b0       ?type_case_s@?$output_processor@_WV?$stream_output_adapter@_W@__crt_stdio_output@@V?$positional_parameter_base@_WV?$stream_output_adapter@_W@__crt_stdio_output@@@2@@__crt_stdio_output@@AEAA_NXZ 00000001400583b0 f i libucrtd:output.obj
 0001:000574d0       ?type_case_s@?$output_processor@_WV?$stream_output_adapter@_W@__crt_stdio_output@@V?$standard_base@_WV?$stream_output_adapter@_W@__crt_stdio_output@@@2@@__crt_stdio_output@@AEAA_NXZ 00000001400584d0 f i libucrtd:output.obj
 0001:000575f0       ?type_case_s@?$output_processor@_WV?$string_output_adapter@_W@__crt_stdio_output@@V?$format_validation_base@_WV?$string_output_adapter@_W@__crt_stdio_output@@@2@@__crt_stdio_output@@AEAA_NXZ 00000001400585f0 f i libucrtd:output.obj
 0001:00057710       ?type_case_s@?$output_processor@_WV?$string_output_adapter@_W@__crt_stdio_output@@V?$positional_parameter_base@_WV?$string_output_adapter@_W@__crt_stdio_output@@@2@@__crt_stdio_output@@AEAA_NXZ 0000000140058710 f i libucrtd:output.obj
 0001:00057830       ?type_case_s@?$output_processor@_WV?$string_output_adapter@_W@__crt_stdio_output@@V?$standard_base@_WV?$string_output_adapter@_W@__crt_stdio_output@@@2@@__crt_stdio_output@@AEAA_NXZ 0000000140058830 f i libucrtd:output.obj
 0001:00057950       ?type_case_s_compute_narrow_string_length@?$output_processor@DV?$stream_output_adapter@D@__crt_stdio_output@@V?$format_validation_base@DV?$stream_output_adapter@D@__crt_stdio_output@@@2@@__crt_stdio_output@@AEAAHHD@Z 0000000140058950 f i libucrtd:output.obj
 0001:00057980       ?type_case_s_compute_narrow_string_length@?$output_processor@DV?$stream_output_adapter@D@__crt_stdio_output@@V?$positional_parameter_base@DV?$stream_output_adapter@D@__crt_stdio_output@@@2@@__crt_stdio_output@@AEAAHHD@Z 0000000140058980 f i libucrtd:output.obj
 0001:000579b0       ?type_case_s_compute_narrow_string_length@?$output_processor@DV?$stream_output_adapter@D@__crt_stdio_output@@V?$standard_base@DV?$stream_output_adapter@D@__crt_stdio_output@@@2@@__crt_stdio_output@@AEAAHHD@Z 00000001400589b0 f i libucrtd:output.obj
 0001:000579e0       ?type_case_s_compute_narrow_string_length@?$output_processor@DV?$string_output_adapter@D@__crt_stdio_output@@V?$format_validation_base@DV?$string_output_adapter@D@__crt_stdio_output@@@2@@__crt_stdio_output@@AEAAHHD@Z 00000001400589e0 f i libucrtd:output.obj
 0001:00057a10       ?type_case_s_compute_narrow_string_length@?$output_processor@DV?$string_output_adapter@D@__crt_stdio_output@@V?$positional_parameter_base@DV?$string_output_adapter@D@__crt_stdio_output@@@2@@__crt_stdio_output@@AEAAHHD@Z 0000000140058a10 f i libucrtd:output.obj
 0001:00057a40       ?type_case_s_compute_narrow_string_length@?$output_processor@DV?$string_output_adapter@D@__crt_stdio_output@@V?$standard_base@DV?$string_output_adapter@D@__crt_stdio_output@@@2@@__crt_stdio_output@@AEAAHHD@Z 0000000140058a40 f i libucrtd:output.obj
 0001:00057a70       ?type_case_s_compute_narrow_string_length@?$output_processor@_WV?$stream_output_adapter@_W@__crt_stdio_output@@V?$format_validation_base@_WV?$stream_output_adapter@_W@__crt_stdio_output@@@2@@__crt_stdio_output@@AEAAHH_W@Z 0000000140058a70 f i libucrtd:output.obj
 0001:00057bc0       ?type_case_s_compute_narrow_string_length@?$output_processor@_WV?$stream_output_adapter@_W@__crt_stdio_output@@V?$positional_parameter_base@_WV?$stream_output_adapter@_W@__crt_stdio_output@@@2@@__crt_stdio_output@@AEAAHH_W@Z 0000000140058bc0 f i libucrtd:output.obj
 0001:00057d10       ?type_case_s_compute_narrow_string_length@?$output_processor@_WV?$stream_output_adapter@_W@__crt_stdio_output@@V?$standard_base@_WV?$stream_output_adapter@_W@__crt_stdio_output@@@2@@__crt_stdio_output@@AEAAHH_W@Z 0000000140058d10 f i libucrtd:output.obj
 0001:00057e60       ?type_case_s_compute_narrow_string_length@?$output_processor@_WV?$string_output_adapter@_W@__crt_stdio_output@@V?$format_validation_base@_WV?$string_output_adapter@_W@__crt_stdio_output@@@2@@__crt_stdio_output@@AEAAHH_W@Z 0000000140058e60 f i libucrtd:output.obj
 0001:00057fb0       ?type_case_s_compute_narrow_string_length@?$output_processor@_WV?$string_output_adapter@_W@__crt_stdio_output@@V?$positional_parameter_base@_WV?$string_output_adapter@_W@__crt_stdio_output@@@2@@__crt_stdio_output@@AEAAHH_W@Z 0000000140058fb0 f i libucrtd:output.obj
 0001:00058100       ?type_case_s_compute_narrow_string_length@?$output_processor@_WV?$string_output_adapter@_W@__crt_stdio_output@@V?$standard_base@_WV?$string_output_adapter@_W@__crt_stdio_output@@@2@@__crt_stdio_output@@AEAAHH_W@Z 0000000140059100 f i libucrtd:output.obj
 0001:00058250       ?type_case_u@?$output_processor@DV?$stream_output_adapter@D@__crt_stdio_output@@V?$format_validation_base@DV?$stream_output_adapter@D@__crt_stdio_output@@@2@@__crt_stdio_output@@AEAA_NXZ 0000000140059250 f i libucrtd:output.obj
 0001:00058270       ?type_case_u@?$output_processor@DV?$stream_output_adapter@D@__crt_stdio_output@@V?$positional_parameter_base@DV?$stream_output_adapter@D@__crt_stdio_output@@@2@@__crt_stdio_output@@AEAA_NXZ 0000000140059270 f i libucrtd:output.obj
 0001:00058290       ?type_case_u@?$output_processor@DV?$stream_output_adapter@D@__crt_stdio_output@@V?$standard_base@DV?$stream_output_adapter@D@__crt_stdio_output@@@2@@__crt_stdio_output@@AEAA_NXZ 0000000140059290 f i libucrtd:output.obj
 0001:000582b0       ?type_case_u@?$output_processor@DV?$string_output_adapter@D@__crt_stdio_output@@V?$format_validation_base@DV?$string_output_adapter@D@__crt_stdio_output@@@2@@__crt_stdio_output@@AEAA_NXZ 00000001400592b0 f i libucrtd:output.obj
 0001:000582d0       ?type_case_u@?$output_processor@DV?$string_output_adapter@D@__crt_stdio_output@@V?$positional_parameter_base@DV?$string_output_adapter@D@__crt_stdio_output@@@2@@__crt_stdio_output@@AEAA_NXZ 00000001400592d0 f i libucrtd:output.obj
 0001:000582f0       ?type_case_u@?$output_processor@DV?$string_output_adapter@D@__crt_stdio_output@@V?$standard_base@DV?$string_output_adapter@D@__crt_stdio_output@@@2@@__crt_stdio_output@@AEAA_NXZ 00000001400592f0 f i libucrtd:output.obj
 0001:00058310       ?type_case_u@?$output_processor@_WV?$stream_output_adapter@_W@__crt_stdio_output@@V?$format_validation_base@_WV?$stream_output_adapter@_W@__crt_stdio_output@@@2@@__crt_stdio_output@@AEAA_NXZ 0000000140059310 f i libucrtd:output.obj
 0001:00058330       ?type_case_u@?$output_processor@_WV?$stream_output_adapter@_W@__crt_stdio_output@@V?$positional_parameter_base@_WV?$stream_output_adapter@_W@__crt_stdio_output@@@2@@__crt_stdio_output@@AEAA_NXZ 0000000140059330 f i libucrtd:output.obj
 0001:00058350       ?type_case_u@?$output_processor@_WV?$stream_output_adapter@_W@__crt_stdio_output@@V?$standard_base@_WV?$stream_output_adapter@_W@__crt_stdio_output@@@2@@__crt_stdio_output@@AEAA_NXZ 0000000140059350 f i libucrtd:output.obj
 0001:00058370       ?type_case_u@?$output_processor@_WV?$string_output_adapter@_W@__crt_stdio_output@@V?$format_validation_base@_WV?$string_output_adapter@_W@__crt_stdio_output@@@2@@__crt_stdio_output@@AEAA_NXZ 0000000140059370 f i libucrtd:output.obj
 0001:00058390       ?type_case_u@?$output_processor@_WV?$string_output_adapter@_W@__crt_stdio_output@@V?$positional_parameter_base@_WV?$string_output_adapter@_W@__crt_stdio_output@@@2@@__crt_stdio_output@@AEAA_NXZ 0000000140059390 f i libucrtd:output.obj
 0001:000583b0       ?type_case_u@?$output_processor@_WV?$string_output_adapter@_W@__crt_stdio_output@@V?$standard_base@_WV?$string_output_adapter@_W@__crt_stdio_output@@@2@@__crt_stdio_output@@AEAA_NXZ 00000001400593b0 f i libucrtd:output.obj
 0001:000583d0       ?type_case_x@?$output_processor@DV?$stream_output_adapter@D@__crt_stdio_output@@V?$format_validation_base@DV?$stream_output_adapter@D@__crt_stdio_output@@@2@@__crt_stdio_output@@AEAA_NXZ 00000001400593d0 f i libucrtd:output.obj
 0001:000583f0       ?type_case_x@?$output_processor@DV?$stream_output_adapter@D@__crt_stdio_output@@V?$positional_parameter_base@DV?$stream_output_adapter@D@__crt_stdio_output@@@2@@__crt_stdio_output@@AEAA_NXZ 00000001400593f0 f i libucrtd:output.obj
 0001:00058410       ?type_case_x@?$output_processor@DV?$stream_output_adapter@D@__crt_stdio_output@@V?$standard_base@DV?$stream_output_adapter@D@__crt_stdio_output@@@2@@__crt_stdio_output@@AEAA_NXZ 0000000140059410 f i libucrtd:output.obj
 0001:00058430       ?type_case_x@?$output_processor@DV?$string_output_adapter@D@__crt_stdio_output@@V?$format_validation_base@DV?$string_output_adapter@D@__crt_stdio_output@@@2@@__crt_stdio_output@@AEAA_NXZ 0000000140059430 f i libucrtd:output.obj
 0001:00058450       ?type_case_x@?$output_processor@DV?$string_output_adapter@D@__crt_stdio_output@@V?$positional_parameter_base@DV?$string_output_adapter@D@__crt_stdio_output@@@2@@__crt_stdio_output@@AEAA_NXZ 0000000140059450 f i libucrtd:output.obj
 0001:00058470       ?type_case_x@?$output_processor@DV?$string_output_adapter@D@__crt_stdio_output@@V?$standard_base@DV?$string_output_adapter@D@__crt_stdio_output@@@2@@__crt_stdio_output@@AEAA_NXZ 0000000140059470 f i libucrtd:output.obj
 0001:00058490       ?type_case_x@?$output_processor@_WV?$stream_output_adapter@_W@__crt_stdio_output@@V?$format_validation_base@_WV?$stream_output_adapter@_W@__crt_stdio_output@@@2@@__crt_stdio_output@@AEAA_NXZ 0000000140059490 f i libucrtd:output.obj
 0001:000584b0       ?type_case_x@?$output_processor@_WV?$stream_output_adapter@_W@__crt_stdio_output@@V?$positional_parameter_base@_WV?$stream_output_adapter@_W@__crt_stdio_output@@@2@@__crt_stdio_output@@AEAA_NXZ 00000001400594b0 f i libucrtd:output.obj
 0001:000584d0       ?type_case_x@?$output_processor@_WV?$stream_output_adapter@_W@__crt_stdio_output@@V?$standard_base@_WV?$stream_output_adapter@_W@__crt_stdio_output@@@2@@__crt_stdio_output@@AEAA_NXZ 00000001400594d0 f i libucrtd:output.obj
 0001:000584f0       ?type_case_x@?$output_processor@_WV?$string_output_adapter@_W@__crt_stdio_output@@V?$format_validation_base@_WV?$string_output_adapter@_W@__crt_stdio_output@@@2@@__crt_stdio_output@@AEAA_NXZ 00000001400594f0 f i libucrtd:output.obj
 0001:00058510       ?type_case_x@?$output_processor@_WV?$string_output_adapter@_W@__crt_stdio_output@@V?$positional_parameter_base@_WV?$string_output_adapter@_W@__crt_stdio_output@@@2@@__crt_stdio_output@@AEAA_NXZ 0000000140059510 f i libucrtd:output.obj
 0001:00058530       ?type_case_x@?$output_processor@_WV?$string_output_adapter@_W@__crt_stdio_output@@V?$standard_base@_WV?$string_output_adapter@_W@__crt_stdio_output@@@2@@__crt_stdio_output@@AEAA_NXZ 0000000140059530 f i libucrtd:output.obj
 0001:00058550       ?unget@?$c_string_character_source@D@__crt_strtox@@QEAAXD@Z 0000000140059550 f i libucrtd:output.obj
 0001:00058630       ?unget@?$c_string_character_source@_W@__crt_strtox@@QEAAX_W@Z 0000000140059630 f i libucrtd:output.obj
 0001:00058710       ?unsafe_value@?$cached@H@__crt_cached_ptd_host@@QEAAHXZ 0000000140059710 f i libucrtd:output.obj
 0001:00058720       ?unsafe_value@?$cached@K@__crt_cached_ptd_host@@QEAAKXZ 0000000140059720 f i libucrtd:output.obj
 0001:00058730       ?unset_flag@?$output_processor@DV?$stream_output_adapter@D@__crt_stdio_output@@V?$format_validation_base@DV?$stream_output_adapter@D@__crt_stdio_output@@@2@@__crt_stdio_output@@AEAAXI@Z 0000000140059730 f i libucrtd:output.obj
 0001:00058760       ?unset_flag@?$output_processor@DV?$stream_output_adapter@D@__crt_stdio_output@@V?$positional_parameter_base@DV?$stream_output_adapter@D@__crt_stdio_output@@@2@@__crt_stdio_output@@AEAAXI@Z 0000000140059760 f i libucrtd:output.obj
 0001:00058790       ?unset_flag@?$output_processor@DV?$stream_output_adapter@D@__crt_stdio_output@@V?$standard_base@DV?$stream_output_adapter@D@__crt_stdio_output@@@2@@__crt_stdio_output@@AEAAXI@Z 0000000140059790 f i libucrtd:output.obj
 0001:000587c0       ?unset_flag@?$output_processor@DV?$string_output_adapter@D@__crt_stdio_output@@V?$format_validation_base@DV?$string_output_adapter@D@__crt_stdio_output@@@2@@__crt_stdio_output@@AEAAXI@Z 00000001400597c0 f i libucrtd:output.obj
 0001:000587f0       ?unset_flag@?$output_processor@DV?$string_output_adapter@D@__crt_stdio_output@@V?$positional_parameter_base@DV?$string_output_adapter@D@__crt_stdio_output@@@2@@__crt_stdio_output@@AEAAXI@Z 00000001400597f0 f i libucrtd:output.obj
 0001:00058820       ?unset_flag@?$output_processor@DV?$string_output_adapter@D@__crt_stdio_output@@V?$standard_base@DV?$string_output_adapter@D@__crt_stdio_output@@@2@@__crt_stdio_output@@AEAAXI@Z 0000000140059820 f i libucrtd:output.obj
 0001:00058850       ?unset_flag@?$output_processor@_WV?$stream_output_adapter@_W@__crt_stdio_output@@V?$format_validation_base@_WV?$stream_output_adapter@_W@__crt_stdio_output@@@2@@__crt_stdio_output@@AEAAXI@Z 0000000140059850 f i libucrtd:output.obj
 0001:00058880       ?unset_flag@?$output_processor@_WV?$stream_output_adapter@_W@__crt_stdio_output@@V?$positional_parameter_base@_WV?$stream_output_adapter@_W@__crt_stdio_output@@@2@@__crt_stdio_output@@AEAAXI@Z 0000000140059880 f i libucrtd:output.obj
 0001:000588b0       ?unset_flag@?$output_processor@_WV?$stream_output_adapter@_W@__crt_stdio_output@@V?$standard_base@_WV?$stream_output_adapter@_W@__crt_stdio_output@@@2@@__crt_stdio_output@@AEAAXI@Z 00000001400598b0 f i libucrtd:output.obj
 0001:000588e0       ?unset_flag@?$output_processor@_WV?$string_output_adapter@_W@__crt_stdio_output@@V?$format_validation_base@_WV?$string_output_adapter@_W@__crt_stdio_output@@@2@@__crt_stdio_output@@AEAAXI@Z 00000001400598e0 f i libucrtd:output.obj
 0001:00058910       ?unset_flag@?$output_processor@_WV?$string_output_adapter@_W@__crt_stdio_output@@V?$positional_parameter_base@_WV?$string_output_adapter@_W@__crt_stdio_output@@@2@@__crt_stdio_output@@AEAAXI@Z 0000000140059910 f i libucrtd:output.obj
 0001:00058940       ?unset_flag@?$output_processor@_WV?$string_output_adapter@_W@__crt_stdio_output@@V?$standard_base@_WV?$string_output_adapter@_W@__crt_stdio_output@@@2@@__crt_stdio_output@@AEAAXI@Z 0000000140059940 f i libucrtd:output.obj
 0001:00058970       ?update_field_width@?$positional_parameter_base@DV?$stream_output_adapter@D@__crt_stdio_output@@@__crt_stdio_output@@IEAA_NXZ 0000000140059970 f i libucrtd:output.obj
 0001:00058b70       ?update_field_width@?$positional_parameter_base@DV?$string_output_adapter@D@__crt_stdio_output@@@__crt_stdio_output@@IEAA_NXZ 0000000140059b70 f i libucrtd:output.obj
 0001:00058d70       ?update_field_width@?$positional_parameter_base@_WV?$stream_output_adapter@_W@__crt_stdio_output@@@__crt_stdio_output@@IEAA_NXZ 0000000140059d70 f i libucrtd:output.obj
 0001:00058f70       ?update_field_width@?$positional_parameter_base@_WV?$string_output_adapter@_W@__crt_stdio_output@@@__crt_stdio_output@@IEAA_NXZ 0000000140059f70 f i libucrtd:output.obj
 0001:00059170       ?update_field_width@?$standard_base@DV?$stream_output_adapter@D@__crt_stdio_output@@@__crt_stdio_output@@IEAA_NXZ 000000014005a170 f i libucrtd:output.obj
 0001:000591a0       ?update_field_width@?$standard_base@DV?$string_output_adapter@D@__crt_stdio_output@@@__crt_stdio_output@@IEAA_NXZ 000000014005a1a0 f i libucrtd:output.obj
 0001:000591d0       ?update_field_width@?$standard_base@_WV?$stream_output_adapter@_W@__crt_stdio_output@@@__crt_stdio_output@@IEAA_NXZ 000000014005a1d0 f i libucrtd:output.obj
 0001:00059200       ?update_field_width@?$standard_base@_WV?$string_output_adapter@_W@__crt_stdio_output@@@__crt_stdio_output@@IEAA_NXZ 000000014005a200 f i libucrtd:output.obj
 0001:00059230       ?update_locale@__crt_cached_ptd_host@@AEAAXXZ 000000014005a230 f i libucrtd:output.obj
 0001:00059260       ?update_locale_slow@__crt_cached_ptd_host@@AEAAXXZ 000000014005a260 f i libucrtd:output.obj
 0001:00059310       ?update_precision@?$positional_parameter_base@DV?$stream_output_adapter@D@__crt_stdio_output@@@__crt_stdio_output@@IEAA_NXZ 000000014005a310 f i libucrtd:output.obj
 0001:00059510       ?update_precision@?$positional_parameter_base@DV?$string_output_adapter@D@__crt_stdio_output@@@__crt_stdio_output@@IEAA_NXZ 000000014005a510 f i libucrtd:output.obj
 0001:00059710       ?update_precision@?$positional_parameter_base@_WV?$stream_output_adapter@_W@__crt_stdio_output@@@__crt_stdio_output@@IEAA_NXZ 000000014005a710 f i libucrtd:output.obj
 0001:00059910       ?update_precision@?$positional_parameter_base@_WV?$string_output_adapter@_W@__crt_stdio_output@@@__crt_stdio_output@@IEAA_NXZ 000000014005a910 f i libucrtd:output.obj
 0001:00059b10       ?update_precision@?$standard_base@DV?$stream_output_adapter@D@__crt_stdio_output@@@__crt_stdio_output@@IEAA_NXZ 000000014005ab10 f i libucrtd:output.obj
 0001:00059b40       ?update_precision@?$standard_base@DV?$string_output_adapter@D@__crt_stdio_output@@@__crt_stdio_output@@IEAA_NXZ 000000014005ab40 f i libucrtd:output.obj
 0001:00059b70       ?update_precision@?$standard_base@_WV?$stream_output_adapter@_W@__crt_stdio_output@@@__crt_stdio_output@@IEAA_NXZ 000000014005ab70 f i libucrtd:output.obj
 0001:00059ba0       ?update_precision@?$standard_base@_WV?$string_output_adapter@_W@__crt_stdio_output@@@__crt_stdio_output@@IEAA_NXZ 000000014005aba0 f i libucrtd:output.obj
 0001:00059bd0       ?valid@?$cached@H@__crt_cached_ptd_host@@QEBA_NXZ 000000014005abd0 f i libucrtd:output.obj
 0001:00059be0       ?valid@?$cached@K@__crt_cached_ptd_host@@QEBA_NXZ 000000014005abe0 f i libucrtd:output.obj
 0001:00059bf0       ?valid@__crt_stdio_stream@@QEBA_NXZ 000000014005abf0 f i libucrtd:output.obj
 0001:00059c20       ?validate@?$c_string_character_source@D@__crt_strtox@@QEBA_NXZ 000000014005ac20 f i libucrtd:output.obj
 0001:00059ce0       ?validate@?$c_string_character_source@_W@__crt_strtox@@QEBA_NXZ 000000014005ace0 f i libucrtd:output.obj
 0001:00059da0       ?validate@?$stream_output_adapter@D@__crt_stdio_output@@QEBA_NAEAV__crt_cached_ptd_host@@@Z 000000014005ada0 f i libucrtd:output.obj
 0001:00059ea0       ?validate@?$stream_output_adapter@_W@__crt_stdio_output@@QEBA_NAEAV__crt_cached_ptd_host@@@Z 000000014005aea0 f i libucrtd:output.obj
 0001:00059fa0       ?validate@?$string_output_adapter@D@__crt_stdio_output@@QEBA_NAEAV__crt_cached_ptd_host@@@Z 000000014005afa0 f i libucrtd:output.obj
 0001:0005a080       ?validate@?$string_output_adapter@_W@__crt_stdio_output@@QEBA_NAEAV__crt_cached_ptd_host@@@Z 000000014005b080 f i libucrtd:output.obj
 0001:0005a160       ?validate_and_store_parameter_data@?$positional_parameter_base@DV?$stream_output_adapter@D@__crt_stdio_output@@@__crt_stdio_output@@AEAA_NAEAUparameter_data@12@W4parameter_type@12@DW4length_modifier@2@@Z 000000014005b160 f i libucrtd:output.obj
 0001:0005a2a0       ?validate_and_store_parameter_data@?$positional_parameter_base@DV?$string_output_adapter@D@__crt_stdio_output@@@__crt_stdio_output@@AEAA_NAEAUparameter_data@12@W4parameter_type@12@DW4length_modifier@2@@Z 000000014005b2a0 f i libucrtd:output.obj
 0001:0005a3e0       ?validate_and_store_parameter_data@?$positional_parameter_base@_WV?$stream_output_adapter@_W@__crt_stdio_output@@@__crt_stdio_output@@AEAA_NAEAUparameter_data@12@W4parameter_type@12@_WW4length_modifier@2@@Z 000000014005b3e0 f i libucrtd:output.obj
 0001:0005a520       ?validate_and_store_parameter_data@?$positional_parameter_base@_WV?$string_output_adapter@_W@__crt_stdio_output@@@__crt_stdio_output@@AEAA_NAEAUparameter_data@12@W4parameter_type@12@_WW4length_modifier@2@@Z 000000014005b520 f i libucrtd:output.obj
 0001:0005a660       ?validate_and_update_state_at_beginning_of_format_character@?$positional_parameter_base@DV?$stream_output_adapter@D@__crt_stdio_output@@@__crt_stdio_output@@IEAA_NXZ 000000014005b660 f i libucrtd:output.obj
 0001:0005a900       ?validate_and_update_state_at_beginning_of_format_character@?$positional_parameter_base@DV?$string_output_adapter@D@__crt_stdio_output@@@__crt_stdio_output@@IEAA_NXZ 000000014005b900 f i libucrtd:output.obj
 0001:0005aba0       ?validate_and_update_state_at_beginning_of_format_character@?$positional_parameter_base@_WV?$stream_output_adapter@_W@__crt_stdio_output@@@__crt_stdio_output@@IEAA_NXZ 000000014005bba0 f i libucrtd:output.obj
 0001:0005ae40       ?validate_and_update_state_at_beginning_of_format_character@?$positional_parameter_base@_WV?$string_output_adapter@_W@__crt_stdio_output@@@__crt_stdio_output@@IEAA_NXZ 000000014005be40 f i libucrtd:output.obj
 0001:0005b0e0       ?validate_and_update_state_at_beginning_of_format_character@?$standard_base@DV?$stream_output_adapter@D@__crt_stdio_output@@@__crt_stdio_output@@IEAA_NXZ 000000014005c0e0 f i libucrtd:output.obj
 0001:0005b0f0       ?validate_and_update_state_at_beginning_of_format_character@?$standard_base@DV?$string_output_adapter@D@__crt_stdio_output@@@__crt_stdio_output@@IEAA_NXZ 000000014005c0f0 f i libucrtd:output.obj
 0001:0005b100       ?validate_and_update_state_at_beginning_of_format_character@?$standard_base@_WV?$stream_output_adapter@_W@__crt_stdio_output@@@__crt_stdio_output@@IEAA_NXZ 000000014005c100 f i libucrtd:output.obj
 0001:0005b110       ?validate_and_update_state_at_beginning_of_format_character@?$standard_base@_WV?$string_output_adapter@_W@__crt_stdio_output@@@__crt_stdio_output@@IEAA_NXZ 000000014005c110 f i libucrtd:output.obj
 0001:0005b120       ?validate_and_update_state_at_end_of_format_string@?$format_validation_base@DV?$stream_output_adapter@D@__crt_stdio_output@@@__crt_stdio_output@@IEAA_NXZ 000000014005c120 f i libucrtd:output.obj
 0001:0005b210       ?validate_and_update_state_at_end_of_format_string@?$format_validation_base@DV?$string_output_adapter@D@__crt_stdio_output@@@__crt_stdio_output@@IEAA_NXZ 000000014005c210 f i libucrtd:output.obj
 0001:0005b300       ?validate_and_update_state_at_end_of_format_string@?$format_validation_base@_WV?$stream_output_adapter@_W@__crt_stdio_output@@@__crt_stdio_output@@IEAA_NXZ 000000014005c300 f i libucrtd:output.obj
 0001:0005b3f0       ?validate_and_update_state_at_end_of_format_string@?$format_validation_base@_WV?$string_output_adapter@_W@__crt_stdio_output@@@__crt_stdio_output@@IEAA_NXZ 000000014005c3f0 f i libucrtd:output.obj
 0001:0005b4e0       ?validate_and_update_state_at_end_of_format_string@?$positional_parameter_base@DV?$stream_output_adapter@D@__crt_stdio_output@@@__crt_stdio_output@@IEAA_NXZ 000000014005c4e0 f i libucrtd:output.obj
 0001:0005b710       ?validate_and_update_state_at_end_of_format_string@?$positional_parameter_base@DV?$string_output_adapter@D@__crt_stdio_output@@@__crt_stdio_output@@IEAA_NXZ 000000014005c710 f i libucrtd:output.obj
 0001:0005b940       ?validate_and_update_state_at_end_of_format_string@?$positional_parameter_base@_WV?$stream_output_adapter@_W@__crt_stdio_output@@@__crt_stdio_output@@IEAA_NXZ 000000014005c940 f i libucrtd:output.obj
 0001:0005bb70       ?validate_and_update_state_at_end_of_format_string@?$positional_parameter_base@_WV?$string_output_adapter@_W@__crt_stdio_output@@@__crt_stdio_output@@IEAA_NXZ 000000014005cb70 f i libucrtd:output.obj
 0001:0005bda0       ?validate_and_update_state_at_end_of_format_string@?$standard_base@DV?$stream_output_adapter@D@__crt_stdio_output@@@__crt_stdio_output@@IEBA_NXZ 000000014005cda0 f i libucrtd:output.obj
 0001:0005bdb0       ?validate_and_update_state_at_end_of_format_string@?$standard_base@DV?$string_output_adapter@D@__crt_stdio_output@@@__crt_stdio_output@@IEBA_NXZ 000000014005cdb0 f i libucrtd:output.obj
 0001:0005bdc0       ?validate_and_update_state_at_end_of_format_string@?$standard_base@_WV?$stream_output_adapter@_W@__crt_stdio_output@@@__crt_stdio_output@@IEBA_NXZ 000000014005cdc0 f i libucrtd:output.obj
 0001:0005bdd0       ?validate_and_update_state_at_end_of_format_string@?$standard_base@_WV?$string_output_adapter@_W@__crt_stdio_output@@@__crt_stdio_output@@IEBA_NXZ 000000014005cdd0 f i libucrtd:output.obj
 0001:0005bde0       ?validate_state_for_type_case_a@?$positional_parameter_base@DV?$stream_output_adapter@D@__crt_stdio_output@@@__crt_stdio_output@@IEAA_NXZ 000000014005cde0 f i libucrtd:output.obj
 0001:0005bf40       ?validate_state_for_type_case_a@?$positional_parameter_base@DV?$string_output_adapter@D@__crt_stdio_output@@@__crt_stdio_output@@IEAA_NXZ 000000014005cf40 f i libucrtd:output.obj
 0001:0005c0a0       ?validate_state_for_type_case_a@?$positional_parameter_base@_WV?$stream_output_adapter@_W@__crt_stdio_output@@@__crt_stdio_output@@IEAA_NXZ 000000014005d0a0 f i libucrtd:output.obj
 0001:0005c200       ?validate_state_for_type_case_a@?$positional_parameter_base@_WV?$string_output_adapter@_W@__crt_stdio_output@@@__crt_stdio_output@@IEAA_NXZ 000000014005d200 f i libucrtd:output.obj
 0001:0005c360       ?validate_state_for_type_case_a@?$standard_base@DV?$stream_output_adapter@D@__crt_stdio_output@@@__crt_stdio_output@@IEBA_NXZ 000000014005d360 f i libucrtd:output.obj
 0001:0005c370       ?validate_state_for_type_case_a@?$standard_base@DV?$string_output_adapter@D@__crt_stdio_output@@@__crt_stdio_output@@IEBA_NXZ 000000014005d370 f i libucrtd:output.obj
 0001:0005c380       ?validate_state_for_type_case_a@?$standard_base@_WV?$stream_output_adapter@_W@__crt_stdio_output@@@__crt_stdio_output@@IEBA_NXZ 000000014005d380 f i libucrtd:output.obj
 0001:0005c390       ?validate_state_for_type_case_a@?$standard_base@_WV?$string_output_adapter@_W@__crt_stdio_output@@@__crt_stdio_output@@IEBA_NXZ 000000014005d390 f i libucrtd:output.obj
 0001:0005c3a0       ?validate_stream_is_ansi_if_required@?$__acrt_stdio_char_traits@D@@SA_NQEAU_iobuf@@@Z 000000014005d3a0 f i libucrtd:output.obj
 0001:0005c540       ?validate_stream_is_ansi_if_required@?$__acrt_stdio_char_traits@_W@@SA_NQEAU_iobuf@@@Z 000000014005d540 f i libucrtd:output.obj
 0001:0005c550       ?wide_character_to_digit@__crt_strtox@@YAH_W@Z 000000014005d550 f i libucrtd:output.obj
 0001:0005c8c0       ?wide_null_string@?$output_processor@DV?$stream_output_adapter@D@__crt_stdio_output@@V?$format_validation_base@DV?$stream_output_adapter@D@__crt_stdio_output@@@2@@__crt_stdio_output@@CAPEA_WXZ 000000014005d8c0 f i libucrtd:output.obj
 0001:0005c8d0       ?wide_null_string@?$output_processor@DV?$stream_output_adapter@D@__crt_stdio_output@@V?$positional_parameter_base@DV?$stream_output_adapter@D@__crt_stdio_output@@@2@@__crt_stdio_output@@CAPEA_WXZ 000000014005d8d0 f i libucrtd:output.obj
 0001:0005c8e0       ?wide_null_string@?$output_processor@DV?$stream_output_adapter@D@__crt_stdio_output@@V?$standard_base@DV?$stream_output_adapter@D@__crt_stdio_output@@@2@@__crt_stdio_output@@CAPEA_WXZ 000000014005d8e0 f i libucrtd:output.obj
 0001:0005c8f0       ?wide_null_string@?$output_processor@DV?$string_output_adapter@D@__crt_stdio_output@@V?$format_validation_base@DV?$string_output_adapter@D@__crt_stdio_output@@@2@@__crt_stdio_output@@CAPEA_WXZ 000000014005d8f0 f i libucrtd:output.obj
 0001:0005c900       ?wide_null_string@?$output_processor@DV?$string_output_adapter@D@__crt_stdio_output@@V?$positional_parameter_base@DV?$string_output_adapter@D@__crt_stdio_output@@@2@@__crt_stdio_output@@CAPEA_WXZ 000000014005d900 f i libucrtd:output.obj
 0001:0005c910       ?wide_null_string@?$output_processor@DV?$string_output_adapter@D@__crt_stdio_output@@V?$standard_base@DV?$string_output_adapter@D@__crt_stdio_output@@@2@@__crt_stdio_output@@CAPEA_WXZ 000000014005d910 f i libucrtd:output.obj
 0001:0005c920       ?wide_null_string@?$output_processor@_WV?$stream_output_adapter@_W@__crt_stdio_output@@V?$format_validation_base@_WV?$stream_output_adapter@_W@__crt_stdio_output@@@2@@__crt_stdio_output@@CAPEA_WXZ 000000014005d920 f i libucrtd:output.obj
 0001:0005c930       ?wide_null_string@?$output_processor@_WV?$stream_output_adapter@_W@__crt_stdio_output@@V?$positional_parameter_base@_WV?$stream_output_adapter@_W@__crt_stdio_output@@@2@@__crt_stdio_output@@CAPEA_WXZ 000000014005d930 f i libucrtd:output.obj
 0001:0005c940       ?wide_null_string@?$output_processor@_WV?$stream_output_adapter@_W@__crt_stdio_output@@V?$standard_base@_WV?$stream_output_adapter@_W@__crt_stdio_output@@@2@@__crt_stdio_output@@CAPEA_WXZ 000000014005d940 f i libucrtd:output.obj
 0001:0005c950       ?wide_null_string@?$output_processor@_WV?$string_output_adapter@_W@__crt_stdio_output@@V?$format_validation_base@_WV?$string_output_adapter@_W@__crt_stdio_output@@@2@@__crt_stdio_output@@CAPEA_WXZ 000000014005d950 f i libucrtd:output.obj
 0001:0005c960       ?wide_null_string@?$output_processor@_WV?$string_output_adapter@_W@__crt_stdio_output@@V?$positional_parameter_base@_WV?$string_output_adapter@_W@__crt_stdio_output@@@2@@__crt_stdio_output@@CAPEA_WXZ 000000014005d960 f i libucrtd:output.obj
 0001:0005c970       ?wide_null_string@?$output_processor@_WV?$string_output_adapter@_W@__crt_stdio_output@@V?$standard_base@_WV?$string_output_adapter@_W@__crt_stdio_output@@@2@@__crt_stdio_output@@CAPEA_WXZ 000000014005d970 f i libucrtd:output.obj
 0001:0005c980       ?write_character@?$output_adapter_common@DV?$stream_output_adapter@D@__crt_stdio_output@@@__crt_stdio_output@@QEBAXDQEAHAEAV__crt_cached_ptd_host@@@Z 000000014005d980 f i libucrtd:output.obj
 0001:0005c9e0       ?write_character@?$output_adapter_common@_WV?$stream_output_adapter@_W@__crt_stdio_output@@@__crt_stdio_output@@QEBAX_WQEAHAEAV__crt_cached_ptd_host@@@Z 000000014005d9e0 f i libucrtd:output.obj
 0001:0005ca40       ?write_character@?$string_output_adapter@D@__crt_stdio_output@@QEBA_NDQEAHAEAV__crt_cached_ptd_host@@@Z 000000014005da40 f i libucrtd:output.obj
 0001:0005cb10       ?write_character@?$string_output_adapter@_W@__crt_stdio_output@@QEBA_N_WQEAHAEAV__crt_cached_ptd_host@@@Z 000000014005db10 f i libucrtd:output.obj
 0001:0005cbe0       ?write_character_without_count_update@?$stream_output_adapter@D@__crt_stdio_output@@QEBA_NDAEAV__crt_cached_ptd_host@@@Z 000000014005dbe0 f i libucrtd:output.obj
 0001:0005cc70       ?write_character_without_count_update@?$stream_output_adapter@_W@__crt_stdio_output@@QEBA_N_WAEAV__crt_cached_ptd_host@@@Z 000000014005dc70 f i libucrtd:output.obj
 0001:0005cd00       ?write_stored_string_tchar@?$output_processor@DV?$stream_output_adapter@D@__crt_stdio_output@@V?$format_validation_base@DV?$stream_output_adapter@D@__crt_stdio_output@@@2@@__crt_stdio_output@@AEAA_ND@Z 000000014005dd00 f i libucrtd:output.obj
 0001:0005cff0       ?write_stored_string_tchar@?$output_processor@DV?$stream_output_adapter@D@__crt_stdio_output@@V?$positional_parameter_base@DV?$stream_output_adapter@D@__crt_stdio_output@@@2@@__crt_stdio_output@@AEAA_ND@Z 000000014005dff0 f i libucrtd:output.obj
 0001:0005d2e0       ?write_stored_string_tchar@?$output_processor@DV?$stream_output_adapter@D@__crt_stdio_output@@V?$standard_base@DV?$stream_output_adapter@D@__crt_stdio_output@@@2@@__crt_stdio_output@@AEAA_ND@Z 000000014005e2e0 f i libucrtd:output.obj
 0001:0005d5d0       ?write_stored_string_tchar@?$output_processor@DV?$string_output_adapter@D@__crt_stdio_output@@V?$format_validation_base@DV?$string_output_adapter@D@__crt_stdio_output@@@2@@__crt_stdio_output@@AEAA_ND@Z 000000014005e5d0 f i libucrtd:output.obj
 0001:0005d8c0       ?write_stored_string_tchar@?$output_processor@DV?$string_output_adapter@D@__crt_stdio_output@@V?$positional_parameter_base@DV?$string_output_adapter@D@__crt_stdio_output@@@2@@__crt_stdio_output@@AEAA_ND@Z 000000014005e8c0 f i libucrtd:output.obj
 0001:0005dbb0       ?write_stored_string_tchar@?$output_processor@DV?$string_output_adapter@D@__crt_stdio_output@@V?$standard_base@DV?$string_output_adapter@D@__crt_stdio_output@@@2@@__crt_stdio_output@@AEAA_ND@Z 000000014005ebb0 f i libucrtd:output.obj
 0001:0005dea0       ?write_stored_string_tchar@?$output_processor@_WV?$stream_output_adapter@_W@__crt_stdio_output@@V?$format_validation_base@_WV?$stream_output_adapter@_W@__crt_stdio_output@@@2@@__crt_stdio_output@@AEAA_N_W@Z 000000014005eea0 f i libucrtd:output.obj
 0001:0005e1c0       ?write_stored_string_tchar@?$output_processor@_WV?$stream_output_adapter@_W@__crt_stdio_output@@V?$positional_parameter_base@_WV?$stream_output_adapter@_W@__crt_stdio_output@@@2@@__crt_stdio_output@@AEAA_N_W@Z 000000014005f1c0 f i libucrtd:output.obj
 0001:0005e4e0       ?write_stored_string_tchar@?$output_processor@_WV?$stream_output_adapter@_W@__crt_stdio_output@@V?$standard_base@_WV?$stream_output_adapter@_W@__crt_stdio_output@@@2@@__crt_stdio_output@@AEAA_N_W@Z 000000014005f4e0 f i libucrtd:output.obj
 0001:0005e800       ?write_stored_string_tchar@?$output_processor@_WV?$string_output_adapter@_W@__crt_stdio_output@@V?$format_validation_base@_WV?$string_output_adapter@_W@__crt_stdio_output@@@2@@__crt_stdio_output@@AEAA_N_W@Z 000000014005f800 f i libucrtd:output.obj
 0001:0005eb20       ?write_stored_string_tchar@?$output_processor@_WV?$string_output_adapter@_W@__crt_stdio_output@@V?$positional_parameter_base@_WV?$string_output_adapter@_W@__crt_stdio_output@@@2@@__crt_stdio_output@@AEAA_N_W@Z 000000014005fb20 f i libucrtd:output.obj
 0001:0005ee40       ?write_stored_string_tchar@?$output_processor@_WV?$string_output_adapter@_W@__crt_stdio_output@@V?$standard_base@_WV?$string_output_adapter@_W@__crt_stdio_output@@@2@@__crt_stdio_output@@AEAA_N_W@Z 000000014005fe40 f i libucrtd:output.obj
 0001:0005f160       ?write_string@?$stream_output_adapter@D@__crt_stdio_output@@QEBAXQEBDHQEAHAEAV__crt_cached_ptd_host@@@Z 0000000140060160 f i libucrtd:output.obj
 0001:0005f1e0       ?write_string@?$stream_output_adapter@_W@__crt_stdio_output@@QEBAXQEB_WHQEAHAEAV__crt_cached_ptd_host@@@Z 00000001400601e0 f i libucrtd:output.obj
 0001:0005f260       ?write_string@?$string_output_adapter@D@__crt_stdio_output@@QEBAXQEBDHQEAHAEAV__crt_cached_ptd_host@@@Z 0000000140060260 f i libucrtd:output.obj
 0001:0005f3d0       ?write_string@?$string_output_adapter@_W@__crt_stdio_output@@QEBAXQEB_WHQEAHAEAV__crt_cached_ptd_host@@@Z 00000001400603d0 f i libucrtd:output.obj
 0001:0005f540       ?write_string_impl@?$output_adapter_common@DV?$stream_output_adapter@D@__crt_stdio_output@@@__crt_stdio_output@@IEBAXQEBDHQEAHAEAV__crt_cached_ptd_host@@@Z 0000000140060540 f i libucrtd:output.obj
 0001:0005f660       ?write_string_impl@?$output_adapter_common@_WV?$stream_output_adapter@_W@__crt_stdio_output@@@__crt_stdio_output@@IEBAXQEB_WHQEAHAEAV__crt_cached_ptd_host@@@Z 0000000140060660 f i libucrtd:output.obj
 0001:0005f780       __acrt_disable_global_locale_sync 0000000140060780 f i libucrtd:output.obj
 0001:0005f7b0       __acrt_enable_global_locale_sync 00000001400607b0 f i libucrtd:output.obj
 0001:0005f7e0       __acrt_isleadbyte_l_noupdate 00000001400607e0 f i libucrtd:output.obj
 0001:0005f810       __acrt_locale_changed      0000000140060810 f i libucrtd:output.obj
 0001:0005f840       __acrt_locale_get_ctype_array_value 0000000140060840 f i libucrtd:output.obj
 0001:0005f880       __ascii_iswalpha           0000000140060880 f i libucrtd:output.obj
 0001:0005f8c0       __ascii_toupper            00000001400608c0 f i libucrtd:output.obj
 0001:0005f8e0       __ascii_towupper           00000001400608e0 f i libucrtd:output.obj
 0001:0005f900       __stdio_common_vfprintf    0000000140060900 f   libucrtd:output.obj
 0001:0005f980       __stdio_common_vfprintf_p  0000000140060980 f   libucrtd:output.obj
 0001:0005fa00       __stdio_common_vfprintf_s  0000000140060a00 f   libucrtd:output.obj
 0001:0005fa80       __stdio_common_vfwprintf   0000000140060a80 f   libucrtd:output.obj
 0001:0005fb00       __stdio_common_vfwprintf_p 0000000140060b00 f   libucrtd:output.obj
 0001:0005fb80       __stdio_common_vfwprintf_s 0000000140060b80 f   libucrtd:output.obj
 0001:0005fc00       __stdio_common_vsnprintf_s 0000000140060c00 f   libucrtd:output.obj
 0001:0005fc90       __stdio_common_vsnwprintf_s 0000000140060c90 f   libucrtd:output.obj
 0001:0005fd20       __stdio_common_vsprintf    0000000140060d20 f   libucrtd:output.obj
 0001:0005fdb0       __stdio_common_vsprintf_p  0000000140060db0 f   libucrtd:output.obj
 0001:0005fe40       __stdio_common_vsprintf_s  0000000140060e40 f   libucrtd:output.obj
 0001:0005fed0       __stdio_common_vswprintf   0000000140060ed0 f   libucrtd:output.obj
 0001:0005ff60       __stdio_common_vswprintf_p 0000000140060f60 f   libucrtd:output.obj
 0001:0005fff0       __stdio_common_vswprintf_s 0000000140060ff0 f   libucrtd:output.obj
 0001:00060080       _ctype_fast_check_internal 0000000140061080 f i libucrtd:output.obj
 0001:000600b0       _isdigit_fast_internal     00000001400610b0 f i libucrtd:output.obj
 0001:000600e0       _tolower_fast_internal     00000001400610e0 f i libucrtd:output.obj
 0001:00060180       _seh_filter_dll            0000000140061180 f   libucrtd:exception_filter.obj
 0001:000601b0       _seh_filter_exe            00000001400611b0 f   libucrtd:exception_filter.obj
 0001:00060640       __acrt_report_runtime_error 0000000140061640 f   libucrtd:report_runtime_error.obj
 0001:000608c0       _invoke_watson_if_error    00000001400618c0 f i libucrtd:report_runtime_error.obj
 0001:00060910       _query_app_type            0000000140061910 f   libucrtd:report_runtime_error.obj
 0001:00060920       _set_app_type              0000000140061920 f   libucrtd:report_runtime_error.obj
 0001:00060930       ??$__crt_fast_decode_pointer@P6AHPEAU_exception@@@Z@@YAP6AHPEAU_exception@@@ZQ6AH0@Z@Z 0000000140061930 f i libucrtd:matherr.obj
 0001:00060950       ??$__crt_fast_encode_pointer@P6AHPEAU_exception@@@Z@@YAP6AHPEAU_exception@@@ZQ6AH0@Z@Z 0000000140061950 f i libucrtd:matherr.obj
 0001:00060970       ?__crt_rotate_pointer_value@@YA_K_KH@Z 0000000140061970 f i libucrtd:matherr.obj
 0001:00060980       ?get_current_state_index@__crt_state_management@@YA_KXZ 0000000140061980 f i libucrtd:matherr.obj
 0001:00060990       ?initialize@?$dual_state_global@P6AHPEAU_exception@@@Z@__crt_state_management@@QEAAXQ6AHPEAU_exception@@@Z@Z 0000000140061990 f i libucrtd:matherr.obj
 0001:000609a0       ?value@?$dual_state_global@P6AHPEAU_exception@@@Z@__crt_state_management@@QEAAAEAP6AHPEAU_exception@@@ZXZ 00000001400619a0 f i libucrtd:matherr.obj
 0001:000609b0       __acrt_has_user_matherr    00000001400619b0 f   libucrtd:matherr.obj
 0001:000609d0       __acrt_initialize_user_matherr 00000001400619d0 f   libucrtd:matherr.obj
 0001:000609e0       __acrt_invoke_user_matherr 00000001400619e0 f   libucrtd:matherr.obj
 0001:00060a10       __setusermatherr           0000000140061a10 f   libucrtd:matherr.obj
 0001:00060a40       ??$?RE@__crt_internal_free_policy@@QEBAXQEBE@Z 0000000140061a40 f i libucrtd:argv_parsing.obj
 0001:00060a70       ??$?RPEAD@__crt_internal_free_policy@@QEBAXQEBQEAD@Z 0000000140061a70 f i libucrtd:argv_parsing.obj
 0001:00060aa0       ??$?RPEA_W@__crt_internal_free_policy@@QEBAXQEBQEA_W@Z 0000000140061aa0 f i libucrtd:argv_parsing.obj
 0001:000611f0       ??$get_module_file_name@$$TAEAY0BAF@DH@?$__crt_char_traits@D@@SAK$$QEA$$TAEAY0BAF@D$$QEAH@Z 00000001400621f0 f i libucrtd:argv_parsing.obj
 0001:00061230       ??$get_module_file_name@$$TAEAY0BAF@_WH@?$__crt_char_traits@_W@@SAK$$QEA$$TAEAY0BAF@_W$$QEAH@Z 0000000140062230 f i libucrtd:argv_parsing.obj
 0001:00061c50       ??$set_program_name@PEAD@?$__crt_char_traits@D@@SAX$$QEAPEAD@Z 0000000140062c50 f i libucrtd:argv_parsing.obj
 0001:00061c70       ??$set_program_name@PEA_W@?$__crt_char_traits@_W@@SAX$$QEAPEA_W@Z 0000000140062c70 f i libucrtd:argv_parsing.obj
 0001:00061cd0       ??0?$__crt_unique_heap_ptr@EU__crt_internal_free_policy@@@@QEAA@QEAE@Z 0000000140062cd0 f i libucrtd:argv_parsing.obj
 0001:00061cf0       ??0?$__crt_unique_heap_ptr@PEADU__crt_internal_free_policy@@@@QEAA@QEAPEAD@Z 0000000140062cf0 f i libucrtd:argv_parsing.obj
 0001:00061d10       ??0?$__crt_unique_heap_ptr@PEA_WU__crt_internal_free_policy@@@@QEAA@QEAPEA_W@Z 0000000140062d10 f i libucrtd:argv_parsing.obj
 0001:00061d30       ??1?$__crt_unique_heap_ptr@EU__crt_internal_free_policy@@@@QEAA@XZ 0000000140062d30 f i libucrtd:argv_parsing.obj
 0001:00061d50       ??1?$__crt_unique_heap_ptr@PEADU__crt_internal_free_policy@@@@QEAA@XZ 0000000140062d50 f i libucrtd:argv_parsing.obj
 0001:00061d70       ??1?$__crt_unique_heap_ptr@PEA_WU__crt_internal_free_policy@@@@QEAA@XZ 0000000140062d70 f i libucrtd:argv_parsing.obj
 0001:00061d90       ??B?$__crt_unique_heap_ptr@EU__crt_internal_free_policy@@@@QEBA_NXZ 0000000140062d90 f i libucrtd:argv_parsing.obj
 0001:00061e70       ?detach@?$__crt_unique_heap_ptr@EU__crt_internal_free_policy@@@@QEAAPEAEXZ 0000000140062e70 f i libucrtd:argv_parsing.obj
 0001:00061ea0       ?detach@?$__crt_unique_heap_ptr@PEADU__crt_internal_free_policy@@@@QEAAPEAPEADXZ 0000000140062ea0 f i libucrtd:argv_parsing.obj
 0001:00061ed0       ?detach@?$__crt_unique_heap_ptr@PEA_WU__crt_internal_free_policy@@@@QEAAPEAPEA_WXZ 0000000140062ed0 f i libucrtd:argv_parsing.obj
 0001:00061f90       ?get@?$__crt_unique_heap_ptr@EU__crt_internal_free_policy@@@@QEBAPEAEXZ 0000000140062f90 f i libucrtd:argv_parsing.obj
 0001:00061fa0       ?get@?$__crt_unique_heap_ptr@PEADU__crt_internal_free_policy@@@@QEBAPEAPEADXZ 0000000140062fa0 f i libucrtd:argv_parsing.obj
 0001:00061fb0       ?get@?$__crt_unique_heap_ptr@PEA_WU__crt_internal_free_policy@@@@QEBAPEAPEA_WXZ 0000000140062fb0 f i libucrtd:argv_parsing.obj
 0001:00061fc0       ?get_address_of@?$__crt_unique_heap_ptr@PEADU__crt_internal_free_policy@@@@QEAAPEAPEAPEADXZ 0000000140062fc0 f i libucrtd:argv_parsing.obj
 0001:00061fd0       ?get_address_of@?$__crt_unique_heap_ptr@PEA_WU__crt_internal_free_policy@@@@QEAAPEAPEAPEA_WXZ 0000000140062fd0 f i libucrtd:argv_parsing.obj
 0001:00062020       ?is_valid@?$__crt_unique_heap_ptr@EU__crt_internal_free_policy@@@@QEBA_NXZ 0000000140063020 f i libucrtd:argv_parsing.obj
 0001:00062050       ?release@?$__crt_unique_heap_ptr@EU__crt_internal_free_policy@@@@QEAAXXZ 0000000140063050 f i libucrtd:argv_parsing.obj
 0001:00062080       ?release@?$__crt_unique_heap_ptr@PEADU__crt_internal_free_policy@@@@QEAAXXZ 0000000140063080 f i libucrtd:argv_parsing.obj
 0001:000620b0       ?release@?$__crt_unique_heap_ptr@PEA_WU__crt_internal_free_policy@@@@QEAAXXZ 00000001400630b0 f i libucrtd:argv_parsing.obj
 0001:00062130       __acrt_allocate_buffer_for_argv 0000000140063130 f   libucrtd:argv_parsing.obj
 0001:00062250       _configure_narrow_argv     0000000140063250 f   libucrtd:argv_parsing.obj
 0001:00062270       _configure_wide_argv       0000000140063270 f   libucrtd:argv_parsing.obj
 0001:00062290       _set_pgmptr                0000000140063290 f i libucrtd:argv_parsing.obj
 0001:000622b0       _set_wpgmptr               00000001400632b0 f i libucrtd:argv_parsing.obj
 0001:000622d0       ??$?R_W@__crt_internal_free_policy@@QEBAXQEB_W@Z 00000001400632d0 f i libucrtd:environment_initialization.obj
 0001:00062c90       ??$get_environment_from_os@$$V@?$__crt_char_traits@D@@SAPEADXZ 0000000140063c90 f i libucrtd:environment_initialization.obj
 0001:00062ca0       ??$get_environment_from_os@$$V@?$__crt_char_traits@_W@@SAPEA_WXZ 0000000140063ca0 f i libucrtd:environment_initialization.obj
 0001:00062fb0       ??$set_variable_in_environment_nolock@PEADH@?$__crt_char_traits@D@@SAH$$QEAPEAD$$QEAH@Z 0000000140063fb0 f i libucrtd:environment_initialization.obj
 0001:00062fe0       ??$set_variable_in_environment_nolock@PEA_WH@?$__crt_char_traits@_W@@SAH$$QEAPEA_W$$QEAH@Z 0000000140063fe0 f i libucrtd:environment_initialization.obj
 0001:00063010       ??$tcscpy_s@PEADAEB_KAEAPEAD@?$__crt_char_traits@D@@SAH$$QEAPEADAEB_KAEAPEAD@Z 0000000140064010 f i libucrtd:environment_initialization.obj
 0001:00063050       ??$tcscpy_s@PEA_WAEB_KAEAPEA_W@?$__crt_char_traits@_W@@SAH$$QEAPEA_WAEB_KAEAPEA_W@Z 0000000140064050 f i libucrtd:environment_initialization.obj
 0001:00063090       ??$tcslen@AEAPEAD@?$__crt_char_traits@D@@SA_KAEAPEAD@Z 0000000140064090 f i libucrtd:environment_initialization.obj
 0001:000630b0       ??$tcslen@AEAPEA_W@?$__crt_char_traits@_W@@SA_KAEAPEA_W@Z 00000001400640b0 f i libucrtd:environment_initialization.obj
 0001:000630d0       ??$uninitialize@A6AXAEAPEAPEAD@_E@?$dual_state_global@PEAPEAD@__crt_state_management@@QEAAXA6AXAEAPEAPEAD@_E@Z 00000001400640d0 f i libucrtd:environment_initialization.obj
 0001:00063140       ??$uninitialize@A6AXAEAPEAPEA_W@_E@?$dual_state_global@PEAPEA_W@__crt_state_management@@QEAAXA6AXAEAPEAPEA_W@_E@Z 0000000140064140 f i libucrtd:environment_initialization.obj
 0001:00063230       ??0?$__crt_unique_heap_ptr@_WU__crt_internal_free_policy@@@@QEAA@QEA_W@Z 0000000140064230 f i libucrtd:environment_initialization.obj
 0001:00063250       ??1?$__crt_unique_heap_ptr@_WU__crt_internal_free_policy@@@@QEAA@XZ 0000000140064250 f i libucrtd:environment_initialization.obj
 0001:00063270       ??B?$__crt_unique_heap_ptr@PEADU__crt_internal_free_policy@@@@QEBA_NXZ 0000000140064270 f i libucrtd:environment_initialization.obj
 0001:00063290       ??B?$__crt_unique_heap_ptr@PEA_WU__crt_internal_free_policy@@@@QEBA_NXZ 0000000140064290 f i libucrtd:environment_initialization.obj
 0001:000632b0       ??B?$__crt_unique_heap_ptr@_WU__crt_internal_free_policy@@@@QEBA_NXZ 00000001400642b0 f i libucrtd:environment_initialization.obj
 0001:000632d0       ?__crt_compute_required_transform_buffer_count@@YA_KIQEBD@Z 00000001400642d0 f i libucrtd:environment_initialization.obj
 0001:00063310       ?__crt_compute_required_transform_buffer_count@@YA_KIQEB_W@Z 0000000140064310 f i libucrtd:environment_initialization.obj
 0001:00063360       ?__crt_transform_string@@YA_KIQEBDQEA_W_K@Z 0000000140064360 f i libucrtd:environment_initialization.obj
 0001:000633b0       ?__crt_transform_string@@YA_KIQEB_WQEAD_K@Z 00000001400643b0 f i libucrtd:environment_initialization.obj
 0001:00063410       ?detach@?$__crt_unique_heap_ptr@DU__crt_internal_free_policy@@@@QEAAPEADXZ 0000000140064410 f i libucrtd:environment_initialization.obj
 0001:00063440       ?detach@?$__crt_unique_heap_ptr@_WU__crt_internal_free_policy@@@@QEAAPEA_WXZ 0000000140064440 f i libucrtd:environment_initialization.obj
 0001:00063470       ?get@?$__crt_unique_heap_ptr@_WU__crt_internal_free_policy@@@@QEBAPEA_WXZ 0000000140064470 f i libucrtd:environment_initialization.obj
 0001:00063500       ?initialize@?$dual_state_global@PEAPEAD@__crt_state_management@@QEAAXQEAPEAD@Z 0000000140064500 f i libucrtd:environment_initialization.obj
 0001:00063550       ?initialize@?$dual_state_global@PEAPEA_W@__crt_state_management@@QEAAXQEAPEA_W@Z 0000000140064550 f i libucrtd:environment_initialization.obj
 0001:000635a0       ?is_valid@?$__crt_unique_heap_ptr@PEADU__crt_internal_free_policy@@@@QEBA_NXZ 00000001400645a0 f i libucrtd:environment_initialization.obj
 0001:000635d0       ?is_valid@?$__crt_unique_heap_ptr@PEA_WU__crt_internal_free_policy@@@@QEBA_NXZ 00000001400645d0 f i libucrtd:environment_initialization.obj
 0001:00063600       ?is_valid@?$__crt_unique_heap_ptr@_WU__crt_internal_free_policy@@@@QEBA_NXZ 0000000140064600 f i libucrtd:environment_initialization.obj
 0001:00063660       ?release@?$__crt_unique_heap_ptr@_WU__crt_internal_free_policy@@@@QEAAXXZ 0000000140064660 f i libucrtd:environment_initialization.obj
 0001:00063690       ?value@?$dual_state_global@PEAPEAD@__crt_state_management@@QEAAAEAPEAPEADXZ 0000000140064690 f i libucrtd:environment_initialization.obj
 0001:000636b0       ?value@?$dual_state_global@PEAPEA_W@__crt_state_management@@QEAAAEAPEAPEA_WXZ 00000001400646b0 f i libucrtd:environment_initialization.obj
 0001:000636d0       __dcrt_get_or_create_narrow_environment_nolock 00000001400646d0 f   libucrtd:environment_initialization.obj
 0001:000636e0       __dcrt_get_or_create_wide_environment_nolock 00000001400646e0 f   libucrtd:environment_initialization.obj
 0001:000636f0       __dcrt_uninitialize_environments_nolock 00000001400646f0 f   libucrtd:environment_initialization.obj
 0001:00063740       __p__environ               0000000140064740 f   libucrtd:environment_initialization.obj
 0001:00063760       __p__wenviron              0000000140064760 f   libucrtd:environment_initialization.obj
 0001:00063780       _get_initial_narrow_environment 0000000140064780 f   libucrtd:environment_initialization.obj
 0001:00063790       _get_initial_wide_environment 0000000140064790 f   libucrtd:environment_initialization.obj
 0001:000637a0       _initialize_narrow_environment 00000001400647a0 f   libucrtd:environment_initialization.obj
 0001:000637b0       _initialize_wide_environment 00000001400647b0 f   libucrtd:environment_initialization.obj
 0001:00063a60       _get_narrow_winmain_command_line 0000000140064a60 f   libucrtd:argv_winmain.obj
 0001:00063a70       _get_wide_winmain_command_line 0000000140064a70 f   libucrtd:argv_winmain.obj
 0001:00063a80       _initterm                  0000000140064a80 f   libucrtd:initterm.obj
 0001:00063ae0       _initterm_e                0000000140064ae0 f   libucrtd:initterm.obj
 0001:00063b60       ??$?B$$A6AXPEAXK0@Z@__crt_fast_encoded_nullptr_t@@QEBAP6AXPEAXK0@ZXZ 0000000140064b60 f i libucrtd:exit.obj
 0001:00063c20       ??$__crt_fast_decode_pointer@P6AXPEAXK0@Z@@YAP6AXPEAXK0@ZQ6AX0K0@Z@Z 0000000140064c20 f i libucrtd:exit.obj
 0001:00063c60       ??$__crt_fast_encode_pointer@P6AXPEAXK0@Z@@YAP6AXPEAXK0@ZQ6AX0K0@Z@Z 0000000140064c60 f i libucrtd:exit.obj
 0001:00063ca0       ??$__crt_get_proc_address@P6AXI@Z@@YAP6AXI@ZQEAUHINSTANCE__@@QEBD@Z 0000000140064ca0 f i libucrtd:exit.obj
 0001:00063d60       ??0?$__crt_unique_handle_t@U__crt_hmodule_traits@@@@QEAA@QEAUHINSTANCE__@@@Z 0000000140064d60 f i libucrtd:exit.obj
 0001:00063d80       ??1?$__crt_unique_handle_t@U__crt_hmodule_traits@@@@QEAA@XZ 0000000140064d80 f i libucrtd:exit.obj
 0001:00063ef0       ?__acrt_select_exit_lock@@YA?AW4__acrt_lock_id@@XZ 0000000140064ef0 f i libucrtd:exit.obj
 0001:00063f00       ?__crt_fast_encode_pointer@@YA?AU__crt_fast_encoded_nullptr_t@@$$T@Z 0000000140064f00 f i libucrtd:exit.obj
 0001:00063f40       ?close@?$__crt_unique_handle_t@U__crt_hmodule_traits@@@@QEAAXXZ 0000000140064f40 f i libucrtd:exit.obj
 0001:00063f80       ?close@__crt_hmodule_traits@@SA_NPEAUHINSTANCE__@@@Z 0000000140064f80 f i libucrtd:exit.obj
 0001:000640c0       ?get@?$__crt_unique_handle_t@U__crt_hmodule_traits@@@@QEBAPEAUHINSTANCE__@@XZ 00000001400650c0 f i libucrtd:exit.obj
 0001:000640d0       ?get_address_of@?$__crt_unique_handle_t@U__crt_hmodule_traits@@@@QEAAPEAPEAUHINSTANCE__@@XZ 00000001400650d0 f i libucrtd:exit.obj
 0001:000640e0       ?get_invalid_value@__crt_hmodule_traits@@SAPEAUHINSTANCE__@@XZ 00000001400650e0 f i libucrtd:exit.obj
 0001:00064290       _Exit                      0000000140065290 f   libucrtd:exit.obj
 0001:000642b0       __acrt_initialize_thread_local_exit_callback 00000001400652b0 f   libucrtd:exit.obj
 0001:000642d0       _c_exit                    00000001400652d0 f   libucrtd:exit.obj
 0001:000642f0       _cexit                     00000001400652f0 f   libucrtd:exit.obj
 0001:00064310       _exit                      0000000140065310 f   libucrtd:exit.obj
 0001:00064330       _is_c_termination_complete 0000000140065330 f   libucrtd:exit.obj
 0001:00064350       _register_thread_local_exe_atexit_callback 0000000140065350 f   libucrtd:exit.obj
 0001:000643a0       exit                       00000001400653a0 f   libucrtd:exit.obj
 0001:000643c0       quick_exit                 00000001400653c0 f   libucrtd:exit.obj
 0001:000643e0       ??$__crt_interlocked_read@H@@YAHPEDH@Z 00000001400653e0 f i libucrtd:setmode.obj
 0001:00064400       ?value@?$dual_state_global@H@__crt_state_management@@QEAAAEAHXZ 0000000140065400 f i libucrtd:setmode.obj
 0001:00064420       _get_fmode                 0000000140065420 f   libucrtd:setmode.obj
 0001:000644f0       _set_fmode                 00000001400654f0 f   libucrtd:setmode.obj
 0001:000645d0       _setmode                   00000001400655d0 f   libucrtd:setmode.obj
 0001:00064900       _setmode_nolock            0000000140065900 f   libucrtd:setmode.obj
 0001:00064bd0       ??$?RU__crt_locale_data@@@__crt_internal_free_policy@@QEBAXQEBU__crt_locale_data@@@Z 0000000140065bd0 f i libucrtd:wsetlocale.obj
 0001:00064c00       ??$?RU__crt_locale_pointers@@@__crt_internal_free_policy@@QEBAXQEBU__crt_locale_pointers@@@Z 0000000140065c00 f i libucrtd:wsetlocale.obj
 0001:00064c30       ??$?RU__crt_multibyte_data@@@__crt_internal_free_policy@@QEBAXQEBU__crt_multibyte_data@@@Z 0000000140065c30 f i libucrtd:wsetlocale.obj
 0001:000651e0       ??0?$__crt_unique_heap_ptr@U__crt_locale_data@@U__crt_internal_free_policy@@@@QEAA@QEAU__crt_locale_data@@@Z 00000001400661e0 f i libucrtd:wsetlocale.obj
 0001:00065200       ??0?$__crt_unique_heap_ptr@U__crt_locale_pointers@@U__crt_internal_free_policy@@@@QEAA@QEAU__crt_locale_pointers@@@Z 0000000140066200 f i libucrtd:wsetlocale.obj
 0001:00065220       ??0?$__crt_unique_heap_ptr@U__crt_multibyte_data@@U__crt_internal_free_policy@@@@QEAA@QEAU__crt_multibyte_data@@@Z 0000000140066220 f i libucrtd:wsetlocale.obj
 0001:00065240       ??0_expandlocale_locale_name_cache@@QEAA@QEA_W_KQEAU__crt_qualified_locale_data@@@Z 0000000140066240 f i libucrtd:wsetlocale.obj
 0001:000652f0       ??1?$__crt_unique_heap_ptr@U__crt_locale_data@@U__crt_internal_free_policy@@@@QEAA@XZ 00000001400662f0 f i libucrtd:wsetlocale.obj
 0001:00065310       ??1?$__crt_unique_heap_ptr@U__crt_locale_pointers@@U__crt_internal_free_policy@@@@QEAA@XZ 0000000140066310 f i libucrtd:wsetlocale.obj
 0001:00065330       ??1?$__crt_unique_heap_ptr@U__crt_multibyte_data@@U__crt_internal_free_policy@@@@QEAA@XZ 0000000140066330 f i libucrtd:wsetlocale.obj
 0001:00065350       ??1_expandlocale_locale_name_cache@@QEAA@XZ 0000000140066350 f i libucrtd:wsetlocale.obj
 0001:000653d0       ??B?$__crt_unique_heap_ptr@U__crt_locale_data@@U__crt_internal_free_policy@@@@QEBA_NXZ 00000001400663d0 f i libucrtd:wsetlocale.obj
 0001:000653f0       ??B?$__crt_unique_heap_ptr@U__crt_locale_pointers@@U__crt_internal_free_policy@@@@QEBA_NXZ 00000001400663f0 f i libucrtd:wsetlocale.obj
 0001:00065410       ??B?$__crt_unique_heap_ptr@U__crt_multibyte_data@@U__crt_internal_free_policy@@@@QEBA_NXZ 0000000140066410 f i libucrtd:wsetlocale.obj
 0001:000658c0       ?commit_locale_name@_expandlocale_locale_name_cache@@QEAAXQEB_W_K@Z 00000001400668c0 f i libucrtd:wsetlocale.obj
 0001:00065940       ?commit_locale_name_cache_already_updated@_expandlocale_locale_name_cache@@QEAAXQEB_W_K@Z 0000000140066940 f i libucrtd:wsetlocale.obj
 0001:000659b0       ?detach@?$__crt_unique_heap_ptr@U__crt_locale_data@@U__crt_internal_free_policy@@@@QEAAPEAU__crt_locale_data@@XZ 00000001400669b0 f i libucrtd:wsetlocale.obj
 0001:000659e0       ?detach@?$__crt_unique_heap_ptr@U__crt_locale_pointers@@U__crt_internal_free_policy@@@@QEAAPEAU__crt_locale_pointers@@XZ 00000001400669e0 f i libucrtd:wsetlocale.obj
 0001:00065a10       ?detach@?$__crt_unique_heap_ptr@U__crt_multibyte_data@@U__crt_internal_free_policy@@@@QEAAPEAU__crt_multibyte_data@@XZ 0000000140066a10 f i libucrtd:wsetlocale.obj
 0001:00065a40       ?get@?$__crt_unique_heap_ptr@U__crt_locale_data@@U__crt_internal_free_policy@@@@QEBAPEAU__crt_locale_data@@XZ 0000000140066a40 f i libucrtd:wsetlocale.obj
 0001:00065a50       ?get@?$__crt_unique_heap_ptr@U__crt_locale_pointers@@U__crt_internal_free_policy@@@@QEBAPEAU__crt_locale_pointers@@XZ 0000000140066a50 f i libucrtd:wsetlocale.obj
 0001:00065a60       ?get@?$__crt_unique_heap_ptr@U__crt_multibyte_data@@U__crt_internal_free_policy@@@@QEBAPEAU__crt_multibyte_data@@XZ 0000000140066a60 f i libucrtd:wsetlocale.obj
 0001:00065a70       ?is_valid@?$__crt_unique_heap_ptr@U__crt_locale_data@@U__crt_internal_free_policy@@@@QEBA_NXZ 0000000140066a70 f i libucrtd:wsetlocale.obj
 0001:00065aa0       ?is_valid@?$__crt_unique_heap_ptr@U__crt_locale_pointers@@U__crt_internal_free_policy@@@@QEBA_NXZ 0000000140066aa0 f i libucrtd:wsetlocale.obj
 0001:00065ad0       ?is_valid@?$__crt_unique_heap_ptr@U__crt_multibyte_data@@U__crt_internal_free_policy@@@@QEBA_NXZ 0000000140066ad0 f i libucrtd:wsetlocale.obj
 0001:00065b00       ?release@?$__crt_unique_heap_ptr@U__crt_locale_data@@U__crt_internal_free_policy@@@@QEAAXXZ 0000000140066b00 f i libucrtd:wsetlocale.obj
 0001:00065b30       ?release@?$__crt_unique_heap_ptr@U__crt_locale_pointers@@U__crt_internal_free_policy@@@@QEAAXXZ 0000000140066b30 f i libucrtd:wsetlocale.obj
 0001:00065b60       ?release@?$__crt_unique_heap_ptr@U__crt_multibyte_data@@U__crt_internal_free_policy@@@@QEAAXXZ 0000000140066b60 f i libucrtd:wsetlocale.obj
 0001:00065b90       ?value@?$dual_state_global@PEAU__crt_locale_data@@@__crt_state_management@@QEAAAEAPEAU__crt_locale_data@@XZ 0000000140066b90 f i libucrtd:wsetlocale.obj
 0001:00065bb0       __acrt_copy_locale_name    0000000140066bb0 f   libucrtd:wsetlocale.obj
 0001:00065c90       __acrt_set_locale_changed  0000000140066c90 f   libucrtd:wsetlocale.obj
 0001:00065ca0       __acrt_uninitialize_locale 0000000140066ca0 f   libucrtd:wsetlocale.obj
 0001:00065cd0       __ascii_tolower            0000000140066cd0 f i libucrtd:wsetlocale.obj
 0001:00065cf0       __ascii_towlower           0000000140066cf0 f i libucrtd:wsetlocale.obj
 0001:00065d10       __lc_lctowcs               0000000140066d10 f   libucrtd:wsetlocale.obj
 0001:00065e00       __lc_wcstolc               0000000140066e00 f   libucrtd:wsetlocale.obj
 0001:000660e0       _configthreadlocale        00000001400670e0 f   libucrtd:wsetlocale.obj
 0001:000662a0       _create_locale             00000001400672a0 f   libucrtd:wsetlocale.obj
 0001:000669b0       _free_locale               00000001400679b0 f   libucrtd:wsetlocale.obj
 0001:00066aa0       _get_current_locale        0000000140067aa0 f   libucrtd:wsetlocale.obj
 0001:00066bc0       _wcreate_locale            0000000140067bc0 f   libucrtd:wsetlocale.obj
 0001:00066ec0       _wcscats                   0000000140067ec0 f   libucrtd:wsetlocale.obj
 0001:00066fb0       _wsetlocale                0000000140067fb0 f   libucrtd:wsetlocale.obj
 0001:00068c60       _query_new_mode            0000000140069c60 f   libucrtd:new_mode.obj
 0001:00068c90       _set_new_mode              0000000140069c90 f   libucrtd:new_mode.obj
 0001:00068d60       ?value@?$dual_state_global@J@__crt_state_management@@QEAAAEAJXZ 0000000140069d60 f i libucrtd:new_mode.obj
 0001:00068d80       __p__commode               0000000140069d80 f   libucrtd:ncommode.obj
 0001:00068d90       ??$?B$$A6AXXZ@__crt_fast_encoded_nullptr_t@@QEBAP6AXXZXZ 0000000140069d90 f i libucrtd:onexit.obj
 0001:00068db0       ??$?BP6AXXZ@__crt_fast_encoded_nullptr_t@@QEBAPEAP6AXXZXZ 0000000140069db0 f i libucrtd:onexit.obj
 0001:00068dd0       ??$?RP6AXXZ@__crt_internal_free_policy@@QEBAXQEBQ6AXXZ@Z 0000000140069dd0 f i libucrtd:onexit.obj
 0001:00068f60       ??$__crt_fast_decode_pointer@P6AXXZ@@YAP6AXXZQ6AXXZ@Z 0000000140069f60 f i libucrtd:onexit.obj
 0001:00068fa0       ??$__crt_fast_decode_pointer@PEAP6AXXZ@@YAPEAP6AXXZQEAP6AXXZ@Z 0000000140069fa0 f i libucrtd:onexit.obj
 0001:00068fe0       ??$__crt_fast_encode_pointer@P6AHXZ@@YAP6AHXZQ6AHXZ@Z 0000000140069fe0 f i libucrtd:onexit.obj
 0001:00069020       ??$__crt_fast_encode_pointer@P6AXXZ@@YAP6AXXZQ6AXXZ@Z 000000014006a020 f i libucrtd:onexit.obj
 0001:00069060       ??$__crt_fast_encode_pointer@PEAP6AXXZ@@YAPEAP6AXXZQEAP6AXXZ@Z 000000014006a060 f i libucrtd:onexit.obj
 0001:00069170       ??0?$__crt_unique_heap_ptr@P6AXXZU__crt_internal_free_policy@@@@QEAA@QEAP6AXXZ@Z 000000014006a170 f i libucrtd:onexit.obj
 0001:00069190       ??1?$__crt_unique_heap_ptr@P6AXXZU__crt_internal_free_policy@@@@QEAA@XZ 000000014006a190 f i libucrtd:onexit.obj
 0001:000691b0       ??1scoped_global_state_reset@__crt_state_management@@QEAA@XZ 000000014006a1b0 f i libucrtd:onexit.obj
 0001:000697b0       ?detach@?$__crt_unique_heap_ptr@P6AXXZU__crt_internal_free_policy@@@@QEAAPEAP6AXXZXZ 000000014006a7b0 f i libucrtd:onexit.obj
 0001:000697e0       ?release@?$__crt_unique_heap_ptr@P6AXXZU__crt_internal_free_policy@@@@QEAAXXZ 000000014006a7e0 f i libucrtd:onexit.obj
 0001:00069810       _crt_at_quick_exit         000000014006a810 f   libucrtd:onexit.obj
 0001:00069830       _crt_atexit                000000014006a830 f   libucrtd:onexit.obj
 0001:00069850       _execute_onexit_table      000000014006a850 f   libucrtd:onexit.obj
 0001:00069890       _initialize_onexit_table   000000014006a890 f   libucrtd:onexit.obj
 0001:00069910       _register_onexit_function  000000014006a910 f   libucrtd:onexit.obj
 0001:00069b90       ??$?BX@__crt_fast_encoded_nullptr_t@@QEBAPEAXXZ 000000014006ab90 f i libucrtd:initialization.obj
 0001:00069bb0       ??$__crt_fast_encode_pointer@PEAX@@YAPEAXQEAX@Z 000000014006abb0 f i libucrtd:initialization.obj
 0001:00069cb0       ?initialize@?$dual_state_global@PEAU__crt_locale_data@@@__crt_state_management@@QEAAXQEAU__crt_locale_data@@@Z 000000014006acb0 f i libucrtd:initialization.obj
 0001:00069d00       __acrt_initialize          000000014006ad00 f   libucrtd:initialization.obj
 0001:00069d30       __acrt_thread_attach       000000014006ad30 f   libucrtd:initialization.obj
 0001:00069d50       __acrt_thread_detach       000000014006ad50 f   libucrtd:initialization.obj
 0001:00069d60       __acrt_uninitialize        000000014006ad60 f   libucrtd:initialization.obj
 0001:00069d90       __acrt_uninitialize_critical 000000014006ad90 f   libucrtd:initialization.obj
 0001:00069df0       _get_terminate             000000014006adf0 f   libucrtd:terminate.obj
 0001:00069e10       set_terminate              000000014006ae10 f   libucrtd:terminate.obj
 0001:00069e50       terminate                  000000014006ae50 f   libucrtd:terminate.obj
 0001:00069e90       __p__crtDbgFlag            000000014006ae90 f   libucrtd:debug_heap.obj
 0001:00069ea0       __p__crtBreakAlloc         000000014006aea0 f   libucrtd:debug_heap.obj
 0001:00069eb0       _CrtGetAllocHook           000000014006aeb0 f   libucrtd:debug_heap.obj
 0001:00069ec0       _CrtSetAllocHook           000000014006aec0 f   libucrtd:debug_heap.obj
 0001:00069ef0       _CrtGetDumpClient          000000014006aef0 f   libucrtd:debug_heap.obj
 0001:00069f00       _CrtSetDumpClient          000000014006af00 f   libucrtd:debug_heap.obj
 0001:00069f30       _CrtCheckMemory            000000014006af30 f   libucrtd:debug_heap.obj
 0001:0006a0d0       _CrtDoForAllClientObjects  000000014006b0d0 f   libucrtd:debug_heap.obj
 0001:0006a220       _CrtDumpMemoryLeaks        000000014006b220 f   libucrtd:debug_heap.obj
 0001:0006a300       _CrtIsMemoryBlock          000000014006b300 f   libucrtd:debug_heap.obj
 0001:0006a440       _CrtIsValidHeapPointer     000000014006b440 f   libucrtd:debug_heap.obj
 0001:0006a490       _CrtIsValidPointer         000000014006b490 f   libucrtd:debug_heap.obj
 0001:0006a4d0       _CrtMemCheckpoint          000000014006b4d0 f   libucrtd:debug_heap.obj
 0001:0006a760       _CrtMemDifference          000000014006b760 f   libucrtd:debug_heap.obj
 0001:0006aac0       _CrtMemDumpAllObjectsSince 000000014006bac0 f   libucrtd:debug_heap.obj
 0001:0006ab20       _CrtMemDumpStatistics      000000014006bb20 f   libucrtd:debug_heap.obj
 0001:0006acc0       _CrtReportBlockType        000000014006bcc0 f   libucrtd:debug_heap.obj
 0001:0006ad00       _CrtSetBreakAlloc          000000014006bd00 f   libucrtd:debug_heap.obj
 0001:0006ad30       _CrtSetDbgFlag             000000014006bd30 f   libucrtd:debug_heap.obj
 0001:0006ae90       _aligned_free_dbg          000000014006be90 f   libucrtd:debug_heap.obj
 0001:0006af80       _aligned_malloc_dbg        000000014006bf80 f   libucrtd:debug_heap.obj
 0001:0006afd0       _aligned_msize_dbg         000000014006bfd0 f   libucrtd:debug_heap.obj
 0001:0006b1a0       _aligned_offset_malloc_dbg 000000014006c1a0 f   libucrtd:debug_heap.obj
 0001:0006b490       _aligned_offset_realloc_dbg 000000014006c490 f   libucrtd:debug_heap.obj
 0001:0006b990       _aligned_offset_recalloc_dbg 000000014006c990 f   libucrtd:debug_heap.obj
 0001:0006bab0       _aligned_realloc_dbg       000000014006cab0 f   libucrtd:debug_heap.obj
 0001:0006bb00       _aligned_recalloc_dbg      000000014006cb00 f   libucrtd:debug_heap.obj
 0001:0006bb60       _calloc_dbg                000000014006cb60 f   libucrtd:debug_heap.obj
 0001:0006bc00       _expand_dbg                000000014006cc00 f   libucrtd:debug_heap.obj
 0001:0006bd40       _free_dbg                  000000014006cd40 f   libucrtd:debug_heap.obj
 0001:0006bdb0       _malloc_dbg                000000014006cdb0 f   libucrtd:debug_heap.obj
 0001:0006bdf0       _msize_dbg                 000000014006cdf0 f   libucrtd:debug_heap.obj
 0001:0006bf90       _realloc_dbg               000000014006cf90 f   libucrtd:debug_heap.obj
 0001:0006c010       _recalloc_dbg              000000014006d010 f   libucrtd:debug_heap.obj
 0001:0006d8f0       _CrtSetDbgBlockType        000000014006e8f0 f   libucrtd:debug_heap.obj
 0001:0006e5b0       ??0_LocaleUpdate@@QEAA@QEAU__crt_locale_pointers@@@Z 000000014006f5b0 f i libucrtd:debug_heap.obj
 0001:0006e6d0       ??1_LocaleUpdate@@QEAA@XZ  000000014006f6d0 f i libucrtd:debug_heap.obj
 0001:0006e700       ?GetLocaleT@_LocaleUpdate@@QEAAPEAU__crt_locale_pointers@@XZ 000000014006f700 f i libucrtd:debug_heap.obj
 0001:0006e710       __acrt_get_locale_data_prefix 000000014006f710 f i libucrtd:debug_heap.obj
 0001:0006e730       _chvalidchk_l              000000014006f730 f i libucrtd:debug_heap.obj
 0001:0006e760       _invoke_watson_if_oneof    000000014006f760 f i libucrtd:debug_heap.obj
 0001:0006e7c0       _ischartype_l              000000014006f7c0 f i libucrtd:debug_heap.obj
 0001:0006ed30       strcpy_s                   000000014006fd30 f   libucrtd:strcpy_s.obj
 0001:0006ed60       _set_abort_behavior        000000014006fd60 f   libucrtd:abort.obj
 0001:0006eda0       abort                      000000014006fda0 f   libucrtd:abort.obj
 0001:0006ee20       ??$__crt_fast_decode_pointer@P6AXPEB_W00I_K@Z@@YAP6AXPEB_W00I_K@ZQ6AX000I1@Z@Z 000000014006fe20 f i libucrtd:invalid_parameter.obj
 0001:0006ee60       ??$__crt_fast_encode_pointer@P6AXPEB_W00I_K@Z@@YAP6AXPEB_W00I_K@ZQ6AX000I1@Z@Z 000000014006fe60 f i libucrtd:invalid_parameter.obj
 0001:0006eea0       ??$initialize_from_array@$$BY00Q6AXPEB_W00I_K@Z@?$dual_state_global@P6AXPEB_W00I_K@Z@__crt_state_management@@QEAAXAEAY00Q6AXPEB_W00I_K@Z@Z 000000014006fea0 f i libucrtd:invalid_parameter.obj
 0001:0006efc0       ?check_synchronize_global_state_index@__crt_cached_ptd_host@@AEAA_KXZ 000000014006ffc0 f i libucrtd:invalid_parameter.obj
 0001:0006f020       ?dangerous_get_state_array@?$dual_state_global@P6AXPEB_W00I_K@Z@__crt_state_management@@QEAAPEAP6AXPEB_W00I_K@ZXZ 0000000140070020 f i libucrtd:invalid_parameter.obj
 0001:0006f030       ?get_current_global_state_index@__crt_cached_ptd_host@@QEAA_KXZ 0000000140070030 f i libucrtd:invalid_parameter.obj
 0001:0006f050       ?get_raw_ptd_noexit@__crt_cached_ptd_host@@QEAAPEAU__acrt_ptd@@XZ 0000000140070050 f i libucrtd:invalid_parameter.obj
 0001:0006f070       ?try_synchronize_per_thread_data@__crt_cached_ptd_host@@AEAAPEAU__acrt_ptd@@XZ 0000000140070070 f i libucrtd:invalid_parameter.obj
 0001:0006f0a0       ?value@?$dual_state_global@P6AXPEB_W00I_K@Z@__crt_state_management@@QEAAAEAP6AXPEB_W00I_K@ZAEAV__crt_cached_ptd_host@@@Z 00000001400700a0 f i libucrtd:invalid_parameter.obj
 0001:0006f0d0       ?value@?$dual_state_global@P6AXPEB_W00I_K@Z@__crt_state_management@@QEAAAEAP6AXPEB_W00I_K@ZXZ 00000001400700d0 f i libucrtd:invalid_parameter.obj
 0001:0006f0f0       __acrt_call_reportfault    00000001400700f0 f   libucrtd:invalid_parameter.obj
 0001:0006f220       __acrt_initialize_invalid_parameter_handler 0000000140070220 f   libucrtd:invalid_parameter.obj
 0001:0006f250       _get_invalid_parameter_handler 0000000140070250 f   libucrtd:invalid_parameter.obj
 0001:0006f270       _get_thread_local_invalid_parameter_handler 0000000140070270 f   libucrtd:invalid_parameter.obj
 0001:0006f2a0       _invalid_parameter         00000001400702a0 f   libucrtd:invalid_parameter.obj
 0001:0006f310       _invalid_parameter_internal 0000000140070310 f   libucrtd:invalid_parameter.obj
 0001:0006f450       _invalid_parameter_noinfo  0000000140070450 f   libucrtd:invalid_parameter.obj
 0001:0006f480       _invalid_parameter_noinfo_noreturn 0000000140070480 f   libucrtd:invalid_parameter.obj
 0001:0006f4c0       _invoke_watson             00000001400704c0 f   libucrtd:invalid_parameter.obj
 0001:0006f520       _set_invalid_parameter_handler 0000000140070520 f   libucrtd:invalid_parameter.obj
 0001:0006f570       _set_thread_local_invalid_parameter_handler 0000000140070570 f   libucrtd:invalid_parameter.obj
 0001:0006f5b0       ??$?RU?$__crt_report_hook_node@D@@@__crt_internal_free_policy@@QEBAXQEBU?$__crt_report_hook_node@D@@@Z 00000001400705b0 f i libucrtd:dbgrpt.obj
 0001:0006f5e0       ??$?RU?$__crt_report_hook_node@_W@@@__crt_internal_free_policy@@QEBAXQEBU?$__crt_report_hook_node@_W@@@Z 00000001400705e0 f i libucrtd:dbgrpt.obj
 0001:00070860       ??$get_module_file_name@AEAPEAUHINSTANCE__@@AEAY0BAF@DK@?$__crt_char_traits@D@@SAKAEAPEAUHINSTANCE__@@AEAY0BAF@D$$QEAK@Z 0000000140071860 f i libucrtd:dbgrpt.obj
 0001:000708a0       ??$get_module_file_name@AEAPEAUHINSTANCE__@@AEAY0BAF@_WK@?$__crt_char_traits@_W@@SAKAEAPEAUHINSTANCE__@@AEAY0BAF@_W$$QEAK@Z 00000001400718a0 f i libucrtd:dbgrpt.obj
 0001:000708e0       ??$tcscpy_s@AEAY0BAF@D_KPEBD@?$__crt_char_traits@D@@SAHAEAY0BAF@D$$QEA_K$$QEAPEBD@Z 00000001400718e0 f i libucrtd:dbgrpt.obj
 0001:00070920       ??$tcscpy_s@AEAY0BAF@_W_KPEB_W@?$__crt_char_traits@_W@@SAHAEAY0BAF@_W$$QEA_K$$QEAPEB_W@Z 0000000140071920 f i libucrtd:dbgrpt.obj
 0001:00070960       ??$tcslen@AEAY0BAF@D@?$__crt_char_traits@D@@SA_KAEAY0BAF@D@Z 0000000140071960 f i libucrtd:dbgrpt.obj
 0001:00070980       ??$tcslen@AEAY0BAF@_W@?$__crt_char_traits@_W@@SA_KAEAY0BAF@_W@Z 0000000140071980 f i libucrtd:dbgrpt.obj
 0001:000709a0       ??$tcslen@AEBQEBD@?$__crt_char_traits@D@@SA_KAEBQEBD@Z 00000001400719a0 f i libucrtd:dbgrpt.obj
 0001:000709c0       ??$tcslen@AEBQEB_W@?$__crt_char_traits@_W@@SA_KAEBQEB_W@Z 00000001400719c0 f i libucrtd:dbgrpt.obj
 0001:00070ac0       ??0?$__crt_unique_heap_ptr@U?$__crt_report_hook_node@D@@U__crt_internal_free_policy@@@@QEAA@QEAU?$__crt_report_hook_node@D@@@Z 0000000140071ac0 f i libucrtd:dbgrpt.obj
 0001:00070ae0       ??0?$__crt_unique_heap_ptr@U?$__crt_report_hook_node@_W@@U__crt_internal_free_policy@@@@QEAA@QEAU?$__crt_report_hook_node@_W@@@Z 0000000140071ae0 f i libucrtd:dbgrpt.obj
 0001:00070b00       ??1?$__crt_unique_heap_ptr@U?$__crt_report_hook_node@D@@U__crt_internal_free_policy@@@@QEAA@XZ 0000000140071b00 f i libucrtd:dbgrpt.obj
 0001:00070b20       ??1?$__crt_unique_heap_ptr@U?$__crt_report_hook_node@_W@@U__crt_internal_free_policy@@@@QEAA@XZ 0000000140071b20 f i libucrtd:dbgrpt.obj
 0001:00070b40       ??B?$__crt_unique_heap_ptr@U?$__crt_report_hook_node@D@@U__crt_internal_free_policy@@@@QEBA_NXZ 0000000140071b40 f i libucrtd:dbgrpt.obj
 0001:00070b60       ??B?$__crt_unique_heap_ptr@U?$__crt_report_hook_node@_W@@U__crt_internal_free_policy@@@@QEBA_NXZ 0000000140071b60 f i libucrtd:dbgrpt.obj
 0001:00071280       ?detach@?$__crt_unique_heap_ptr@U?$__crt_report_hook_node@D@@U__crt_internal_free_policy@@@@QEAAPEAU?$__crt_report_hook_node@D@@XZ 0000000140072280 f i libucrtd:dbgrpt.obj
 0001:000712b0       ?detach@?$__crt_unique_heap_ptr@U?$__crt_report_hook_node@_W@@U__crt_internal_free_policy@@@@QEAAPEAU?$__crt_report_hook_node@_W@@XZ 00000001400722b0 f i libucrtd:dbgrpt.obj
 0001:000712e0       ?get@?$__crt_unique_heap_ptr@U?$__crt_report_hook_node@D@@U__crt_internal_free_policy@@@@QEBAPEAU?$__crt_report_hook_node@D@@XZ 00000001400722e0 f i libucrtd:dbgrpt.obj
 0001:000712f0       ?get@?$__crt_unique_heap_ptr@U?$__crt_report_hook_node@_W@@U__crt_internal_free_policy@@@@QEBAPEAU?$__crt_report_hook_node@_W@@XZ 00000001400722f0 f i libucrtd:dbgrpt.obj
 0001:00071360       ?is_valid@?$__crt_unique_heap_ptr@U?$__crt_report_hook_node@D@@U__crt_internal_free_policy@@@@QEBA_NXZ 0000000140072360 f i libucrtd:dbgrpt.obj
 0001:00071390       ?is_valid@?$__crt_unique_heap_ptr@U?$__crt_report_hook_node@_W@@U__crt_internal_free_policy@@@@QEBA_NXZ 0000000140072390 f i libucrtd:dbgrpt.obj
 0001:000713c0       ?release@?$__crt_unique_heap_ptr@U?$__crt_report_hook_node@D@@U__crt_internal_free_policy@@@@QEAAXXZ 00000001400723c0 f i libucrtd:dbgrpt.obj
 0001:000713f0       ?release@?$__crt_unique_heap_ptr@U?$__crt_report_hook_node@_W@@U__crt_internal_free_policy@@@@QEAAXXZ 00000001400723f0 f i libucrtd:dbgrpt.obj
 0001:00071420       _CrtDbgReport              0000000140072420 f   libucrtd:dbgrpt.obj
 0001:000714a0       _CrtDbgReportW             00000001400724a0 f   libucrtd:dbgrpt.obj
 0001:00071520       _CrtSetReportHook2         0000000140072520 f   libucrtd:dbgrpt.obj
 0001:00071540       _CrtSetReportHookW2        0000000140072540 f   libucrtd:dbgrpt.obj
 0001:00071560       __acrt_MessageWindowA      0000000140072560 f   libucrtd:dbgrpt.obj
 0001:000715b0       __acrt_MessageWindowW      00000001400725b0 f   libucrtd:dbgrpt.obj
 0001:00071600       _snwprintf_s               0000000140072600 f i libucrtd:dbgrpt.obj
 0001:00071680       _vsnwprintf_s_l            0000000140072680 f i libucrtd:dbgrpt.obj
 0001:00071700       ??$is_overflow_condition@_K@__crt_strtox@@YA_NI_K@Z 0000000140072700 f i libucrtd:atox.obj
 0001:00071770       ??$make_c_string_character_source@D$$T@__crt_strtox@@YA?AV?$c_string_character_source@D@0@QEBD$$T@Z 0000000140072770 f i libucrtd:atox.obj
 0001:000717b0       ??$make_c_string_character_source@_W$$T@__crt_strtox@@YA?AV?$c_string_character_source@_W@0@QEB_W$$T@Z 00000001400727b0 f i libucrtd:atox.obj
 0001:000717f0       ??$parse_integer@KV?$c_string_character_source@D@__crt_strtox@@$00@__crt_strtox@@YAKAEAV__crt_cached_ptd_host@@V?$c_string_character_source@D@0@H_N@Z 00000001400727f0 f i libucrtd:atox.obj
 0001:00071cb0       ??$parse_integer@KV?$c_string_character_source@_W@__crt_strtox@@$00@__crt_strtox@@YAKAEAV__crt_cached_ptd_host@@V?$c_string_character_source@_W@0@H_N@Z 0000000140072cb0 f i libucrtd:atox.obj
 0001:00072180       ??$parse_integer@_KV?$c_string_character_source@D@__crt_strtox@@$00@__crt_strtox@@YA_KAEAV__crt_cached_ptd_host@@V?$c_string_character_source@D@0@H_N@Z 0000000140073180 f i libucrtd:atox.obj
 0001:00072690       ??$parse_integer@_KV?$c_string_character_source@_W@__crt_strtox@@$00@__crt_strtox@@YA_KAEAV__crt_cached_ptd_host@@V?$c_string_character_source@_W@0@H_N@Z 0000000140073690 f i libucrtd:atox.obj
 0001:00072bb0       ??$parse_integer_from_string@JD$$T@__crt_strtox@@YAJQEBD$$THQEAU__crt_locale_pointers@@@Z 0000000140073bb0 f i libucrtd:atox.obj
 0001:00072c40       ??$parse_integer_from_string@J_W$$T@__crt_strtox@@YAJQEB_W$$THQEAU__crt_locale_pointers@@@Z 0000000140073c40 f i libucrtd:atox.obj
 0001:00072cd0       ??$parse_integer_from_string@_JD$$T@__crt_strtox@@YA_JQEBD$$THQEAU__crt_locale_pointers@@@Z 0000000140073cd0 f i libucrtd:atox.obj
 0001:00072d60       ??$parse_integer_from_string@_J_W$$T@__crt_strtox@@YA_JQEB_W$$THQEAU__crt_locale_pointers@@@Z 0000000140073d60 f i libucrtd:atox.obj
 0001:00072df0       ?is_space@__crt_strtox@@YA_NDQEAU__crt_locale_pointers@@@Z 0000000140073df0 f i libucrtd:atox.obj
 0001:00072e40       ?is_space@__crt_strtox@@YA_N_WPEAU__crt_locale_pointers@@@Z 0000000140073e40 f i libucrtd:atox.obj
 0001:00072e80       ?maximum_signed_value@__crt_strtox@@YA_J_K@Z 0000000140073e80 f i libucrtd:atox.obj
 0001:00072e90       ?minimum_signed_value@__crt_strtox@@YA_J_K@Z 0000000140073e90 f i libucrtd:atox.obj
 0001:00072ea0       _atoi64                    0000000140073ea0 f   libucrtd:atox.obj
 0001:00072ed0       _atoi64_l                  0000000140073ed0 f   libucrtd:atox.obj
 0001:00072f00       _atoi_l                    0000000140073f00 f   libucrtd:atox.obj
 0001:00072f30       _atol_l                    0000000140073f30 f   libucrtd:atox.obj
 0001:00072f60       _atoll_l                   0000000140073f60 f   libucrtd:atox.obj
 0001:00072f90       _wtoi                      0000000140073f90 f   libucrtd:atox.obj
 0001:00072fc0       _wtoi64                    0000000140073fc0 f   libucrtd:atox.obj
 0001:00072ff0       _wtoi64_l                  0000000140073ff0 f   libucrtd:atox.obj
 0001:00073020       _wtoi_l                    0000000140074020 f   libucrtd:atox.obj
 0001:00073050       _wtol                      0000000140074050 f   libucrtd:atox.obj
 0001:00073080       _wtol_l                    0000000140074080 f   libucrtd:atox.obj
 0001:000730b0       _wtoll                     00000001400740b0 f   libucrtd:atox.obj
 0001:000730e0       _wtoll_l                   00000001400740e0 f   libucrtd:atox.obj
 0001:00073110       atoi                       0000000140074110 f   libucrtd:atox.obj
 0001:00073140       atol                       0000000140074140 f   libucrtd:atox.obj
 0001:00073170       atoll                      0000000140074170 f   libucrtd:atox.obj
 0001:000731a0       wcsncmp                    00000001400741a0 f   libucrtd:wcsncmp.obj
 0001:00073230       free                       0000000140074230 f   libucrtd:free.obj
 0001:00073250       malloc                     0000000140074250 f   libucrtd:malloc.obj
 0001:00073400       ?get_doserrno@__crt_cached_ptd_host@@QEAA@XZ 0000000140074400 f i libucrtd:errno.obj
 0001:00073410       ?set@?$cached@K@__crt_cached_ptd_host@@QEAAKK@Z 0000000140074410 f i libucrtd:errno.obj
 0001:00073440       __acrt_errno_from_os_error 0000000140074440 f   libucrtd:errno.obj
 0001:00073510       __acrt_errno_map_os_error  0000000140074510 f   libucrtd:errno.obj
 0001:00073540       __acrt_errno_map_os_error_ptd 0000000140074540 f   libucrtd:errno.obj
 0001:000735a0       __doserrno                 00000001400745a0 f   libucrtd:errno.obj
 0001:000735d0       _errno                     00000001400745d0 f   libucrtd:errno.obj
 0001:00073600       _get_doserrno              0000000140074600 f   libucrtd:errno.obj
 0001:000736c0       _get_errno                 00000001400746c0 f   libucrtd:errno.obj
 0001:00073780       _set_doserrno              0000000140074780 f   libucrtd:errno.obj
 0001:000737c0       _set_errno                 00000001400747c0 f   libucrtd:errno.obj
 0001:000739e0       ?ReadPointerNoFence@@YAPEAXPEDSEAX@Z 00000001400749e0 f i libucrtd:winapi_thunks.obj
 0001:000745b0       GetCurrentThreadEffectiveToken 00000001400755b0 f i libucrtd:winapi_thunks.obj
 0001:000745c0       __acrt_AppPolicyGetProcessTerminationMethodInternal 00000001400755c0 f   libucrtd:winapi_thunks.obj
 0001:00074620       __acrt_AppPolicyGetShowDeveloperDiagnosticInternal 0000000140075620 f   libucrtd:winapi_thunks.obj
 0001:00074680       __acrt_AppPolicyGetThreadInitializationTypeInternal 0000000140075680 f   libucrtd:winapi_thunks.obj
 0001:000746e0       __acrt_AppPolicyGetWindowingModelInternal 00000001400756e0 f   libucrtd:winapi_thunks.obj
 0001:00074740       __acrt_AreFileApisANSI     0000000140075740 f   libucrtd:winapi_thunks.obj
 0001:00074780       __acrt_CompareStringEx     0000000140075780 f   libucrtd:winapi_thunks.obj
 0001:00074890       __acrt_EnumSystemLocalesEx 0000000140075890 f   libucrtd:winapi_thunks.obj
 0001:00074910       __acrt_FlsAlloc            0000000140075910 f   libucrtd:winapi_thunks.obj
 0001:00074930       __acrt_FlsFree             0000000140075930 f   libucrtd:winapi_thunks.obj
 0001:00074950       __acrt_FlsGetValue         0000000140075950 f   libucrtd:winapi_thunks.obj
 0001:00074970       __acrt_FlsGetValue2        0000000140075970 f   libucrtd:winapi_thunks.obj
 0001:000749a0       __acrt_FlsSetValue         00000001400759a0 f   libucrtd:winapi_thunks.obj
 0001:000749d0       __acrt_GetDateFormatEx     00000001400759d0 f   libucrtd:winapi_thunks.obj
 0001:00074aa0       __acrt_GetEnabledXStateFeatures 0000000140075aa0 f   libucrtd:winapi_thunks.obj
 0001:00074ae0       __acrt_GetFileInformationByName 0000000140075ae0 f   libucrtd:winapi_thunks.obj
 0001:00074b50       __acrt_GetLocaleInfoEx     0000000140075b50 f   libucrtd:winapi_thunks.obj
 0001:00074be0       __acrt_GetSystemTimePreciseAsFileTime 0000000140075be0 f   libucrtd:winapi_thunks.obj
 0001:00074c30       __acrt_GetTempPath2W       0000000140075c30 f   libucrtd:winapi_thunks.obj
 0001:00074c90       __acrt_GetTimeFormatEx     0000000140075c90 f   libucrtd:winapi_thunks.obj
 0001:00074d50       __acrt_GetUserDefaultLocaleName 0000000140075d50 f   libucrtd:winapi_thunks.obj
 0001:00074dc0       __acrt_GetXStateFeaturesMask 0000000140075dc0 f   libucrtd:winapi_thunks.obj
 0001:00074e20       __acrt_InitializeCriticalSectionEx 0000000140075e20 f   libucrtd:winapi_thunks.obj
 0001:00074e50       __acrt_IsThreadAFiber      0000000140075e50 f   libucrtd:winapi_thunks.obj
 0001:00074e60       __acrt_IsValidLocaleName   0000000140075e60 f   libucrtd:winapi_thunks.obj
 0001:00074ec0       __acrt_LCIDToLocaleName    0000000140075ec0 f   libucrtd:winapi_thunks.obj
 0001:00074f40       __acrt_LCMapStringEx       0000000140075f40 f   libucrtd:winapi_thunks.obj
 0001:00075040       __acrt_LocaleNameToLCID    0000000140076040 f   libucrtd:winapi_thunks.obj
 0001:000750a0       __acrt_LocateXStateFeature 00000001400760a0 f   libucrtd:winapi_thunks.obj
 0001:00075100       __acrt_MessageBoxA         0000000140076100 f   libucrtd:winapi_thunks.obj
 0001:00075170       __acrt_MessageBoxW         0000000140076170 f   libucrtd:winapi_thunks.obj
 0001:000751e0       __acrt_RoInitialize        00000001400761e0 f   libucrtd:winapi_thunks.obj
 0001:00075230       __acrt_RoUninitialize      0000000140076230 f   libucrtd:winapi_thunks.obj
 0001:00075260       __acrt_RtlGenRandom        0000000140076260 f   libucrtd:winapi_thunks.obj
 0001:000752c0       __acrt_SetThreadStackGuarantee 00000001400762c0 f   libucrtd:winapi_thunks.obj
 0001:00075310       __acrt_can_show_message_box 0000000140076310 f   libucrtd:winapi_thunks.obj
 0001:00075350       __acrt_can_use_vista_locale_apis 0000000140076350 f   libucrtd:winapi_thunks.obj
 0001:00075380       __acrt_can_use_xstate_apis 0000000140076380 f   libucrtd:winapi_thunks.obj
 0001:000753b0       __acrt_eagerly_load_locale_apis 00000001400763b0 f   libucrtd:winapi_thunks.obj
 0001:000753f0       __acrt_get_parent_window   00000001400763f0 f   libucrtd:winapi_thunks.obj
 0001:00075470       __acrt_initialize_winapi_thunks 0000000140076470 f   libucrtd:winapi_thunks.obj
 0001:000754c0       __acrt_is_interactive      00000001400764c0 f   libucrtd:winapi_thunks.obj
 0001:000755b0       __acrt_tls2_supported      00000001400765b0 f   libucrtd:winapi_thunks.obj
 0001:000755e0       __acrt_uninitialize_winapi_thunks 00000001400765e0 f   libucrtd:winapi_thunks.obj
 0001:00075680       ??0__crt_stdio_stream@@QEAA@QEAU__crt_stdio_stream_data@@@Z 0000000140076680 f i libucrtd:closeall.obj
 0001:000756a0       ?is_in_use@__crt_stdio_stream@@QEBA_NXZ 00000001400766a0 f i libucrtd:closeall.obj
 0001:000756e0       _fcloseall                 00000001400766e0 f   libucrtd:closeall.obj
 0001:00075e00       ?__acrt_stdio_reset_buffer@@YAXV__crt_stdio_stream@@@Z 0000000140076e00 f i libucrtd:fflush.obj
 0001:00075fd0       ?has_all_of@__crt_stdio_stream@@QEBA_NJ@Z 0000000140076fd0 f i libucrtd:fflush.obj
 0001:000760b0       ?set_flags@__crt_stdio_stream@@QEBA_NJ@Z 00000001400770b0 f i libucrtd:fflush.obj
 0001:00076120       ?unset_flags@__crt_stdio_stream@@QEBA_NJ@Z 0000000140077120 f i libucrtd:fflush.obj
 0001:00076180       __acrt_stdio_flush_nolock  0000000140077180 f   libucrtd:fflush.obj
 0001:000762a0       _fflush_nolock             00000001400772a0 f   libucrtd:fflush.obj
 0001:000762e0       _flushall                  00000001400772e0 f   libucrtd:fflush.obj
 0001:000762f0       fflush                     00000001400772f0 f   libucrtd:fflush.obj
 0001:00076380       ?has_any_of@__crt_stdio_stream@@QEBA_NJ@Z 0000000140077380 f i libucrtd:_freebuf.obj
 0001:000763c0       ?has_crt_buffer@__crt_stdio_stream@@QEBA_NXZ 00000001400773c0 f i libucrtd:_freebuf.obj
 0001:000763e0       __acrt_stdio_free_buffer_nolock 00000001400773e0 f   libucrtd:_freebuf.obj
 0001:00076870       __acrt_initialize_lowio    0000000140077870 f   libucrtd:ioinit.obj
 0001:000768c0       __acrt_uninitialize_lowio  00000001400778c0 f   libucrtd:ioinit.obj
 0001:00076940       _CrtGetDebugFillThreshold  0000000140077940 f   libucrtd:debug_fill_threshold.obj
 0001:00076950       _CrtSetDebugFillThreshold  0000000140077950 f   libucrtd:debug_fill_threshold.obj
 0001:00077c80       ??1?$__crt_simd_cleanup_guard@$00@@QEAA@XZ 0000000140078c80 f i libucrtd:strnlen.obj
 0001:00077c90       ??1?$__crt_simd_cleanup_guard@$0A@@@QEAA@XZ 0000000140078c90 f i libucrtd:strnlen.obj
 0001:00077ca0       ?compare_equals@?$__crt_simd_traits@$00E@@SA?AT__m256i@@T2@0@Z 0000000140078ca0 f i libucrtd:strnlen.obj
 0001:00077ce0       ?compare_equals@?$__crt_simd_traits@$00G@@SA?AT__m256i@@T2@0@Z 0000000140078ce0 f i libucrtd:strnlen.obj
 0001:00077d20       ?compare_equals@?$__crt_simd_traits@$0A@E@@SA?AT__m128i@@T2@0@Z 0000000140078d20 f i libucrtd:strnlen.obj
 0001:00077d50       ?compare_equals@?$__crt_simd_traits@$0A@G@@SA?AT__m128i@@T2@0@Z 0000000140078d50 f i libucrtd:strnlen.obj
 0001:00077d80       ?compute_byte_mask@?$__crt_simd_pack_traits@$00@@SAHT__m256i@@@Z 0000000140078d80 f i libucrtd:strnlen.obj
 0001:00077da0       ?compute_byte_mask@?$__crt_simd_pack_traits@$0A@@@SAHT__m128i@@@Z 0000000140078da0 f i libucrtd:strnlen.obj
 0001:00077dc0       ?get_zero_pack@?$__crt_simd_pack_traits@$00@@SA?AT__m256i@@XZ 0000000140078dc0 f i libucrtd:strnlen.obj
 0001:00077df0       ?get_zero_pack@?$__crt_simd_pack_traits@$0A@@@SA?AT__m128i@@XZ 0000000140078df0 f i libucrtd:strnlen.obj
 0001:00077e10       strnlen                    0000000140078e10 f   libucrtd:strnlen.obj
 0001:00077e40       wcslen                     0000000140078e40 f   libucrtd:strnlen.obj
 0001:00077e60       wcsnlen                    0000000140078e60 f   libucrtd:strnlen.obj
 0001:00077e90       ?value@?$dual_state_global@PEAU__crt_multibyte_data@@@__crt_state_management@@QEAAAEAPEAU__crt_multibyte_data@@XZ 0000000140078e90 f i libucrtd:locale_update.obj
 0001:00077eb0       ?value_explicit@?$dual_state_global@PEAU__crt_locale_data@@@__crt_state_management@@QEAAAEAPEAU__crt_locale_data@@_K@Z 0000000140078eb0 f i libucrtd:locale_update.obj
 0001:00077ed0       ?value_explicit@?$dual_state_global@PEAU__crt_multibyte_data@@@__crt_state_management@@QEAAAEAPEAU__crt_multibyte_data@@_K@Z 0000000140078ed0 f i libucrtd:locale_update.obj
 0001:00077ef0       __acrt_should_sync_with_global_locale 0000000140078ef0 f i libucrtd:locale_update.obj
 0001:00077f30       __acrt_update_locale_info  0000000140078f30 f   libucrtd:locale_update.obj
 0001:00077f80       __acrt_update_locale_info_explicit 0000000140078f80 f   libucrtd:locale_update.obj
 0001:00077fe0       __acrt_update_multibyte_info 0000000140078fe0 f   libucrtd:locale_update.obj
 0001:00078030       __acrt_update_multibyte_info_explicit 0000000140079030 f   libucrtd:locale_update.obj
 0001:00078090       ?__acrt_fp_classify@@YA?AW4__acrt_fp_class@@AEBN@Z 0000000140079090 f i libucrtd:cvt.obj
 0001:00078190       ?__acrt_fp_is_negative@@YA_NAEBN@Z 0000000140079190 f i libucrtd:cvt.obj
 0001:00079ad0       ?strrchr@@YAPEADQEADH@Z    000000014007aad0 f i libucrtd:cvt.obj
 0001:00079af0       __acrt_fp_format           000000014007aaf0 f   libucrtd:cvt.obj
 0001:0007a1c0       ?value_or@?$cached@H@__crt_cached_ptd_host@@QEBAHH@Z 000000014007b1c0 f i libucrtd:wctomb.obj
 0001:0007a1f0       _wctomb_internal           000000014007b1f0 f   libucrtd:wctomb.obj
 0001:0007a750       _wctomb_l                  000000014007b750 f   libucrtd:wctomb.obj
 0001:0007a800       _wctomb_s_l                000000014007b800 f   libucrtd:wctomb.obj
 0001:0007a880       wctomb                     000000014007b880 f   libucrtd:wctomb.obj
 0001:0007a920       wctomb_s                   000000014007b920 f   libucrtd:wctomb.obj
 0001:0007a9a0       _isleadbyte_fast_internal  000000014007b9a0 f i libucrtd:mbtowc.obj
 0001:0007a9d0       _mbtowc_internal           000000014007b9d0 f   libucrtd:mbtowc.obj
 0001:0007ad60       _mbtowc_l                  000000014007bd60 f   libucrtd:mbtowc.obj
 0001:0007add0       mbtowc                     000000014007bdd0 f   libucrtd:mbtowc.obj
 0001:0007ae30       ?__mblen_utf8@__crt_mbstring@@YAHPEBD@Z 000000014007be30 f   libucrtd:mbrtoc32.obj
 0001:0007aed0       ?__mbrtoc32_utf8@__crt_mbstring@@YA_KPEA_UPEBD_KPEAU_Mbstatet@@AEAV__crt_cached_ptd_host@@@Z 000000014007bed0 f   libucrtd:mbrtoc32.obj
 0001:0007b2a0       mbrtoc32                   000000014007c2a0 f   libucrtd:mbrtoc32.obj
 0001:0007b320       ?__c16rtomb_utf8@__crt_mbstring@@YA_KPEAD_SPEAU_Mbstatet@@AEAV__crt_cached_ptd_host@@@Z 000000014007c320 f   libucrtd:c16rtomb.obj
 0001:0007b560       c16rtomb                   000000014007c560 f   libucrtd:c16rtomb.obj
 0001:0007b630       ?__mbrtowc_utf8@__crt_mbstring@@YA_KPEA_WPEBD_KPEAU_Mbstatet@@AEAV__crt_cached_ptd_host@@@Z 000000014007c630 f   libucrtd:mbrtowc.obj
 0001:0007b6c0       ?__mbsrtowcs_utf8@__crt_mbstring@@YA_KPEA_WPEAPEBD_KPEAU_Mbstatet@@AEAV__crt_cached_ptd_host@@@Z 000000014007c6c0 f   libucrtd:mbrtowc.obj
 0001:0007c8c0       btowc                      000000014007d8c0 f   libucrtd:mbrtowc.obj
 0001:0007c990       mbrlen                     000000014007d990 f   libucrtd:mbrtowc.obj
 0001:0007ca40       mbrtowc                    000000014007da40 f   libucrtd:mbrtowc.obj
 0001:0007cb50       mbsrtowcs                  000000014007db50 f   libucrtd:mbrtowc.obj
 0001:0007cbd0       mbsrtowcs_s                000000014007dbd0 f   libucrtd:mbrtowc.obj
 0001:0007cc60       ?lowio_handle@__crt_stdio_stream@@QEBAHXZ 000000014007dc60 f i libucrtd:fileno.obj
 0001:0007cc90       _fileno                    000000014007dc90 f   libucrtd:fileno.obj
 0001:0007cd70       _get_printf_count_output   000000014007dd70 f   libucrtd:printf_count_output.obj
 0001:0007cda0       _set_printf_count_output   000000014007dda0 f   libucrtd:printf_count_output.obj
 0001:0007cfe0       _fputwc_nolock             000000014007dfe0 f   libucrtd:fputwc.obj
 0001:0007d030       _fputwc_nolock_internal    000000014007e030 f   libucrtd:fputwc.obj
 0001:0007d300       _fputwchar                 000000014007e300 f   libucrtd:fputwc.obj
 0001:0007d330       _putwc_nolock              000000014007e330 f   libucrtd:fputwc.obj
 0001:0007d360       fputwc                     000000014007e360 f   libucrtd:fputwc.obj
 0001:0007d3b0       putwc                      000000014007e3b0 f   libucrtd:fputwc.obj
 0001:0007d3e0       putwchar                   000000014007e3e0 f   libucrtd:fputwc.obj
 0001:0007d700       _fputc_nolock              000000014007e700 f   libucrtd:fputc.obj
 0001:0007d750       _fputc_nolock_internal     000000014007e750 f   libucrtd:fputc.obj
 0001:0007d810       _fputchar                  000000014007e810 f   libucrtd:fputc.obj
 0001:0007d840       _putc_nolock               000000014007e840 f   libucrtd:fputc.obj
 0001:0007d860       fputc                      000000014007e860 f   libucrtd:fputc.obj
 0001:0007d8b0       putc                       000000014007e8b0 f   libucrtd:fputc.obj
 0001:0007d8d0       putchar                    000000014007e8d0 f   libucrtd:fputc.obj
 0001:0007d8f0       ?has_any_buffer@__crt_stdio_stream@@QEBA_NXZ 000000014007e8f0 f i libucrtd:_sftbuf.obj
 0001:0007d910       ?has_temporary_buffer@__crt_stdio_stream@@QEBA_NXZ 000000014007e910 f i libucrtd:_sftbuf.obj
 0001:0007d930       __acrt_should_use_temporary_buffer 000000014007e930 f   libucrtd:_sftbuf.obj
 0001:0007d980       __acrt_stdio_begin_temporary_buffering_nolock 000000014007e980 f   libucrtd:_sftbuf.obj
 0001:0007dbe0       __acrt_stdio_end_temporary_buffering_nolock 000000014007ebe0 f   libucrtd:_sftbuf.obj
 0001:0007dc80       ??$?RU__acrt_ptd@@@__crt_internal_free_policy@@QEBAXQEBU__acrt_ptd@@@Z 000000014007ec80 f i libucrtd:per_thread_data.obj
 0001:0007df30       ??$internal_get_ptd_head@P6APEAXK@Z@@YAPEAU__acrt_ptd@@P6APEAXK@Z@Z 000000014007ef30 f i libucrtd:per_thread_data.obj
 0001:0007df70       ??$try_get_ptd_head@P6APEAXK@Z@@YAPEAU__acrt_ptd@@P6APEAXK@Z@Z 000000014007ef70 f i libucrtd:per_thread_data.obj
 0001:0007e160       ??0?$__crt_unique_heap_ptr@U__acrt_ptd@@U__crt_internal_free_policy@@@@QEAA@QEAU__acrt_ptd@@@Z 000000014007f160 f i libucrtd:per_thread_data.obj
 0001:0007e180       ??1?$__crt_unique_heap_ptr@U__acrt_ptd@@U__crt_internal_free_policy@@@@QEAA@XZ 000000014007f180 f i libucrtd:per_thread_data.obj
 0001:0007e1a0       ??B?$__crt_unique_heap_ptr@U__acrt_ptd@@U__crt_internal_free_policy@@@@QEBA_NXZ 000000014007f1a0 f i libucrtd:per_thread_data.obj
 0001:0007e4f0       ?dangerous_get_state_array@?$dual_state_global@PEAU__crt_locale_data@@@__crt_state_management@@QEAAPEAPEAU__crt_locale_data@@XZ 000000014007f4f0 f i libucrtd:per_thread_data.obj
 0001:0007e6c0       ?detach@?$__crt_unique_heap_ptr@U__acrt_ptd@@U__crt_internal_free_policy@@@@QEAAPEAU__acrt_ptd@@XZ 000000014007f6c0 f i libucrtd:per_thread_data.obj
 0001:0007e6f0       ?get@?$__crt_unique_heap_ptr@U__acrt_ptd@@U__crt_internal_free_policy@@@@QEBAPEAU__acrt_ptd@@XZ 000000014007f6f0 f i libucrtd:per_thread_data.obj
 0001:0007e700       ?get_current_state_index2@__crt_state_management@@YA_KXZ 000000014007f700 f i libucrtd:per_thread_data.obj
 0001:0007e710       ?internal_get_ptd_head_slow@@YAPEAU__acrt_ptd@@XZ 000000014007f710 f   libucrtd:per_thread_data.obj
 0001:0007e940       ?is_valid@?$__crt_unique_heap_ptr@U__acrt_ptd@@U__crt_internal_free_policy@@@@QEBA_NXZ 000000014007f940 f i libucrtd:per_thread_data.obj
 0001:0007e970       ?release@?$__crt_unique_heap_ptr@U__acrt_ptd@@U__crt_internal_free_policy@@@@QEAAXXZ 000000014007f970 f i libucrtd:per_thread_data.obj
 0001:0007ea60       __acrt_freeptd             000000014007fa60 f   libucrtd:per_thread_data.obj
 0001:0007eaa0       __acrt_getptd              000000014007faa0 f   libucrtd:per_thread_data.obj
 0001:0007ead0       __acrt_getptd_head         000000014007fad0 f   libucrtd:per_thread_data.obj
 0001:0007eb00       __acrt_getptd_noexit       000000014007fb00 f   libucrtd:per_thread_data.obj
 0001:0007eb40       __acrt_getptd_noexit_explicit 000000014007fb40 f   libucrtd:per_thread_data.obj
 0001:0007eb70       __acrt_initialize_ptd      000000014007fb70 f   libucrtd:per_thread_data.obj
 0001:0007ebc0       __acrt_uninitialize_ptd    000000014007fbc0 f   libucrtd:per_thread_data.obj
 0001:0007ebf0       __threadhandle             000000014007fbf0 f   libucrtd:per_thread_data.obj
 0001:0007ec00       __threadid                 000000014007fc00 f   libucrtd:per_thread_data.obj
 0001:0007ec10       __p___mb_cur_max           000000014007fc10 f   libucrtd:nlsdata.obj
 0001:0007ec50       _set_error_mode            000000014007fc50 f   libucrtd:set_error_mode.obj
 0001:0007f3e0       wcscat_s                   00000001400803e0 f   libucrtd:wcscat_s.obj
 0001:0007f910       wcscpy_s                   0000000140080910 f   libucrtd:wcscpy_s.obj
 0001:0007fff0       wcsncpy_s                  0000000140080ff0 f   libucrtd:wcsncpy_s.obj
 0001:000802b0       ??$message_box@$$TAEBQEBDAEBQEBDK@?$__crt_char_traits@D@@SAH$$QEA$$TAEBQEBD1$$QEAK@Z 00000001400812b0 f i libucrtd:crtmbox.obj
 0001:00080300       ??$message_box@$$TAEBQEB_WAEBQEB_WK@?$__crt_char_traits@_W@@SAH$$QEA$$TAEBQEB_W1$$QEAK@Z 0000000140081300 f i libucrtd:crtmbox.obj
 0001:00080350       ??$message_box@PEAUHWND__@@AEBQEBDAEBQEBDAEBI@?$__crt_char_traits@D@@SAH$$QEAPEAUHWND__@@AEBQEBD1AEBI@Z 0000000140081350 f i libucrtd:crtmbox.obj
 0001:000803a0       ??$message_box@PEAUHWND__@@AEBQEB_WAEBQEB_WAEBI@?$__crt_char_traits@_W@@SAH$$QEAPEAUHWND__@@AEBQEB_W1AEBI@Z 00000001400813a0 f i libucrtd:crtmbox.obj
 0001:000803f0       ??$output_debug_string@AEBQEBD@?$__crt_char_traits@D@@SAXAEBQEBD@Z 00000001400813f0 f i libucrtd:crtmbox.obj
 0001:00080410       ??$output_debug_string@AEBQEB_W@?$__crt_char_traits@_W@@SAXAEBQEB_W@Z 0000000140081410 f i libucrtd:crtmbox.obj
 0001:00080430       __acrt_show_narrow_message_box 0000000140081430 f   libucrtd:crtmbox.obj
 0001:00080460       __acrt_show_wide_message_box 0000000140081460 f   libucrtd:crtmbox.obj
 0001:000804f0       ??$__acrt_convert_wcs_mbs_cp@D_WV<lambda_7c9dea7b4ca7285d2cdb541a38da6275>@@U__crt_win32_buffer_internal_dynamic_resizing@@@@YAHQEBDAEAV?$__crt_win32_buffer@_WU__crt_win32_buffer_internal_dynamic_resizing@@@@AEBV<lambda_7c9dea7b4ca7285d2cdb541a38da6275>@@I@Z 00000001400814f0 f i libucrtd:argv_wildcards.obj
 0001:000806a0       ??$__acrt_convert_wcs_mbs_cp@_WDV<lambda_d8593a27d1aa8c02be35c86a17d324c4>@@U__crt_win32_buffer_internal_dynamic_resizing@@@@YAHQEB_WAEAV?$__crt_win32_buffer@DU__crt_win32_buffer_internal_dynamic_resizing@@@@AEBV<lambda_d8593a27d1aa8c02be35c86a17d324c4>@@I@Z 00000001400816a0 f i libucrtd:argv_wildcards.obj
 0001:00080850       ??$__acrt_mbs_to_wcs_cp@U__crt_win32_buffer_internal_dynamic_resizing@@@@YAHQEBDAEAV?$__crt_win32_buffer@_WU__crt_win32_buffer_internal_dynamic_resizing@@@@I@Z 0000000140081850 f i libucrtd:argv_wildcards.obj
 0001:000808a0       ??$__acrt_wcs_to_mbs_cp@U__crt_win32_buffer_internal_dynamic_resizing@@@@YAHQEB_WAEAV?$__crt_win32_buffer@DU__crt_win32_buffer_internal_dynamic_resizing@@@@I@Z 00000001400818a0 f i libucrtd:argv_wildcards.obj
 0001:00081d40       ??$tcsncpy_s@AEAPEAD_KAEAPEADAEB_K@?$__crt_char_traits@D@@SAHAEAPEAD$$QEA_K0AEB_K@Z 0000000140082d40 f i libucrtd:argv_wildcards.obj
 0001:00081d90       ??$tcsncpy_s@AEAPEA_W_KAEAPEA_WAEB_K@?$__crt_char_traits@_W@@SAHAEAPEA_W$$QEA_K0AEB_K@Z 0000000140082d90 f i libucrtd:argv_wildcards.obj
 0001:00081de0       ??$tcsncpy_s@PEADAEB_KAEBQEBDAEB_K@?$__crt_char_traits@D@@SAH$$QEAPEADAEB_KAEBQEBD1@Z 0000000140082de0 f i libucrtd:argv_wildcards.obj
 0001:00081e30       ??$tcsncpy_s@PEAD_KAEBQEBDAEB_K@?$__crt_char_traits@D@@SAH$$QEAPEAD$$QEA_KAEBQEBDAEB_K@Z 0000000140082e30 f i libucrtd:argv_wildcards.obj
 0001:00081e80       ??$tcsncpy_s@PEA_WAEB_KAEBQEB_WAEB_K@?$__crt_char_traits@_W@@SAH$$QEAPEA_WAEB_KAEBQEB_W1@Z 0000000140082e80 f i libucrtd:argv_wildcards.obj
 0001:00081ed0       ??$tcsncpy_s@PEA_W_KAEBQEB_WAEB_K@?$__crt_char_traits@_W@@SAH$$QEAPEA_W$$QEA_KAEBQEB_WAEB_K@Z 0000000140082ed0 f i libucrtd:argv_wildcards.obj
 0001:00081f20       ??$tcspbrk@AEAPEADAEAY02$$CBD@?$__crt_char_traits@D@@SAPEADAEAPEADAEAY02$$CBD@Z 0000000140082f20 f i libucrtd:argv_wildcards.obj
 0001:00081f50       ??$tcspbrk@AEAPEA_WAEAY02$$CB_W@?$__crt_char_traits@_W@@SAPEA_WAEAPEA_WAEAY02$$CB_W@Z 0000000140082f50 f i libucrtd:argv_wildcards.obj
 0001:00081f80       ??0?$__crt_unique_handle_t@U__crt_findfile_traits@@@@QEAA@QEAX@Z 0000000140082f80 f i libucrtd:argv_wildcards.obj
 0001:00081fa0       ??0?$__crt_win32_buffer@DU__crt_win32_buffer_internal_dynamic_resizing@@@@QEAA@XZ 0000000140082fa0 f i libucrtd:argv_wildcards.obj
 0001:00082000       ??0?$__crt_win32_buffer@_WU__crt_win32_buffer_internal_dynamic_resizing@@@@QEAA@XZ 0000000140083000 f i libucrtd:argv_wildcards.obj
 0001:000820e0       ??1?$__crt_unique_handle_t@U__crt_findfile_traits@@@@QEAA@XZ 00000001400830e0 f i libucrtd:argv_wildcards.obj
 0001:00082100       ??1?$__crt_win32_buffer@DU__crt_win32_buffer_internal_dynamic_resizing@@@@QEAA@XZ 0000000140083100 f i libucrtd:argv_wildcards.obj
 0001:00082130       ??1?$__crt_win32_buffer@_WU__crt_win32_buffer_internal_dynamic_resizing@@@@QEAA@XZ 0000000140083130 f i libucrtd:argv_wildcards.obj
 0001:00082260       ??R<lambda_7c9dea7b4ca7285d2cdb541a38da6275>@@QEBA@IQEBDQEA_W_K@Z 0000000140083260 f i libucrtd:argv_wildcards.obj
 0001:000823d0       ??R<lambda_d8593a27d1aa8c02be35c86a17d324c4>@@QEBA@IQEB_WQEAD_K@Z 00000001400833d0 f i libucrtd:argv_wildcards.obj
 0001:00082430       ?__acrt_get_utf8_acp_compatibility_codepage@@YAIXZ 0000000140083430 f i libucrtd:argv_wildcards.obj
 0001:000824d0       ?_deallocate@?$__crt_win32_buffer@DU__crt_win32_buffer_internal_dynamic_resizing@@@@AEAAXXZ 00000001400834d0 f i libucrtd:argv_wildcards.obj
 0001:00082520       ?_deallocate@?$__crt_win32_buffer@_WU__crt_win32_buffer_internal_dynamic_resizing@@@@AEAAXXZ 0000000140083520 f i libucrtd:argv_wildcards.obj
 0001:00082570       ?allocate@?$__crt_win32_buffer@DU__crt_win32_buffer_internal_dynamic_resizing@@@@QEAAH_K@Z 0000000140083570 f i libucrtd:argv_wildcards.obj
 0001:000825f0       ?allocate@?$__crt_win32_buffer@_WU__crt_win32_buffer_internal_dynamic_resizing@@@@QEAAH_K@Z 00000001400835f0 f i libucrtd:argv_wildcards.obj
 0001:00082680       ?allocate@__crt_win32_buffer_internal_dynamic_resizing@@SAHQEAPEAX_KAEBV__crt_win32_buffer_empty_debug_info@@@Z 0000000140083680 f i libucrtd:argv_wildcards.obj
 0001:000827e0       ?capacity@?$__crt_win32_buffer@DU__crt_win32_buffer_internal_dynamic_resizing@@@@QEBA_KXZ 00000001400837e0 f i libucrtd:argv_wildcards.obj
 0001:000827f0       ?capacity@?$__crt_win32_buffer@_WU__crt_win32_buffer_internal_dynamic_resizing@@@@QEBA_KXZ 00000001400837f0 f i libucrtd:argv_wildcards.obj
 0001:00082800       ?close@?$__crt_unique_handle_t@U__crt_findfile_traits@@@@QEAAXXZ 0000000140083800 f i libucrtd:argv_wildcards.obj
 0001:00082840       ?close@__crt_findfile_traits@@SA_NPEAX@Z 0000000140083840 f i libucrtd:argv_wildcards.obj
 0001:00082880       ?data@?$__crt_win32_buffer@DU__crt_win32_buffer_internal_dynamic_resizing@@@@QEAAPEADXZ 0000000140083880 f i libucrtd:argv_wildcards.obj
 0001:00082890       ?data@?$__crt_win32_buffer@_WU__crt_win32_buffer_internal_dynamic_resizing@@@@QEAAPEA_WXZ 0000000140083890 f i libucrtd:argv_wildcards.obj
 0001:000828a0       ?deallocate@__crt_win32_buffer_internal_dynamic_resizing@@SAXQEAXAEBV__crt_win32_buffer_empty_debug_info@@@Z 00000001400838a0 f i libucrtd:argv_wildcards.obj
 0001:000828d0       ?debug_info@?$__crt_win32_buffer@DU__crt_win32_buffer_internal_dynamic_resizing@@@@QEBAAEBV__crt_win32_buffer_empty_debug_info@@XZ 00000001400838d0 f i libucrtd:argv_wildcards.obj
 0001:000828e0       ?debug_info@?$__crt_win32_buffer@_WU__crt_win32_buffer_internal_dynamic_resizing@@@@QEBAAEBV__crt_win32_buffer_empty_debug_info@@XZ 00000001400838e0 f i libucrtd:argv_wildcards.obj
 0001:00082cd0       ?get@?$__crt_unique_handle_t@U__crt_findfile_traits@@@@QEBAPEAXXZ 0000000140083cd0 f i libucrtd:argv_wildcards.obj
 0001:00082d40       ?get_invalid_value@__crt_findfile_traits@@SAPEAXXZ 0000000140083d40 f i libucrtd:argv_wildcards.obj
 0001:00082e00       ?set_to_nullptr@?$__crt_win32_buffer@DU__crt_win32_buffer_internal_dynamic_resizing@@@@QEAAXXZ 0000000140083e00 f i libucrtd:argv_wildcards.obj
 0001:00082e40       ?set_to_nullptr@?$__crt_win32_buffer@_WU__crt_win32_buffer_internal_dynamic_resizing@@@@QEAAXXZ 0000000140083e40 f i libucrtd:argv_wildcards.obj
 0001:00082e80       ?size@?$__crt_win32_buffer@DU__crt_win32_buffer_internal_dynamic_resizing@@@@QEAAX_K@Z 0000000140083e80 f i libucrtd:argv_wildcards.obj
 0001:00082ea0       ?size@?$__crt_win32_buffer@_WU__crt_win32_buffer_internal_dynamic_resizing@@@@QEAAX_K@Z 0000000140083ea0 f i libucrtd:argv_wildcards.obj
 0001:00082f00       ?strpbrk@@YAPEADQEADQEBD@Z 0000000140083f00 f i libucrtd:argv_wildcards.obj
 0001:00082f30       ?wcspbrk@@YAPEA_WPEA_WPEB_W@Z 0000000140083f30 f i libucrtd:argv_wildcards.obj
 0001:00082f60       __acrt_expand_narrow_argv_wildcards 0000000140083f60 f   libucrtd:argv_wildcards.obj
 0001:00082f90       __acrt_expand_wide_argv_wildcards 0000000140083f90 f   libucrtd:argv_wildcards.obj
 0001:00082fc0       ??$__acrt_convert_wcs_mbs_cp@_WDV<lambda_f788ae46380686e8b737efdd8c720d07>@@U__crt_win32_buffer_no_resizing@@@@YAHQEB_WAEAV?$__crt_win32_buffer@DU__crt_win32_buffer_no_resizing@@@@AEBV<lambda_f788ae46380686e8b737efdd8c720d07>@@I@Z 0000000140083fc0 f i libucrtd:getmodulefilenamea.obj
 0001:00083170       ??$__acrt_wcs_to_mbs_cp@U__crt_win32_buffer_no_resizing@@@@YAHQEB_WAEAV?$__crt_win32_buffer@DU__crt_win32_buffer_no_resizing@@@@I@Z 0000000140084170 f i libucrtd:getmodulefilenamea.obj
 0001:000831c0       ??0?$__crt_win32_buffer@DU__crt_win32_buffer_no_resizing@@@@QEAA@QEAD_K@Z 00000001400841c0 f i libucrtd:getmodulefilenamea.obj
 0001:00083230       ??1?$__crt_win32_buffer@DU__crt_win32_buffer_no_resizing@@@@QEAA@XZ 0000000140084230 f i libucrtd:getmodulefilenamea.obj
 0001:00083260       ??R<lambda_f788ae46380686e8b737efdd8c720d07>@@QEBA@IQEB_WQEAD_K@Z 0000000140084260 f i libucrtd:getmodulefilenamea.obj
 0001:000832c0       ?_deallocate@?$__crt_win32_buffer@DU__crt_win32_buffer_no_resizing@@@@AEAAXXZ 00000001400842c0 f i libucrtd:getmodulefilenamea.obj
 0001:00083310       ?allocate@?$__crt_win32_buffer@DU__crt_win32_buffer_no_resizing@@@@QEAAH_K@Z 0000000140084310 f i libucrtd:getmodulefilenamea.obj
 0001:00083390       ?allocate@__crt_win32_buffer_no_resizing@@SAHQEAPEAX_KAEBV__crt_win32_buffer_empty_debug_info@@@Z 0000000140084390 f i libucrtd:getmodulefilenamea.obj
 0001:000833c0       ?capacity@?$__crt_win32_buffer@DU__crt_win32_buffer_no_resizing@@@@QEBA_KXZ 00000001400843c0 f i libucrtd:getmodulefilenamea.obj
 0001:000833d0       ?data@?$__crt_win32_buffer@DU__crt_win32_buffer_no_resizing@@@@QEAAPEADXZ 00000001400843d0 f i libucrtd:getmodulefilenamea.obj
 0001:000833e0       ?deallocate@__crt_win32_buffer_no_resizing@@SAXQEAXAEBV__crt_win32_buffer_empty_debug_info@@@Z 00000001400843e0 f i libucrtd:getmodulefilenamea.obj
 0001:000833f0       ?debug_info@?$__crt_win32_buffer@DU__crt_win32_buffer_no_resizing@@@@QEBAAEBV__crt_win32_buffer_empty_debug_info@@XZ 00000001400843f0 f i libucrtd:getmodulefilenamea.obj
 0001:00083400       ?set_to_nullptr@?$__crt_win32_buffer@DU__crt_win32_buffer_no_resizing@@@@QEAAXXZ 0000000140084400 f i libucrtd:getmodulefilenamea.obj
 0001:00083440       ?size@?$__crt_win32_buffer@DU__crt_win32_buffer_no_resizing@@@@QEAAX_K@Z 0000000140084440 f i libucrtd:getmodulefilenamea.obj
 0001:00083460       ?size@?$__crt_win32_buffer@DU__crt_win32_buffer_no_resizing@@@@QEBA_KXZ 0000000140084460 f i libucrtd:getmodulefilenamea.obj
 0001:00083470       __acrt_GetModuleFileNameA  0000000140084470 f   libucrtd:getmodulefilenamea.obj
 0001:000835f0       ??$initialize_from_array@$$BY10BAA@E@?$dual_state_global@PEAE@__crt_state_management@@QEAAXAEAY10BAA@E@Z 00000001400845f0 f i libucrtd:mbctype.obj
 0001:00083660       ??$initialize_from_array@$$BY10BAB@E@?$dual_state_global@PEAE@__crt_state_management@@QEAAXAEAY10BAB@E@Z 0000000140084660 f i libucrtd:mbctype.obj
 0001:00083950       ?dangerous_get_state_array@?$dual_state_global@PEAE@__crt_state_management@@QEAAPEAPEAEXZ 0000000140084950 f i libucrtd:mbctype.obj
 0001:00083960       ?dangerous_get_state_array@?$dual_state_global@PEAU__crt_multibyte_data@@@__crt_state_management@@QEAAPEAPEAU__crt_multibyte_data@@XZ 0000000140084960 f i libucrtd:mbctype.obj
 0001:00083a50       ?initialize@?$dual_state_global@PEAU__crt_multibyte_data@@@__crt_state_management@@QEAAXQEAU__crt_multibyte_data@@@Z 0000000140084a50 f i libucrtd:mbctype.obj
 0001:00084360       ?value@?$dual_state_global@PEAE@__crt_state_management@@QEAAAEAPEAEXZ 0000000140085360 f i libucrtd:mbctype.obj
 0001:00084380       __acrt_initialize_multibyte 0000000140085380 f   libucrtd:mbctype.obj
 0001:00084450       __acrt_update_thread_multibyte_data 0000000140085450 f   libucrtd:mbctype.obj
 0001:00084490       __p__mbcasemap             0000000140085490 f   libucrtd:mbctype.obj
 0001:000844b0       __p__mbctype               00000001400854b0 f   libucrtd:mbctype.obj
 0001:000844d0       _getmbcp                   00000001400854d0 f   libucrtd:mbctype.obj
 0001:00084550       _setmbcp                   0000000140085550 f   libucrtd:mbctype.obj
 0001:00084590       _setmbcp_nolock            0000000140085590 f   libucrtd:mbctype.obj
 0001:00084cc0       _ismbbalnum                0000000140085cc0 f   libucrtd:ismbbyte.obj
 0001:00084cf0       _ismbbalnum_l              0000000140085cf0 f   libucrtd:ismbbyte.obj
 0001:00084d20       _ismbbalpha                0000000140085d20 f   libucrtd:ismbbyte.obj
 0001:00084d50       _ismbbalpha_l              0000000140085d50 f   libucrtd:ismbbyte.obj
 0001:00084d80       _ismbbblank                0000000140085d80 f   libucrtd:ismbbyte.obj
 0001:00084dc0       _ismbbblank_l              0000000140085dc0 f   libucrtd:ismbbyte.obj
 0001:00084e10       _ismbbgraph                0000000140085e10 f   libucrtd:ismbbyte.obj
 0001:00084e40       _ismbbgraph_l              0000000140085e40 f   libucrtd:ismbbyte.obj
 0001:00084e70       _ismbbkalnum               0000000140085e70 f   libucrtd:ismbbyte.obj
 0001:00084ea0       _ismbbkalnum_l             0000000140085ea0 f   libucrtd:ismbbyte.obj
 0001:00084ed0       _ismbbkana                 0000000140085ed0 f   libucrtd:ismbbyte.obj
 0001:00084ef0       _ismbbkana_l               0000000140085ef0 f   libucrtd:ismbbyte.obj
 0001:00084f80       _ismbbkprint               0000000140085f80 f   libucrtd:ismbbyte.obj
 0001:00084fb0       _ismbbkprint_l             0000000140085fb0 f   libucrtd:ismbbyte.obj
 0001:00084fe0       _ismbbkpunct               0000000140085fe0 f   libucrtd:ismbbyte.obj
 0001:00085010       _ismbbkpunct_l             0000000140086010 f   libucrtd:ismbbyte.obj
 0001:00085040       _ismbblead                 0000000140086040 f   libucrtd:ismbbyte.obj
 0001:00085070       _ismbblead_l               0000000140086070 f   libucrtd:ismbbyte.obj
 0001:000850a0       _ismbbprint                00000001400860a0 f   libucrtd:ismbbyte.obj
 0001:000850d0       _ismbbprint_l              00000001400860d0 f   libucrtd:ismbbyte.obj
 0001:00085100       _ismbbpunct                0000000140086100 f   libucrtd:ismbbyte.obj
 0001:00085130       _ismbbpunct_l              0000000140086130 f   libucrtd:ismbbyte.obj
 0001:00085160       _ismbbtrail                0000000140086160 f   libucrtd:ismbbyte.obj
 0001:00085190       _ismbbtrail_l              0000000140086190 f   libucrtd:ismbbyte.obj
 0001:000851c0       __acrt_initialize_command_line 00000001400861c0 f   libucrtd:argv_data.obj
 0001:000851f0       __acrt_uninitialize_command_line 00000001400861f0 f   libucrtd:argv_data.obj
 0001:00085200       __p___argc                 0000000140086200 f   libucrtd:argv_data.obj
 0001:00085210       __p___argv                 0000000140086210 f   libucrtd:argv_data.obj
 0001:00085220       __p___wargv                0000000140086220 f   libucrtd:argv_data.obj
 0001:00085230       __p__acmdln                0000000140086230 f   libucrtd:argv_data.obj
 0001:00085240       __p__pgmptr                0000000140086240 f   libucrtd:argv_data.obj
 0001:00085250       __p__wcmdln                0000000140086250 f   libucrtd:argv_data.obj
 0001:00085260       __p__wpgmptr               0000000140086260 f   libucrtd:argv_data.obj
 0001:00085270       _get_pgmptr                0000000140086270 f   libucrtd:argv_data.obj
 0001:000853e0       _get_wpgmptr               00000001400863e0 f   libucrtd:argv_data.obj
 0001:00085660       __acrt_MultiByteToWideChar 0000000140086660 f   libucrtd:multibytetowidechar.obj
 0001:000857d0       __acrt_WideCharToMultiByte 00000001400867d0 f   libucrtd:widechartomultibyte.obj
 0001:00085a70       __dcrt_get_narrow_environment_from_os 0000000140086a70 f   libucrtd:get_environment_from_os.obj
 0001:00085ca0       __dcrt_get_wide_environment_from_os 0000000140086ca0 f   libucrtd:get_environment_from_os.obj
 0001:000874e0       ??$get_or_create_environment_nolock@$$V@?$__crt_char_traits@D@@SAPEAPEADXZ 00000001400884e0 f i libucrtd:setenv.obj
 0001:000874f0       ??$get_or_create_environment_nolock@$$V@?$__crt_char_traits@_W@@SAPEAPEA_WXZ 00000001400884f0 f i libucrtd:setenv.obj
 0001:00087500       ??$set_environment_variable@AEBQEADQEAD@?$__crt_char_traits@D@@SAHAEBQEAD$$QEBQEAD@Z 0000000140088500 f i libucrtd:setenv.obj
 0001:00087530       ??$set_environment_variable@AEBQEA_WQEA_W@?$__crt_char_traits@_W@@SAHAEBQEA_W$$QEBQEA_W@Z 0000000140088530 f i libucrtd:setenv.obj
 0001:00087560       ??$tcschr@AEBQEADD@?$__crt_char_traits@D@@SAPEADAEBQEAD$$QEAD@Z 0000000140088560 f i libucrtd:setenv.obj
 0001:000875a0       ??$tcschr@AEBQEA_WD@?$__crt_char_traits@_W@@SAPEA_WAEBQEA_W$$QEAD@Z 00000001400885a0 f i libucrtd:setenv.obj
 0001:000875e0       ??$tcscpy_s@AEAPEADAEB_KAEAPEAD@?$__crt_char_traits@D@@SAHAEAPEADAEB_K0@Z 00000001400885e0 f i libucrtd:setenv.obj
 0001:00087620       ??$tcscpy_s@AEAPEA_WAEB_KAEAPEA_W@?$__crt_char_traits@_W@@SAHAEAPEA_WAEB_K0@Z 0000000140088620 f i libucrtd:setenv.obj
 0001:00087660       ??$tcscpy_s@AEBQEADAEB_KAEBQEAD@?$__crt_char_traits@D@@SAHAEBQEADAEB_K0@Z 0000000140088660 f i libucrtd:setenv.obj
 0001:000876a0       ??$tcscpy_s@AEBQEA_WAEB_KAEBQEA_W@?$__crt_char_traits@_W@@SAHAEBQEA_WAEB_K0@Z 00000001400886a0 f i libucrtd:setenv.obj
 0001:000876e0       ??$tcslen@AEBQEAD@?$__crt_char_traits@D@@SA_KAEBQEAD@Z 00000001400886e0 f i libucrtd:setenv.obj
 0001:00087700       ??$tcslen@AEBQEA_W@?$__crt_char_traits@_W@@SA_KAEBQEA_W@Z 0000000140088700 f i libucrtd:setenv.obj
 0001:00087720       ??$tcsnicoll@AEBQEBDAEAPEADAEB_K@?$__crt_char_traits@D@@SAHAEBQEBDAEAPEADAEB_K@Z 0000000140088720 f i libucrtd:setenv.obj
 0001:00087760       ??$tcsnicoll@AEBQEB_WAEAPEA_WAEB_K@?$__crt_char_traits@_W@@SAHAEBQEB_WAEAPEA_WAEB_K@Z 0000000140088760 f i libucrtd:setenv.obj
 0001:000877a0       ??$tcsnlen@PEADH@?$__crt_char_traits@D@@SA_K$$QEAPEAD$$QEAH@Z 00000001400887a0 f i libucrtd:setenv.obj
 0001:000877d0       ??$tcsnlen@PEA_WH@?$__crt_char_traits@_W@@SA_K$$QEAPEA_W$$QEAH@Z 00000001400887d0 f i libucrtd:setenv.obj
 0001:000878a0       ?strchr@@YAPEADQEADH@Z     00000001400888a0 f i libucrtd:setenv.obj
 0001:000878c0       ?wcschr@@YAPEA_WPEA_W_W@Z  00000001400888c0 f i libucrtd:setenv.obj
 0001:000878f0       __dcrt_set_variable_in_narrow_environment_nolock 00000001400888f0 f   libucrtd:setenv.obj
 0001:00087910       __dcrt_set_variable_in_wide_environment_nolock 0000000140088910 f   libucrtd:setenv.obj
 0001:00087930       __acrt_initialize_locks    0000000140088930 f   libucrtd:locks.obj
 0001:000879a0       __acrt_lock                00000001400889a0 f   libucrtd:locks.obj
 0001:000879d0       __acrt_uninitialize_locks  00000001400889d0 f   libucrtd:locks.obj
 0001:00087a30       __acrt_unlock              0000000140088a30 f   libucrtd:locks.obj
 0001:00087a60       _lock_locales              0000000140088a60 f   libucrtd:locks.obj
 0001:00087a80       _unlock_locales            0000000140088a80 f   libucrtd:locks.obj
 0001:00087aa0       __acrt_app_verifier_enabled 0000000140088aa0 f   libucrtd:peb_access.obj
 0001:00087ae0       __acrt_is_secure_process   0000000140088ae0 f   libucrtd:peb_access.obj
 0001:00087ed0       __acrt_get_begin_thread_init_policy 0000000140088ed0 f   libucrtd:win_policies.obj
 0001:00087ee0       __acrt_get_developer_information_policy 0000000140088ee0 f   libucrtd:win_policies.obj
 0001:00087f00       __acrt_get_process_end_policy 0000000140088f00 f   libucrtd:win_policies.obj
 0001:00087f10       __acrt_get_windowing_model_policy 0000000140088f10 f   libucrtd:win_policies.obj
 0001:00087f30       ??$?RU__crt_lowio_handle_data@@@__crt_internal_free_policy@@QEBAXQEBU__crt_lowio_handle_data@@@Z 0000000140088f30 f i libucrtd:osfinfo.obj
 0001:00087f60       ??0?$__crt_unique_heap_ptr@U__crt_lowio_handle_data@@U__crt_internal_free_policy@@@@QEAA@QEAU__crt_lowio_handle_data@@@Z 0000000140088f60 f i libucrtd:osfinfo.obj
 0001:00087f80       ??1?$__crt_unique_heap_ptr@U__crt_lowio_handle_data@@U__crt_internal_free_policy@@@@QEAA@XZ 0000000140088f80 f i libucrtd:osfinfo.obj
 0001:00087fa0       ??B?$__crt_unique_heap_ptr@U__crt_lowio_handle_data@@U__crt_internal_free_policy@@@@QEBA_NXZ 0000000140088fa0 f i libucrtd:osfinfo.obj
 0001:00087fc0       ?detach@?$__crt_unique_heap_ptr@U__crt_lowio_handle_data@@U__crt_internal_free_policy@@@@QEAAPEAU__crt_lowio_handle_data@@XZ 0000000140088fc0 f i libucrtd:osfinfo.obj
 0001:00087ff0       ?get@?$__crt_unique_heap_ptr@U__crt_lowio_handle_data@@U__crt_internal_free_policy@@@@QEBAPEAU__crt_lowio_handle_data@@XZ 0000000140088ff0 f i libucrtd:osfinfo.obj
 0001:00088000       ?is_valid@?$__crt_unique_heap_ptr@U__crt_lowio_handle_data@@U__crt_internal_free_policy@@@@QEBA_NXZ 0000000140089000 f i libucrtd:osfinfo.obj
 0001:00088030       ?release@?$__crt_unique_heap_ptr@U__crt_lowio_handle_data@@U__crt_internal_free_policy@@@@QEAAXXZ 0000000140089030 f i libucrtd:osfinfo.obj
 0001:00088060       __acrt_lowio_create_handle_array 0000000140089060 f   libucrtd:osfinfo.obj
 0001:00088220       __acrt_lowio_destroy_handle_array 0000000140089220 f   libucrtd:osfinfo.obj
 0001:000882a0       __acrt_lowio_ensure_fh_exists 00000001400892a0 f   libucrtd:osfinfo.obj
 0001:00088400       __acrt_lowio_lock_fh       0000000140089400 f   libucrtd:osfinfo.obj
 0001:00088440       __acrt_lowio_set_os_handle 0000000140089440 f   libucrtd:osfinfo.obj
 0001:00088550       __acrt_lowio_unlock_fh     0000000140089550 f   libucrtd:osfinfo.obj
 0001:00088590       _alloc_osfhnd              0000000140089590 f   libucrtd:osfinfo.obj
 0001:000887a0       _free_osfhnd               00000001400897a0 f   libucrtd:osfinfo.obj
 0001:000888d0       _get_osfhandle             00000001400898d0 f   libucrtd:osfinfo.obj
 0001:00088ad0       _open_osfhandle            0000000140089ad0 f   libucrtd:osfinfo.obj
 0001:00088cf0       ?dangerous_get_state_array@?$dual_state_global@H@__crt_state_management@@QEAAPEAHXZ 0000000140089cf0 f i libucrtd:txtmode.obj
 0001:00088d00       __acrt_initialize_fmode    0000000140089d00 f   libucrtd:txtmode.obj
 0001:00088d60       __p__fmode                 0000000140089d60 f   libucrtd:txtmode.obj
 0001:00088d80       ??$?RG@__crt_internal_free_policy@@QEBAXQEBG@Z 0000000140089d80 f i libucrtd:initctype.obj
 0001:00088db0       ??$?RJ@__crt_internal_free_policy@@QEBAXQEBJ@Z 0000000140089db0 f i libucrtd:initctype.obj
 0001:00088de0       ??0?$__crt_unique_heap_ptr@GU__crt_internal_free_policy@@@@QEAA@QEAG@Z 0000000140089de0 f i libucrtd:initctype.obj
 0001:00088e00       ??0?$__crt_unique_heap_ptr@JU__crt_internal_free_policy@@@@QEAA@QEAJ@Z 0000000140089e00 f i libucrtd:initctype.obj
 0001:00088e20       ??1?$__crt_unique_heap_ptr@GU__crt_internal_free_policy@@@@QEAA@XZ 0000000140089e20 f i libucrtd:initctype.obj
 0001:00088e40       ??1?$__crt_unique_heap_ptr@JU__crt_internal_free_policy@@@@QEAA@XZ 0000000140089e40 f i libucrtd:initctype.obj
 0001:00088e60       ?detach@?$__crt_unique_heap_ptr@GU__crt_internal_free_policy@@@@QEAAPEAGXZ 0000000140089e60 f i libucrtd:initctype.obj
 0001:00088e90       ?detach@?$__crt_unique_heap_ptr@JU__crt_internal_free_policy@@@@QEAAPEAJXZ 0000000140089e90 f i libucrtd:initctype.obj
 0001:00088ec0       ?release@?$__crt_unique_heap_ptr@GU__crt_internal_free_policy@@@@QEAAXXZ 0000000140089ec0 f i libucrtd:initctype.obj
 0001:00088ef0       ?release@?$__crt_unique_heap_ptr@JU__crt_internal_free_policy@@@@QEAAXXZ 0000000140089ef0 f i libucrtd:initctype.obj
 0001:00088f20       ___lc_codepage_func        0000000140089f20 f   libucrtd:initctype.obj
 0001:00088f60       ___lc_collate_cp_func      0000000140089f60 f   libucrtd:initctype.obj
 0001:00088fa0       ___lc_locale_name_func     0000000140089fa0 f   libucrtd:initctype.obj
 0001:00088fe0       ___mb_cur_max_func         0000000140089fe0 f   libucrtd:initctype.obj
 0001:00089020       ___mb_cur_max_l_func       000000014008a020 f   libucrtd:initctype.obj
 0001:00089060       __acrt_locale_initialize_ctype 000000014008a060 f   libucrtd:initctype.obj
 0001:00089b50       ??$?RUlconv@@@__crt_internal_free_policy@@QEBAXQEBUlconv@@@Z 000000014008ab50 f i libucrtd:initmon.obj
 0001:00089b80       ??0?$__crt_unique_heap_ptr@Ulconv@@U__crt_internal_free_policy@@@@QEAA@QEAUlconv@@@Z 000000014008ab80 f i libucrtd:initmon.obj
 0001:00089ba0       ??1?$__crt_unique_heap_ptr@Ulconv@@U__crt_internal_free_policy@@@@QEAA@XZ 000000014008aba0 f i libucrtd:initmon.obj
 0001:00089bc0       ?detach@?$__crt_unique_heap_ptr@Ulconv@@U__crt_internal_free_policy@@@@QEAAPEAUlconv@@XZ 000000014008abc0 f i libucrtd:initmon.obj
 0001:00089bf0       ?release@?$__crt_unique_heap_ptr@Ulconv@@U__crt_internal_free_policy@@@@QEAAXXZ 000000014008abf0 f i libucrtd:initmon.obj
 0001:00089c20       __acrt_locale_free_monetary 000000014008ac20 f   libucrtd:initmon.obj
 0001:00089e30       __acrt_locale_initialize_monetary 000000014008ae30 f   libucrtd:initmon.obj
 0001:0008a810       __acrt_locale_free_numeric 000000014008b810 f   libucrtd:initnum.obj
 0001:0008a8f0       __acrt_locale_initialize_numeric 000000014008b8f0 f   libucrtd:initnum.obj
 0001:0008af30       ??$?RU__crt_lc_time_data@@@__crt_internal_free_policy@@QEBAXQEBU__crt_lc_time_data@@@Z 000000014008bf30 f i libucrtd:inittime.obj
 0001:0008b020       ??0?$__crt_unique_heap_ptr@U__crt_lc_time_data@@U__crt_internal_free_policy@@@@QEAA@QEAU__crt_lc_time_data@@@Z 000000014008c020 f i libucrtd:inittime.obj
 0001:0008b040       ??1?$__crt_unique_heap_ptr@U__crt_lc_time_data@@U__crt_internal_free_policy@@@@QEAA@XZ 000000014008c040 f i libucrtd:inittime.obj
 0001:0008b060       ??B?$__crt_unique_heap_ptr@U__crt_lc_time_data@@U__crt_internal_free_policy@@@@QEBA_NXZ 000000014008c060 f i libucrtd:inittime.obj
 0001:0008b080       ?detach@?$__crt_unique_heap_ptr@U__crt_lc_time_data@@U__crt_internal_free_policy@@@@QEAAPEAU__crt_lc_time_data@@XZ 000000014008c080 f i libucrtd:inittime.obj
 0001:0008b110       ?get@?$__crt_unique_heap_ptr@U__crt_lc_time_data@@U__crt_internal_free_policy@@@@QEBAPEAU__crt_lc_time_data@@XZ 000000014008c110 f i libucrtd:inittime.obj
 0001:0008b780       ?is_valid@?$__crt_unique_heap_ptr@U__crt_lc_time_data@@U__crt_internal_free_policy@@@@QEBA_NXZ 000000014008c780 f i libucrtd:inittime.obj
 0001:0008b7b0       ?release@?$__crt_unique_heap_ptr@U__crt_lc_time_data@@U__crt_internal_free_policy@@@@QEAAXXZ 000000014008c7b0 f i libucrtd:inittime.obj
 0001:0008b7e0       __acrt_locale_free_time    000000014008c7e0 f   libucrtd:inittime.obj
 0001:0008b950       __acrt_locale_initialize_time 000000014008c950 f   libucrtd:inittime.obj
 0001:0008b9f0       __pctype_func              000000014008c9f0 f   libucrtd:ctype.obj
 0001:0008ba30       __pwctype_func             000000014008ca30 f   libucrtd:ctype.obj
 0001:0008ba40       _chvalidator               000000014008ca40 f   libucrtd:isctype.obj
 0001:0008bab0       _chvalidator_l             000000014008cab0 f   libucrtd:isctype.obj
 0001:0008bb60       _isctype                   000000014008cb60 f   libucrtd:isctype.obj
 0001:0008bbb0       _isctype_l                 000000014008cbb0 f   libucrtd:isctype.obj
 0001:0008c590       wcsncat_s                  000000014008d590 f   libucrtd:wcsncat_s.obj
 0001:0008c5d0       wcscmp                     000000014008d5d0 f   libucrtd:wcscmpc.obj
 0001:0008c670       wcscspn                    000000014008d670 f   libucrtd:wcscspn.obj
 0001:0008c700       wcspbrk                    000000014008d700 f   libucrtd:wcspbrk.obj
 0001:0008c760       ??0?$__crt_scoped_stack_ptr@_W@@QEAA@U?$__crt_scoped_stack_ptr_tag@_W@@@Z 000000014008d760 f i libucrtd:getstringtypea.obj
 0001:0008c780       ??0?$__crt_scoped_stack_ptr_tag@_W@@QEAA@QEA_W@Z 000000014008d780 f i libucrtd:getstringtypea.obj
 0001:0008c7a0       ??1?$__crt_scoped_stack_ptr@_W@@QEAA@XZ 000000014008d7a0 f i libucrtd:getstringtypea.obj
 0001:0008c7c0       ?get@?$__crt_scoped_stack_ptr@_W@@QEBAPEA_WXZ 000000014008d7c0 f i libucrtd:getstringtypea.obj
 0001:0008c7d0       _MallocaComputeSize        000000014008d7d0 f i libucrtd:getstringtypea.obj
 0001:0008c810       _MarkAllocaS               000000014008d810 f i libucrtd:getstringtypea.obj
 0001:0008c840       __acrt_GetStringTypeA      000000014008d840 f   libucrtd:getstringtypea.obj
 0001:0008caa0       _freea_crt                 000000014008daa0 f i libucrtd:getstringtypea.obj
 0001:0008cb40       __acrt_add_locale_ref      000000014008db40 f   libucrtd:locale_refcounting.obj
 0001:0008cca0       __acrt_free_locale         000000014008dca0 f   libucrtd:locale_refcounting.obj
 0001:0008d020       __acrt_locale_add_lc_time_reference 000000014008e020 f   libucrtd:locale_refcounting.obj
 0001:0008d060       __acrt_locale_free_lc_time_if_unreferenced 000000014008e060 f   libucrtd:locale_refcounting.obj
 0001:0008d0c0       __acrt_locale_release_lc_time_reference 000000014008e0c0 f   libucrtd:locale_refcounting.obj
 0001:0008d100       __acrt_release_locale_ref  000000014008e100 f   libucrtd:locale_refcounting.obj
 0001:0008d270       __acrt_update_thread_locale_data 000000014008e270 f   libucrtd:locale_refcounting.obj
 0001:0008d310       _updatetlocinfoEx_nolock   000000014008e310 f   libucrtd:locale_refcounting.obj
 0001:0008e0b0       __acrt_get_qualified_locale 000000014008f0b0 f   libucrtd:get_qualified_locale.obj
 0001:0008f230       __acrt_get_qualified_locale_downlevel 0000000140090230 f   libucrtd:getqloc_downlevel.obj
 0001:0008f5d0       localeconv                 00000001400905d0 f   libucrtd:localeconv.obj
 0001:0008f610       _get_heap_handle           0000000140090610 f   libucrtd:heap_handle.obj
 0001:0008f670       __acrt_initialize_heap     0000000140090670 f   libucrtd:heap_handle.obj
 0001:0008f6a0       __acrt_uninitialize_heap   00000001400906a0 f   libucrtd:heap_handle.obj
 0001:0008f6c0       __acrt_getheap             00000001400906c0 f   libucrtd:heap_handle.obj
 0001:0008f720       __acrt_execute_initializers 0000000140090720 f   libucrtd:shared_initialization.obj
 0001:0008f810       __acrt_execute_uninitializers 0000000140090810 f   libucrtd:shared_initialization.obj
 0001:0008f890       _callnewh                  0000000140090890 f   libucrtd:new_handler.obj
 0001:0008f8f0       __acrt_initialize_new_handler 00000001400908f0 f   libucrtd:new_handler.obj
 0001:0008f920       _query_new_handler         0000000140090920 f   libucrtd:new_handler.obj
 0001:0008f970       _set_new_handler           0000000140090970 f   libucrtd:new_handler.obj
 0001:0008f9e0       ?_set_new_handler@@YAP6AH_K@ZH@Z 00000001400909e0 f   libucrtd:new_handler.obj
 0001:0008fa50       ??$?B$$A6AH_K@Z@__crt_fast_encoded_nullptr_t@@QEBAP6AH_K@ZXZ 0000000140090a50 f i libucrtd:new_handler.obj
 0001:0008fa70       ??$__crt_fast_decode_pointer@P6AH_K@Z@@YAP6AH_K@ZQ6AH0@Z@Z 0000000140090a70 f i libucrtd:new_handler.obj
 0001:0008fab0       ??$__crt_fast_encode_pointer@P6AH_K@Z@@YAP6AH_K@ZQ6AH0@Z@Z 0000000140090ab0 f i libucrtd:new_handler.obj
 0001:0008faf0       ?initialize@?$dual_state_global@P6AH_K@Z@__crt_state_management@@QEAAXQ6AH_K@Z@Z 0000000140090af0 f i libucrtd:new_handler.obj
 0001:0008fb40       ?value@?$dual_state_global@P6AH_K@Z@__crt_state_management@@QEAAAEAP6AH_K@ZXZ 0000000140090b40 f i libucrtd:new_handler.obj
 0001:0008fb60       ??$?B$$A6AXH@Z@__crt_fast_encoded_nullptr_t@@QEBAP6AXH@ZXZ 0000000140090b60 f i libucrtd:signal.obj
 0001:0008fc30       ??$__crt_fast_decode_pointer@P6AXH@Z@@YAP6AXH@ZQ6AXH@Z@Z 0000000140090c30 f i libucrtd:signal.obj
 0001:0008fc70       ??$__crt_fast_encode_pointer@P6AXH@Z@@YAP6AXH@ZQ6AXH@Z@Z 0000000140090c70 f i libucrtd:signal.obj
 0001:0008ff00       ?initialize@?$dual_state_global@P6AXH@Z@__crt_state_management@@QEAAXQ6AXH@Z@Z 0000000140090f00 f i libucrtd:signal.obj
 0001:00090080       ?value@?$dual_state_global@P6AXH@Z@__crt_state_management@@QEAAAEAP6AXH@ZXZ 0000000140091080 f i libucrtd:signal.obj
 0001:000900a0       __acrt_get_sigabrt_handler 00000001400910a0 f   libucrtd:signal.obj
 0001:000900d0       __acrt_initialize_signal_handlers 00000001400910d0 f   libucrtd:signal.obj
 0001:00090130       __fpecode                  0000000140091130 f   libucrtd:signal.obj
 0001:00090150       __pxcptinfoptrs            0000000140091150 f   libucrtd:signal.obj
 0001:00090170       raise                      0000000140091170 f   libucrtd:signal.obj
 0001:00090670       signal                     0000000140091670 f   libucrtd:signal.obj
 0001:00090940       _free_base                 0000000140091940 f   libucrtd:free_base.obj
 0001:000909b0       _realloc_base              00000001400919b0 f   libucrtd:realloc_base.obj
 0001:00090a60       _expand                    0000000140091a60 f   libucrtd:expand.obj
 0001:00090aa0       _expand_base               0000000140091aa0 f   libucrtd:expand.obj
 0001:00090ca0       _CrtDefaultAllocHook       0000000140091ca0 f   libucrtd:debug_heap_hook.obj
 0001:00090cc0       _CrtGetReportHook          0000000140091cc0 f   libucrtd:dbgrptt.obj
 0001:00090cd0       _CrtSetReportFile          0000000140091cd0 f   libucrtd:dbgrptt.obj
 0001:00090e30       _CrtSetReportHook          0000000140091e30 f   libucrtd:dbgrptt.obj
 0001:00090e60       _CrtSetReportMode          0000000140091e60 f   libucrtd:dbgrptt.obj
 0001:00091020       _VCrtDbgReportA            0000000140092020 f   libucrtd:dbgrptt.obj
 0001:00091a40       _VCrtDbgReportW            0000000140092a40 f   libucrtd:dbgrptt.obj
 0001:00092620       _snprintf_s                0000000140093620 f i libucrtd:dbgrptt.obj
 0001:000926a0       _vsnprintf_s               00000001400936a0 f i libucrtd:dbgrptt.obj
 0001:000926f0       _vsnprintf_s_l             00000001400936f0 f i libucrtd:dbgrptt.obj
 0001:00092770       _iswctype_l                0000000140093770 f   libucrtd:iswctype.obj
 0001:000927a0       iswctype                   00000001400937a0 f   libucrtd:iswctype.obj
 0001:00092970       __acrt_DownlevelLCIDToLocaleName 0000000140093970 f   libucrtd:lcidtoname_downlevel.obj
 0001:00092a90       __acrt_DownlevelLocaleNameToLCID 0000000140093a90 f   libucrtd:lcidtoname_downlevel.obj
 0001:00092e00       _fclose_nolock             0000000140093e00 f   libucrtd:fclose.obj
 0001:00092e40       fclose                     0000000140093e40 f   libucrtd:fclose.obj
 0001:000930a0       _commit                    00000001400940a0 f   libucrtd:commit.obj
 0001:00094ad0       _utf8_no_of_trailbytes     0000000140095ad0 f i libucrtd:write.obj
 0001:00094af0       _write                     0000000140095af0 f   libucrtd:write.obj
 0001:00094b50       _write_internal            0000000140095b50 f   libucrtd:write.obj
 0001:00094ef0       _write_nolock              0000000140095ef0 f   libucrtd:write.obj
 0001:00095780       __acrt_fp_strflt_to_string 0000000140096780 f   libucrtd:_fptostr.obj
 0001:00096340       ??0big_integer@__crt_strtox@@QEAA@AEBU01@@Z 0000000140097340 f i libucrtd:cfout.obj
 0001:000963a0       ??0big_integer@__crt_strtox@@QEAA@XZ 00000001400973a0 f i libucrtd:cfout.obj
 0001:000964f0       ??4big_integer@__crt_strtox@@QEAAAEAU01@AEBU01@@Z 00000001400974f0 f i libucrtd:cfout.obj
 0001:00096550       ??8__crt_strtox@@YA_NAEBUbig_integer@0@0@Z 0000000140097550 f i libucrtd:cfout.obj
 0001:000965c0       ??9__crt_strtox@@YA_NAEBUbig_integer@0@0@Z 00000001400975c0 f i libucrtd:cfout.obj
 0001:00096600       ?add_carry@__crt_strtox@@YAIAEAIII@Z 0000000140097600 f i libucrtd:cfout.obj
 0001:00096650       ?add_multiply_carry@__crt_strtox@@YAIAEAIIII@Z 0000000140097650 f i libucrtd:cfout.obj
 0001:000966b0       ?bit_scan_reverse@__crt_strtox@@YAII@Z 00000001400976b0 f i libucrtd:cfout.obj
 0001:000966f0       ?count_sequential_high_zeroes@__crt_strtox@@YAII@Z 00000001400976f0 f i libucrtd:cfout.obj
 0001:00096740       ?divide@__crt_strtox@@YA_KAEAUbig_integer@1@AEBU21@@Z 0000000140097740 f i libucrtd:cfout.obj
 0001:00097110       ?is_zero@__crt_strtox@@YA_NAEBUbig_integer@1@@Z 0000000140098110 f i libucrtd:cfout.obj
 0001:00097140       ?make_big_integer@__crt_strtox@@YA?AUbig_integer@1@_K@Z 0000000140098140 f i libucrtd:cfout.obj
 0001:00097210       ?make_big_integer_power_of_two@__crt_strtox@@YA?AUbig_integer@1@I@Z 0000000140098210 f i libucrtd:cfout.obj
 0001:000972e0       ?multiply@__crt_strtox@@YA_NAEAUbig_integer@1@AEBU21@@Z 00000001400982e0 f i libucrtd:cfout.obj
 0001:00097660       ?multiply@__crt_strtox@@YA_NAEAUbig_integer@1@I@Z 0000000140098660 f i libucrtd:cfout.obj
 0001:00097780       ?multiply_64_32@__crt_strtox@@YA_K_KI@Z 0000000140098780 f i libucrtd:cfout.obj
 0001:000977a0       ?multiply_by_power_of_ten@__crt_strtox@@YA_NAEAUbig_integer@1@I@Z 00000001400987a0 f i libucrtd:cfout.obj
 0001:00097950       ?multiply_core@__crt_strtox@@YAIQEAIII@Z 0000000140098950 f i libucrtd:cfout.obj
 0001:000979d0       ?shift_left@__crt_strtox@@YA_NAEAUbig_integer@1@I@Z 00000001400989d0 f i libucrtd:cfout.obj
 0001:00097cb0       __acrt_fltout              0000000140098cb0 f   libucrtd:cfout.obj
 0001:000981e0       __fpe_flt_rounds           00000001400991e0 f   libucrtd:fegetround.obj
 0001:00098230       fegetround                 0000000140099230 f   libucrtd:fegetround.obj
 0001:00098250       ?__c32rtomb_utf8@__crt_mbstring@@YA_KPEAD_UPEAU_Mbstatet@@AEAV__crt_cached_ptd_host@@@Z 0000000140099250 f   libucrtd:c32rtomb.obj
 0001:00098500       c32rtomb                   0000000140099500 f   libucrtd:c32rtomb.obj
 0001:00098560       ?reset_and_return@__crt_mbstring@@YA_K_KPEAU_Mbstatet@@@Z 0000000140099560 f   libucrtd:common_utf8.obj
 0001:000985a0       ?return_illegal_sequence@__crt_mbstring@@YA_KPEAU_Mbstatet@@AEAV__crt_cached_ptd_host@@@Z 00000001400995a0 f   libucrtd:common_utf8.obj
 0001:00099020       ?has_big_buffer@__crt_stdio_stream@@QEBA_NXZ 000000014009a020 f i libucrtd:_flsbuf.obj
 0001:00099170       __acrt_stdio_flush_and_write_narrow_nolock 000000014009a170 f   libucrtd:_flsbuf.obj
 0001:000991b0       __acrt_stdio_flush_and_write_wide_nolock 000000014009a1b0 f   libucrtd:_flsbuf.obj
 0001:000991f0       _isatty                    000000014009a1f0 f   libucrtd:isatty.obj
 0001:00099300       __acrt_OutputDebugStringA  000000014009a300 f   libucrtd:outputdebugstringa.obj
 0001:00099530       qsort                      000000014009a530 f   libucrtd:qsort.obj
 0001:0009a2d0       strncpy_s                  000000014009b2d0 f   libucrtd:strncpy_s.obj
 0001:0009a420       strpbrk                    000000014009b420 f   libucrtd:strpbrk.obj
 0001:0009ad50       _mbsdec                    000000014009bd50 f   libucrtd:mbsdec.obj
 0001:0009ad80       _mbsdec_l                  000000014009bd80 f   libucrtd:mbsdec.obj
 0001:0009b010       ??B?$__crt_scoped_stack_ptr@_W@@QEBA_NXZ 000000014009c010 f i libucrtd:lcmapstringa.obj
 0001:0009b650       __acrt_LCMapStringA        000000014009c650 f   libucrtd:lcmapstringa.obj
 0001:0009b730       _wcsnicoll                 000000014009c730 f   libucrtd:wcsnicol.obj
 0001:0009b980       _wcsnicoll_l               000000014009c980 f   libucrtd:wcsnicol.obj
 0001:0009bcc0       _strnicoll                 000000014009ccc0 f   libucrtd:strnicol.obj
 0001:0009bd20       _strnicoll_l               000000014009cd20 f   libucrtd:strnicol.obj
 0001:0009c130       __acrt_SetEnvironmentVariableA 000000014009d130 f   libucrtd:setenvironmentvariablea.obj
 0001:0009c460       __acrt_GetLocaleInfoA      000000014009d460 f   libucrtd:getlocaleinfoa.obj
 0001:0009e100       _i64toa                    000000014009f100 f   libucrtd:xtoa.obj
 0001:0009e170       _i64toa_s                  000000014009f170 f   libucrtd:xtoa.obj
 0001:0009e1e0       _i64tow                    000000014009f1e0 f   libucrtd:xtoa.obj
 0001:0009e250       _i64tow_s                  000000014009f250 f   libucrtd:xtoa.obj
 0001:0009e2c0       _itoa                      000000014009f2c0 f   libucrtd:xtoa.obj
 0001:0009e330       _itoa_s                    000000014009f330 f   libucrtd:xtoa.obj
 0001:0009e390       _itow                      000000014009f390 f   libucrtd:xtoa.obj
 0001:0009e400       _itow_s                    000000014009f400 f   libucrtd:xtoa.obj
 0001:0009e460       _ltoa                      000000014009f460 f   libucrtd:xtoa.obj
 0001:0009e4d0       _ltoa_s                    000000014009f4d0 f   libucrtd:xtoa.obj
 0001:0009e530       _ltow                      000000014009f530 f   libucrtd:xtoa.obj
 0001:0009e5a0       _ltow_s                    000000014009f5a0 f   libucrtd:xtoa.obj
 0001:0009e600       _ui64toa                   000000014009f600 f   libucrtd:xtoa.obj
 0001:0009e640       _ui64toa_s                 000000014009f640 f   libucrtd:xtoa.obj
 0001:0009e680       _ui64tow                   000000014009f680 f   libucrtd:xtoa.obj
 0001:0009e6c0       _ui64tow_s                 000000014009f6c0 f   libucrtd:xtoa.obj
 0001:0009e700       _ultoa                     000000014009f700 f   libucrtd:xtoa.obj
 0001:0009e740       _ultoa_s                   000000014009f740 f   libucrtd:xtoa.obj
 0001:0009e780       _ultow                     000000014009f780 f   libucrtd:xtoa.obj
 0001:0009e7c0       _ultow_s                   000000014009f7c0 f   libucrtd:xtoa.obj
 0001:0009e970       __ascii_wcsicmp            000000014009f970 f   libucrtd:wcsicmp.obj
 0001:0009ea40       _towlower_fast_internal    000000014009fa40 f i libucrtd:wcsicmp.obj
 0001:0009ea90       _towlower_internal         000000014009fa90 f i libucrtd:wcsicmp.obj
 0001:0009ead0       _wcsicmp                   000000014009fad0 f   libucrtd:wcsicmp.obj
 0001:0009eb40       _wcsicmp_l                 000000014009fb40 f   libucrtd:wcsicmp.obj
 0001:0009ef90       __ascii_wcsnicmp           000000014009ff90 f   libucrtd:wcsnicmp.obj
 0001:0009f090       _wcsnicmp                  00000001400a0090 f   libucrtd:wcsnicmp.obj
 0001:0009f110       _wcsnicmp_l                00000001400a0110 f   libucrtd:wcsnicmp.obj
 0001:0009f440       _malloc_base               00000001400a0440 f   libucrtd:malloc_base.obj
 0001:000a0020       _mbstowcs_l                00000001400a1020 f   libucrtd:mbstowcs.obj
 0001:000a0090       _mbstowcs_s_l              00000001400a1090 f   libucrtd:mbstowcs.obj
 0001:000a0120       mbstowcs                   00000001400a1120 f   libucrtd:mbstowcs.obj
 0001:000a0180       mbstowcs_s                 00000001400a1180 f   libucrtd:mbstowcs.obj
 0001:000a1010       _wcstombs_l                00000001400a2010 f   libucrtd:wcstombs.obj
 0001:000a1080       _wcstombs_s_l              00000001400a2080 f   libucrtd:wcstombs.obj
 0001:000a1110       wcstombs                   00000001400a2110 f   libucrtd:wcstombs.obj
 0001:000a1170       wcstombs_s                 00000001400a2170 f   libucrtd:wcstombs.obj
 0001:000a1860       strcat_s                   00000001400a2860 f   libucrtd:strcat_s.obj
 0001:000a1890       __acrt_GetStringTypeW      00000001400a2890 f   libucrtd:getstringtypew.obj
 0001:000a1be0       _close                     00000001400a2be0 f   libucrtd:close.obj
 0001:000a1c20       _close_internal            00000001400a2c20 f   libucrtd:close.obj
 0001:000a1ee0       _close_nolock              00000001400a2ee0 f   libucrtd:close.obj
 0001:000a1f20       _close_nolock_internal     00000001400a2f20 f   libucrtd:close.obj
 0001:000a1f90       ??$?RU__crt_stdio_stream_data@@@__crt_internal_free_policy@@QEBAXQEBU__crt_stdio_stream_data@@@Z 00000001400a2f90 f i libucrtd:stream.obj
 0001:000a1fc0       ??0?$__crt_unique_heap_ptr@U__crt_stdio_stream_data@@U__crt_internal_free_policy@@@@QEAA@QEAU__crt_stdio_stream_data@@@Z 00000001400a2fc0 f i libucrtd:stream.obj
 0001:000a1fe0       ??0__crt_stdio_stream@@QEAA@XZ 00000001400a2fe0 f i libucrtd:stream.obj
 0001:000a2000       ??1?$__crt_unique_heap_ptr@U__crt_stdio_stream_data@@U__crt_internal_free_policy@@@@QEAA@XZ 00000001400a3000 f i libucrtd:stream.obj
 0001:000a2020       ?__acrt_stdio_allocate_stream@@YA?AV__crt_stdio_stream@@XZ 00000001400a3020 f   libucrtd:stream.obj
 0001:000a20e0       ?__acrt_stdio_free_stream@@YAXV__crt_stdio_stream@@@Z 00000001400a30e0 f   libucrtd:stream.obj
 0001:000a2180       ?deallocate@__crt_stdio_stream@@QEAAXXZ 00000001400a3180 f i libucrtd:stream.obj
 0001:000a21a0       ?detach@?$__crt_unique_heap_ptr@U__crt_stdio_stream_data@@U__crt_internal_free_policy@@@@QEAAPEAU__crt_stdio_stream_data@@XZ 00000001400a31a0 f i libucrtd:stream.obj
 0001:000a2380       ?lock@__crt_stdio_stream@@QEBAXXZ 00000001400a3380 f i libucrtd:stream.obj
 0001:000a23a0       ?release@?$__crt_unique_heap_ptr@U__crt_stdio_stream_data@@U__crt_internal_free_policy@@@@QEAAXXZ 00000001400a33a0 f i libucrtd:stream.obj
 0001:000a23d0       ?try_allocate@__crt_stdio_stream@@QEAA_NXZ 00000001400a33d0 f i libucrtd:stream.obj
 0001:000a2440       ?unlock@__crt_stdio_stream@@QEBAXXZ 00000001400a3440 f i libucrtd:stream.obj
 0001:000a2fb0       _lseek                     00000001400a3fb0 f   libucrtd:lseek.obj
 0001:000a3010       _lseek_internal            00000001400a4010 f   libucrtd:lseek.obj
 0001:000a3050       _lseek_nolock              00000001400a4050 f   libucrtd:lseek.obj
 0001:000a30b0       _lseek_nolock_internal     00000001400a40b0 f   libucrtd:lseek.obj
 0001:000a30f0       _lseeki64                  00000001400a40f0 f   libucrtd:lseek.obj
 0001:000a3150       _lseeki64_internal         00000001400a4150 f   libucrtd:lseek.obj
 0001:000a3190       _lseeki64_nolock           00000001400a4190 f   libucrtd:lseek.obj
 0001:000a31f0       _lseeki64_nolock_internal  00000001400a41f0 f   libucrtd:lseek.obj
 0001:000a33a0       _putwch                    00000001400a43a0 f   libucrtd:putwch.obj
 0001:000a33d0       _putwch_nolock             00000001400a43d0 f   libucrtd:putwch.obj
 0001:000a3420       _putwch_nolock_internal    00000001400a4420 f   libucrtd:putwch.obj
 0001:000a4320       _read                      00000001400a5320 f   libucrtd:read.obj
 0001:000a4670       _read_nolock               00000001400a5670 f   libucrtd:read.obj
 0001:000a5460       log10                      00000001400a6460 f   libucrtd:log10.obj
 0001:000a5a10       ceil                       00000001400a6a10 f   libucrtd:ceil.obj
 0001:000a5ae0       _controlfp_s               00000001400a6ae0 f   libucrtd:contrlfp.obj
 0001:000a5bb0       fegetenv                   00000001400a6bb0 f   libucrtd:fegetenv.obj
 0001:000a5bd0       fesetenv                   00000001400a6bd0 f   libucrtd:fesetenv.obj
 0001:000a5c40       feholdexcept               00000001400a6c40 f   libucrtd:feholdexcept.obj
 0001:000a5ca0       ??$__acrt_fenv_shift_bits@W4__acrt_fenv_abstract_control@@@@YA?AW4__acrt_fenv_abstract_control@@W40@0I@Z 00000001400a6ca0 f i libucrtd:_fenvutils.obj
 0001:000a5cb0       ??$__acrt_fenv_shift_bits@W4__acrt_fenv_abstract_status@@@@YA?AW4__acrt_fenv_abstract_status@@W40@0I@Z 00000001400a6cb0 f i libucrtd:_fenvutils.obj
 0001:000a5cc0       ??$__acrt_fenv_translate_bit@W4__acrt_fenv_abstract_control@@W4__acrt_fenv_machine_sse_control@@@@YA?AW4__acrt_fenv_abstract_control@@W4__acrt_fenv_machine_sse_control@@0W40@1@Z 00000001400a6cc0 f i libucrtd:_fenvutils.obj
 0001:000a5cd0       ??$__acrt_fenv_translate_bit@W4__acrt_fenv_abstract_status@@W4__acrt_fenv_machine_sse_status@@@@YA?AW4__acrt_fenv_abstract_status@@W4__acrt_fenv_machine_sse_status@@0W40@1@Z 00000001400a6cd0 f i libucrtd:_fenvutils.obj
 0001:000a5ce0       ??$__acrt_fenv_translate_bit@W4__acrt_fenv_machine_sse_control@@W4__acrt_fenv_abstract_control@@@@YA?AW4__acrt_fenv_machine_sse_control@@W4__acrt_fenv_abstract_control@@0W40@1@Z 00000001400a6ce0 f i libucrtd:_fenvutils.obj
 0001:000a5cf0       ??$__acrt_fenv_translate_bit@W4__acrt_fenv_machine_sse_status@@W4__acrt_fenv_abstract_status@@@@YA?AW4__acrt_fenv_machine_sse_status@@W4__acrt_fenv_abstract_status@@0W40@1@Z 00000001400a6cf0 f i libucrtd:_fenvutils.obj
 0001:000a5d00       ??$__acrt_fenv_unshift_bits@W4__acrt_fenv_abstract_control@@@@YA?AW4__acrt_fenv_abstract_control@@W40@0I@Z 00000001400a6d00 f i libucrtd:_fenvutils.obj
 0001:000a5d10       ??$__acrt_fenv_unshift_bits@W4__acrt_fenv_abstract_status@@@@YA?AW4__acrt_fenv_abstract_status@@W40@0I@Z 00000001400a6d10 f i libucrtd:_fenvutils.obj
 0001:000a5f20       ??I@YA?AW4__acrt_fenv_abstract_control@@W40@0@Z 00000001400a6f20 f i libucrtd:_fenvutils.obj
 0001:000a5f30       ??I@YA?AW4__acrt_fenv_abstract_status@@W40@0@Z 00000001400a6f30 f i libucrtd:_fenvutils.obj
 0001:000a5f40       ??I@YA?AW4__acrt_fenv_machine_sse_control@@W40@0@Z 00000001400a6f40 f i libucrtd:_fenvutils.obj
 0001:000a5f50       ??I@YA?AW4__acrt_fenv_machine_sse_status@@W40@0@Z 00000001400a6f50 f i libucrtd:_fenvutils.obj
 0001:000a5f60       ??U@YA?AW4__acrt_fenv_abstract_control@@W40@0@Z 00000001400a6f60 f i libucrtd:_fenvutils.obj
 0001:000a5f70       ??U@YA?AW4__acrt_fenv_abstract_status@@W40@0@Z 00000001400a6f70 f i libucrtd:_fenvutils.obj
 0001:000a5f80       ??U@YA?AW4__acrt_fenv_machine_sse_control@@W40@0@Z 00000001400a6f80 f i libucrtd:_fenvutils.obj
 0001:000a5f90       ??_5@YAAEAW4__acrt_fenv_abstract_control@@AEAW40@W40@@Z 00000001400a6f90 f i libucrtd:_fenvutils.obj
 0001:000a5fa0       ??_5@YAAEAW4__acrt_fenv_abstract_status@@AEAW40@W40@@Z 00000001400a6fa0 f i libucrtd:_fenvutils.obj
 0001:000a5fb0       ??_5@YAAEAW4__acrt_fenv_machine_sse_control@@AEAW40@W40@@Z 00000001400a6fb0 f i libucrtd:_fenvutils.obj
 0001:000a5fc0       ??_5@YAAEAW4__acrt_fenv_machine_sse_status@@AEAW40@W40@@Z 00000001400a6fc0 f i libucrtd:_fenvutils.obj
 0001:000a5fd0       ?__acrt_fenv_shift_abstract_sse_control@@YA?AW4__acrt_fenv_abstract_control@@W41@@Z 00000001400a6fd0 f i libucrtd:_fenvutils.obj
 0001:000a5ff0       ?__acrt_fenv_shift_abstract_sse_status@@YA?AW4__acrt_fenv_abstract_status@@W41@@Z 00000001400a6ff0 f i libucrtd:_fenvutils.obj
 0001:000a6000       ?__acrt_fenv_unshift_abstract_sse_control@@YA?AW4__acrt_fenv_abstract_control@@W41@@Z 00000001400a7000 f i libucrtd:_fenvutils.obj
 0001:000a6020       ?__acrt_fenv_unshift_abstract_sse_status@@YA?AW4__acrt_fenv_abstract_status@@W41@@Z 00000001400a7020 f i libucrtd:_fenvutils.obj
 0001:000a6330       __acrt_fenv_expand_round_control 00000001400a7330 f   libucrtd:_fenvutils.obj
 0001:000a6350       __acrt_fenv_get_common_round_control 00000001400a7350 f   libucrtd:_fenvutils.obj
 0001:000a6360       __acrt_fenv_get_control    00000001400a7360 f   libucrtd:_fenvutils.obj
 0001:000a6440       __acrt_fenv_get_fp_status_word_from_exception_mask 00000001400a7440 f   libucrtd:_fenvutils.obj
 0001:000a6450       __acrt_fenv_get_status     00000001400a7450 f   libucrtd:_fenvutils.obj
 0001:000a64b0       __acrt_fenv_set_control    00000001400a74b0 f   libucrtd:_fenvutils.obj
 0001:000a65e0       __acrt_fenv_set_status     00000001400a75e0 f   libucrtd:_fenvutils.obj
 0001:000a6660       __acrt_stdio_allocate_buffer_nolock 00000001400a7660 f   libucrtd:_getbuf.obj
 0001:000a67d8       _guard_check_icall         00000001400a77d8 f i libucrtd:checkcfg.obj
 0001:000a67f0       __strncnt                  00000001400a77f0 f   libucrtd:strncnt.obj
 0001:000a6850       __acrt_CompareStringW      00000001400a7850 f   libucrtd:comparestringw.obj
 0001:000a6ba0       __ascii_strnicmp           00000001400a7ba0 f   libucrtd:strnicmp.obj
 0001:000a6ca0       _strnicmp                  00000001400a7ca0 f   libucrtd:strnicmp.obj
 0001:000a6d30       _strnicmp_l                00000001400a7d30 f   libucrtd:strnicmp.obj
 0001:000a7790       __acrt_CompareStringA      00000001400a8790 f   libucrtd:comparestringa.obj
 0001:000a7830       _towlower_l                00000001400a8830 f   libucrtd:towlower.obj
 0001:000a79e0       towlower                   00000001400a89e0 f   libucrtd:towlower.obj
 0001:000a7a00       ?__wcsrtombs_utf8@__crt_mbstring@@YA_KPEADPEAPEB_W_KPEAU_Mbstatet@@AEAV__crt_cached_ptd_host@@@Z 00000001400a8a00 f   libucrtd:wcrtomb.obj
 0001:000a8680       wcrtomb                    00000001400a9680 f   libucrtd:wcrtomb.obj
 0001:000a8700       wcrtomb_s                  00000001400a9700 f   libucrtd:wcrtomb.obj
 0001:000a8780       wcsrtombs                  00000001400a9780 f   libucrtd:wcrtomb.obj
 0001:000a8800       wcsrtombs_s                00000001400a9800 f   libucrtd:wcrtomb.obj
 0001:000a8e40       wctob                      00000001400a9e40 f   libucrtd:wcrtomb.obj
 0001:000a9090       __dcrt_lowio_ensure_console_output_initialized 00000001400aa090 f   libucrtd:initcon.obj
 0001:000a90c0       __dcrt_terminate_console_output 00000001400aa0c0 f   libucrtd:initcon.obj
 0001:000a90f0       __dcrt_write_console       00000001400aa0f0 f   libucrtd:initcon.obj
 0001:000a9130       __acrt_initialize_fma3     00000001400aa130 f   libucrtd:fma3_available.obj
 0001:000a91f0       _get_FMA3_enable           00000001400aa1f0 f   libucrtd:fma3_available.obj
 0001:000a9200       _set_FMA3_enable           00000001400aa200 f   libucrtd:fma3_available.obj
 0001:000a9240       _log10_special             00000001400aa240 f   libucrtd:log_special.obj
 0001:000a9260       _log10f_special            00000001400aa260 f   libucrtd:log_special.obj
 0001:000a9280       _log_special               00000001400aa280 f   libucrtd:log_special.obj
 0001:000a9340       _logf_special              00000001400aa340 f   libucrtd:log_special.obj
 0001:000a9580       _handle_error              00000001400aa580 f   libucrtd:libm_error.obj
 0001:000a96c0       _handle_errorf             00000001400aa6c0 f   libucrtd:libm_error.obj
 0001:000a9800       _handle_nan                00000001400aa800 f   libucrtd:libm_error.obj
 0001:000a9820       _handle_nanf               00000001400aa820 f   libucrtd:libm_error.obj
 0001:000a9830       round_sse41                00000001400aa830 f   libucrtd:floorceil_sse41.obj
 0001:000a9860       roundf_sse41               00000001400aa860 f   libucrtd:floorceil_sse41.obj
 0001:000a9880       floor_sse41                00000001400aa880 f   libucrtd:floorceil_sse41.obj
 0001:000a9890       floorf_sse41               00000001400aa890 f   libucrtd:floorceil_sse41.obj
 0001:000a98a0       ceil_sse41                 00000001400aa8a0 f   libucrtd:floorceil_sse41.obj
 0001:000a98b0       ceilf_sse41                00000001400aa8b0 f   libucrtd:floorceil_sse41.obj
 0001:000a98c0       trunc_sse41                00000001400aa8c0 f   libucrtd:floorceil_sse41.obj
 0001:000a98d0       truncl_sse41               00000001400aa8d0 f   libucrtd:floorceil_sse41.obj
 0001:000a98e0       truncf_sse41               00000001400aa8e0 f   libucrtd:floorceil_sse41.obj
 0001:000a98f0       nearbyint_sse41            00000001400aa8f0 f   libucrtd:floorceil_sse41.obj
 0001:000a9900       nearbyintl_sse41           00000001400aa900 f   libucrtd:floorceil_sse41.obj
 0001:000a9910       nearbyintf_sse41           00000001400aa910 f   libucrtd:floorceil_sse41.obj
 0001:000a9920       rint_sse41                 00000001400aa920 f   libucrtd:floorceil_sse41.obj
 0001:000a9930       rintl_sse41                00000001400aa930 f   libucrtd:floorceil_sse41.obj
 0001:000a9940       rintf_sse41                00000001400aa940 f   libucrtd:floorceil_sse41.obj
 0001:000a9a70       _clearfp                   00000001400aaa70 f   libucrtd:ieee.obj
 0001:000a9ae0       _control87                 00000001400aaae0 f   libucrtd:ieee.obj
 0001:000a9af0       _controlfp                 00000001400aaaf0 f   libucrtd:ieee.obj
 0001:000a9b00       _fpreset                   00000001400aab00 f   libucrtd:ieee.obj
 0001:000a9bd0       _set_controlfp             00000001400aabd0 f   libucrtd:ieee.obj
 0001:000a9c00       _statusfp                  00000001400aac00 f   libucrtd:ieee.obj
 0001:000a9f30       __acrt_LCMapStringW        00000001400aaf30 f   libucrtd:lcmapstringw.obj
 0001:000a9ff0       _clrfp                     00000001400aaff0 f   libucrtd:fpctrl.obj
 0001:000aa010       _ctrlfp                    00000001400ab010 f   libucrtd:fpctrl.obj
 0001:000aa090       _get_fpcsr                 00000001400ab090 f   libucrtd:fpctrl.obj
 0001:000aa0a0       _get_fpsr                  00000001400ab0a0 f i libucrtd:fpctrl.obj
 0001:000aa0b0       _set_fpcsr                 00000001400ab0b0 f   libucrtd:fpctrl.obj
 0001:000aa0c0       _set_fpsr                  00000001400ab0c0 f i libucrtd:fpctrl.obj
 0001:000aa0d0       _set_statfp                00000001400ab0d0 f   libucrtd:fpctrl.obj
 0001:000aa0f0       _statfp                    00000001400ab0f0 f   libucrtd:fpctrl.obj
 0001:000aa1b0       ?should_round_up@__crt_strtox@@YA_N_N000@Z 00000001400ab1b0 f i libucrtd:fpexcept.obj
 0001:000aa270       _errcode                   00000001400ab270 f   libucrtd:fpexcept.obj
 0001:000aa2b0       _except1                   00000001400ab2b0 f   libucrtd:fpexcept.obj
 0001:000aa430       _except2                   00000001400ab430 f   libucrtd:fpexcept.obj
 0001:000aa5e0       _fperrraise                00000001400ab5e0 f   libucrtd:fpexcept.obj
 0001:000aa6f0       _handle_exc                00000001400ab6f0 f   libucrtd:fpexcept.obj
 0001:000aaab0       _handle_qnan2              00000001400abab0 f   libucrtd:fpexcept.obj
 0001:000aaac0       _raise_exc                 00000001400abac0 f   libucrtd:fpexcept.obj
 0001:000aaaf0       _raise_exc_ex              00000001400abaf0 f   libucrtd:fpexcept.obj
 0001:000aae00       _raise_excf                00000001400abe00 f   libucrtd:fpexcept.obj
 0001:000aae30       _set_errno_from_matherr    00000001400abe30 f   libucrtd:fpexcept.obj
 0001:000aae70       _umatherr                  00000001400abe70 f   libucrtd:fpexcept.obj
 0001:000aafd0       ??_4@YAAEAW4__acrt_fenv_abstract_status@@AEAW40@W40@@Z 00000001400abfd0 f i libucrtd:fegetexceptflag.obj
 0001:000aafe0       fegetexceptflag            00000001400abfe0 f   libucrtd:fegetexceptflag.obj
 0001:000ab030       ??S@YA?AW4__acrt_fenv_abstract_status@@W40@@Z 00000001400ac030 f i libucrtd:fesetexceptflag.obj
 0001:000ab040       fesetexceptflag            00000001400ac040 f   libucrtd:fesetexceptflag.obj
 0001:000ab0c0       _decomp                    00000001400ac0c0 f i libucrtd:frexp.obj
 0001:000ab1c0       _set_exp                   00000001400ac1c0 f i libucrtd:frexp.obj
 0001:000ab1f0       _sptype                    00000001400ac1f0 f i libucrtd:frexp.obj
 0001:000ab280       frexp                      00000001400ac280 f   libucrtd:frexp.obj
 0001:000ab4c0       fetestexcept               00000001400ac4c0 f   libucrtd:fetestexcept.obj
 0001:000ab4e4       QueryPerformanceCounter    00000001400ac4e4 f   kernel32:KERNEL32.dll
 0001:000ab4ea       GetCurrentProcessId        00000001400ac4ea f   kernel32:KERNEL32.dll
 0001:000ab4f0       GetCurrentThreadId         00000001400ac4f0 f   kernel32:KERNEL32.dll
 0001:000ab4f6       GetSystemTimeAsFileTime    00000001400ac4f6 f   kernel32:KERNEL32.dll
 0001:000ab4fc       InitializeSListHead        00000001400ac4fc f   kernel32:KERNEL32.dll
 0001:000ab502       RtlCaptureContext          00000001400ac502 f   kernel32:KERNEL32.dll
 0001:000ab508       RtlLookupFunctionEntry     00000001400ac508 f   kernel32:KERNEL32.dll
 0001:000ab50e       RtlVirtualUnwind           00000001400ac50e f   kernel32:KERNEL32.dll
 0001:000ab514       IsDebuggerPresent          00000001400ac514 f   kernel32:KERNEL32.dll
 0001:000ab51a       UnhandledExceptionFilter   00000001400ac51a f   kernel32:KERNEL32.dll
 0001:000ab520       SetUnhandledExceptionFilter 00000001400ac520 f   kernel32:KERNEL32.dll
 0001:000ab526       GetStartupInfoW            00000001400ac526 f   kernel32:KERNEL32.dll
 0001:000ab52c       IsProcessorFeaturePresent  00000001400ac52c f   kernel32:KERNEL32.dll
 0001:000ab532       GetModuleHandleW           00000001400ac532 f   kernel32:KERNEL32.dll
 0001:000ab538       GetCurrentProcess          00000001400ac538 f   kernel32:KERNEL32.dll
 0001:000ab53e       TerminateProcess           00000001400ac53e f   kernel32:KERNEL32.dll
 0001:000ab544       RtlUnwindEx                00000001400ac544 f   kernel32:KERNEL32.dll
 0001:000ab54a       InterlockedPushEntrySList  00000001400ac54a f   kernel32:KERNEL32.dll
 0001:000ab550       InterlockedFlushSList      00000001400ac550 f   kernel32:KERNEL32.dll
 0001:000ab556       GetLastError               00000001400ac556 f   kernel32:KERNEL32.dll
 0001:000ab55c       SetLastError               00000001400ac55c f   kernel32:KERNEL32.dll
 0001:000ab562       EnterCriticalSection       00000001400ac562 f   kernel32:KERNEL32.dll
 0001:000ab568       LeaveCriticalSection       00000001400ac568 f   kernel32:KERNEL32.dll
 0001:000ab56e       DeleteCriticalSection      00000001400ac56e f   kernel32:KERNEL32.dll
 0001:000ab574       InitializeCriticalSectionAndSpinCount 00000001400ac574 f   kernel32:KERNEL32.dll
 0001:000ab57a       TlsAlloc                   00000001400ac57a f   kernel32:KERNEL32.dll
 0001:000ab580       TlsGetValue                00000001400ac580 f   kernel32:KERNEL32.dll
 0001:000ab586       TlsSetValue                00000001400ac586 f   kernel32:KERNEL32.dll
 0001:000ab58c       TlsFree                    00000001400ac58c f   kernel32:KERNEL32.dll
 0001:000ab592       FreeLibrary                00000001400ac592 f   kernel32:KERNEL32.dll
 0001:000ab598       GetProcAddress             00000001400ac598 f   kernel32:KERNEL32.dll
 0001:000ab59e       LoadLibraryExW             00000001400ac59e f   kernel32:KERNEL32.dll
 0001:000ab5a4       EncodePointer              00000001400ac5a4 f   kernel32:KERNEL32.dll
 0001:000ab5aa       RaiseException             00000001400ac5aa f   kernel32:KERNEL32.dll
 0001:000ab5b0       RtlPcToFileHeader          00000001400ac5b0 f   kernel32:KERNEL32.dll
 0001:000ab5b6       GetStdHandle               00000001400ac5b6 f   kernel32:KERNEL32.dll
 0001:000ab5bc       WriteFile                  00000001400ac5bc f   kernel32:KERNEL32.dll
 0001:000ab5c2       GetModuleFileNameW         00000001400ac5c2 f   kernel32:KERNEL32.dll
 0001:000ab5c8       ExitProcess                00000001400ac5c8 f   kernel32:KERNEL32.dll
 0001:000ab5ce       GetModuleHandleExW         00000001400ac5ce f   kernel32:KERNEL32.dll
 0001:000ab5d4       HeapAlloc                  00000001400ac5d4 f   kernel32:KERNEL32.dll
 0001:000ab5da       HeapSize                   00000001400ac5da f   kernel32:KERNEL32.dll
 0001:000ab5e0       HeapValidate               00000001400ac5e0 f   kernel32:KERNEL32.dll
 0001:000ab5e6       GetSystemInfo              00000001400ac5e6 f   kernel32:KERNEL32.dll
 0001:000ab5ec       GetTempPathW               00000001400ac5ec f   kernel32:KERNEL32.dll
 0001:000ab5f2       FlsAlloc                   00000001400ac5f2 f   kernel32:KERNEL32.dll
 0001:000ab5f8       FlsGetValue                00000001400ac5f8 f   kernel32:KERNEL32.dll
 0001:000ab5fe       FlsSetValue                00000001400ac5fe f   kernel32:KERNEL32.dll
 0001:000ab604       FlsFree                    00000001400ac604 f   kernel32:KERNEL32.dll
 0001:000ab60a       IsThreadAFiber             00000001400ac60a f   kernel32:KERNEL32.dll
 0001:000ab610       InitializeCriticalSectionEx 00000001400ac610 f   kernel32:KERNEL32.dll
 0001:000ab616       VirtualProtect             00000001400ac616 f   kernel32:KERNEL32.dll
 0001:000ab61c       GetDateFormatW             00000001400ac61c f   kernel32:KERNEL32.dll
 0001:000ab622       GetTimeFormatW             00000001400ac622 f   kernel32:KERNEL32.dll
 0001:000ab628       CompareStringW             00000001400ac628 f   kernel32:KERNEL32.dll
 0001:000ab62e       LCMapStringW               00000001400ac62e f   kernel32:KERNEL32.dll
 0001:000ab634       GetLocaleInfoW             00000001400ac634 f   kernel32:KERNEL32.dll
 0001:000ab63a       IsValidLocale              00000001400ac63a f   kernel32:KERNEL32.dll
 0001:000ab640       GetUserDefaultLCID         00000001400ac640 f   kernel32:KERNEL32.dll
 0001:000ab646       EnumSystemLocalesW         00000001400ac646 f   kernel32:KERNEL32.dll
 0001:000ab64c       GetFileType                00000001400ac64c f   kernel32:KERNEL32.dll
 0001:000ab652       GetCurrentThread           00000001400ac652 f   kernel32:KERNEL32.dll
 0001:000ab658       OutputDebugStringW         00000001400ac658 f   kernel32:KERNEL32.dll
 0001:000ab65e       FindClose                  00000001400ac65e f   kernel32:KERNEL32.dll
 0001:000ab664       FindFirstFileExW           00000001400ac664 f   kernel32:KERNEL32.dll
 0001:000ab66a       FindNextFileW              00000001400ac66a f   kernel32:KERNEL32.dll
 0001:000ab670       IsValidCodePage            00000001400ac670 f   kernel32:KERNEL32.dll
 0001:000ab676       GetACP                     00000001400ac676 f   kernel32:KERNEL32.dll
 0001:000ab67c       GetOEMCP                   00000001400ac67c f   kernel32:KERNEL32.dll
 0001:000ab682       GetCPInfo                  00000001400ac682 f   kernel32:KERNEL32.dll
 0001:000ab688       GetCommandLineA            00000001400ac688 f   kernel32:KERNEL32.dll
 0001:000ab68e       GetCommandLineW            00000001400ac68e f   kernel32:KERNEL32.dll
 0001:000ab694       MultiByteToWideChar        00000001400ac694 f   kernel32:KERNEL32.dll
 0001:000ab69a       WideCharToMultiByte        00000001400ac69a f   kernel32:KERNEL32.dll
 0001:000ab6a0       GetEnvironmentStringsW     00000001400ac6a0 f   kernel32:KERNEL32.dll
 0001:000ab6a6       FreeEnvironmentStringsW    00000001400ac6a6 f   kernel32:KERNEL32.dll
 0001:000ab6ac       SetEnvironmentVariableW    00000001400ac6ac f   kernel32:KERNEL32.dll
 0001:000ab6b2       SetStdHandle               00000001400ac6b2 f   kernel32:KERNEL32.dll
 0001:000ab6b8       GetStringTypeW             00000001400ac6b8 f   kernel32:KERNEL32.dll
 0001:000ab6be       GetProcessHeap             00000001400ac6be f   kernel32:KERNEL32.dll
 0001:000ab6c4       SetConsoleCtrlHandler      00000001400ac6c4 f   kernel32:KERNEL32.dll
 0001:000ab6ca       HeapFree                   00000001400ac6ca f   kernel32:KERNEL32.dll
 0001:000ab6d0       HeapReAlloc                00000001400ac6d0 f   kernel32:KERNEL32.dll
 0001:000ab6d6       HeapQueryInformation       00000001400ac6d6 f   kernel32:KERNEL32.dll
 0001:000ab6dc       WriteConsoleW              00000001400ac6dc f   kernel32:KERNEL32.dll
 0001:000ab6e2       FlushFileBuffers           00000001400ac6e2 f   kernel32:KERNEL32.dll
 0001:000ab6e8       GetConsoleOutputCP         00000001400ac6e8 f   kernel32:KERNEL32.dll
 0001:000ab6ee       GetConsoleMode             00000001400ac6ee f   kernel32:KERNEL32.dll
 0001:000ab6f4       GetFileSizeEx              00000001400ac6f4 f   kernel32:KERNEL32.dll
 0001:000ab6fa       SetFilePointerEx           00000001400ac6fa f   kernel32:KERNEL32.dll
 0001:000ab700       CloseHandle                00000001400ac700 f   kernel32:KERNEL32.dll
 0001:000ab706       ReadFile                   00000001400ac706 f   kernel32:KERNEL32.dll
 0001:000ab70c       ReadConsoleW               00000001400ac70c f   kernel32:KERNEL32.dll
 0001:000ab712       CreateFileW                00000001400ac712 f   kernel32:KERNEL32.dll
 0001:000ab720       _FindPESection             00000001400ac720 f   LIBCMTD:pesect.obj
 0001:000ab7d0       _IsNonwritableInCurrentImage 00000001400ac7d0 f   LIBCMTD:pesect.obj
 0001:000ab860       _ValidateImageBase         00000001400ac860 f   LIBCMTD:pesect.obj
 0001:000ab8e0       ??1type_info@@UEAA@XZ      00000001400ac8e0 f   LIBCMTD:std_type_info_static.obj
 0001:000ab900       ??_Etype_info@@UEAAPEAXI@Z 00000001400ac900 f i LIBCMTD:std_type_info_static.obj
 0001:000ab900       ??_Gtype_info@@UEAAPEAXI@Z 00000001400ac900 f i LIBCMTD:std_type_info_static.obj
 0001:000ab940       ??3@YAXPEAX_K@Z            00000001400ac940 f   LIBCMTD:delete_scalar_size.obj
 0001:000ab960       __GSHandlerCheck_SEH       00000001400ac960 f   LIBCMTD:gshandlerseh.obj
 0001:000aba20       __GSHandlerCheck_EH        00000001400aca20 f   LIBCMTD:gshandlereh.obj
 0001:000abae0       __chkstk                   00000001400acae0 f   LIBCMTD:chkstk.obj
 0001:000abae0       _alloca_probe              00000001400acae0 f   LIBCMTD:chkstk.obj
 0001:000abb30       ??3@YAXPEAX@Z              00000001400acb30 f   LIBCMTD:delete_scalar.obj
 0001:000abb50       __C_specific_handler_noexcept 00000001400acb50 f   libvcruntimed:chandler_noexcept.obj
 0001:000abbe0       strrchr                    00000001400acbe0 f   libvcruntimed:strrchr.obj
 0001:000ac010       _local_unwind              00000001400ad010 f   libvcruntimed:jmpuwind.obj
 0001:000ac040       strchr                     00000001400ad040 f   libvcruntimed:strchr.obj
 0001:000ac1d0       wcschr                     00000001400ad1d0 f   libvcruntimed:wcschr.obj
 0001:000ac31c       RtlUnwind                  00000001400ad31c f   kernel32:KERNEL32.dll
 0001:000ac340       _guard_dispatch_icall_nop  00000001400ad340 f   LIBCMTD:guard_dispatch.obj
 0001:000ac360       _guard_xfg_dispatch_icall_nop 00000001400ad360 f   LIBCMTD:guard_xfg_dispatch.obj
 0001:000ac380       _guard_dispatch_icall      00000001400ad380 f   libucrtd:dispatchcfg.obj
 0001:000ac380       _guard_dispatch_icall_$fo_default$ 00000001400ad380     libucrtd:dispatchcfg.obj
 0001:000ac3b0       memcpy_repmovs             00000001400ad3b0 f   libvcruntimed:memcpy.obj
 0001:000ac3c0       memcpy                     00000001400ad3c0 f   libvcruntimed:memcpy.obj
 0001:000ac3c0       memcpy_$fo_default$        00000001400ad3c0     libvcruntimed:memcpy.obj
 0001:000ac3c0       memmove                    00000001400ad3c0 f   libvcruntimed:memcpy.obj
 0001:000aca50       memset_repstos             00000001400ada50 f   libvcruntimed:memset.obj
 0001:000aca60       memset                     00000001400ada60 f   libvcruntimed:memset.obj
 0001:000ace00       strcmp                     00000001400ade00 f   libucrtd:strcmp.obj
 0001:000ace80       strlen                     00000001400ade80 f   libucrtd:strlen.obj
 0001:000acf40       strncmp                    00000001400adf40 f   libucrtd:strncmp.obj
 0001:000acfd0       memcmp                     00000001400adfd0 f   libvcruntimed:memcmp.obj
 0002:00000000       __imp_QueryPerformanceCounter 00000001400af000     kernel32:KERNEL32.dll
 0002:00000008       __imp_GetCurrentProcessId  00000001400af008     kernel32:KERNEL32.dll
 0002:00000010       __imp_GetCurrentThreadId   00000001400af010     kernel32:KERNEL32.dll
 0002:00000018       __imp_GetSystemTimeAsFileTime 00000001400af018     kernel32:KERNEL32.dll
 0002:00000020       __imp_InitializeSListHead  00000001400af020     kernel32:KERNEL32.dll
 0002:00000028       __imp_RtlCaptureContext    00000001400af028     kernel32:KERNEL32.dll
 0002:00000030       __imp_RtlLookupFunctionEntry 00000001400af030     kernel32:KERNEL32.dll
 0002:00000038       __imp_RtlVirtualUnwind     00000001400af038     kernel32:KERNEL32.dll
 0002:00000040       __imp_IsDebuggerPresent    00000001400af040     kernel32:KERNEL32.dll
 0002:00000048       __imp_UnhandledExceptionFilter 00000001400af048     kernel32:KERNEL32.dll
 0002:00000050       __imp_SetUnhandledExceptionFilter 00000001400af050     kernel32:KERNEL32.dll
 0002:00000058       __imp_GetStartupInfoW      00000001400af058     kernel32:KERNEL32.dll
 0002:00000060       __imp_IsProcessorFeaturePresent 00000001400af060     kernel32:KERNEL32.dll
 0002:00000068       __imp_GetModuleHandleW     00000001400af068     kernel32:KERNEL32.dll
 0002:00000070       __imp_GetCurrentProcess    00000001400af070     kernel32:KERNEL32.dll
 0002:00000078       __imp_TerminateProcess     00000001400af078     kernel32:KERNEL32.dll
 0002:00000080       __imp_RtlUnwindEx          00000001400af080     kernel32:KERNEL32.dll
 0002:00000088       __imp_InterlockedPushEntrySList 00000001400af088     kernel32:KERNEL32.dll
 0002:00000090       __imp_InterlockedFlushSList 00000001400af090     kernel32:KERNEL32.dll
 0002:00000098       __imp_GetLastError         00000001400af098     kernel32:KERNEL32.dll
 0002:000000a0       __imp_SetLastError         00000001400af0a0     kernel32:KERNEL32.dll
 0002:000000a8       __imp_EnterCriticalSection 00000001400af0a8     kernel32:KERNEL32.dll
 0002:000000b0       __imp_LeaveCriticalSection 00000001400af0b0     kernel32:KERNEL32.dll
 0002:000000b8       __imp_DeleteCriticalSection 00000001400af0b8     kernel32:KERNEL32.dll
 0002:000000c0       __imp_InitializeCriticalSectionAndSpinCount 00000001400af0c0     kernel32:KERNEL32.dll
 0002:000000c8       __imp_TlsAlloc             00000001400af0c8     kernel32:KERNEL32.dll
 0002:000000d0       __imp_TlsGetValue          00000001400af0d0     kernel32:KERNEL32.dll
 0002:000000d8       __imp_TlsSetValue          00000001400af0d8     kernel32:KERNEL32.dll
 0002:000000e0       __imp_TlsFree              00000001400af0e0     kernel32:KERNEL32.dll
 0002:000000e8       __imp_FreeLibrary          00000001400af0e8     kernel32:KERNEL32.dll
 0002:000000f0       __imp_GetProcAddress       00000001400af0f0     kernel32:KERNEL32.dll
 0002:000000f8       __imp_LoadLibraryExW       00000001400af0f8     kernel32:KERNEL32.dll
 0002:00000100       __imp_EncodePointer        00000001400af100     kernel32:KERNEL32.dll
 0002:00000108       __imp_RaiseException       00000001400af108     kernel32:KERNEL32.dll
 0002:00000110       __imp_RtlPcToFileHeader    00000001400af110     kernel32:KERNEL32.dll
 0002:00000118       __imp_GetStdHandle         00000001400af118     kernel32:KERNEL32.dll
 0002:00000120       __imp_WriteFile            00000001400af120     kernel32:KERNEL32.dll
 0002:00000128       __imp_GetModuleFileNameW   00000001400af128     kernel32:KERNEL32.dll
 0002:00000130       __imp_ExitProcess          00000001400af130     kernel32:KERNEL32.dll
 0002:00000138       __imp_GetModuleHandleExW   00000001400af138     kernel32:KERNEL32.dll
 0002:00000140       __imp_HeapAlloc            00000001400af140     kernel32:KERNEL32.dll
 0002:00000148       __imp_HeapSize             00000001400af148     kernel32:KERNEL32.dll
 0002:00000150       __imp_HeapValidate         00000001400af150     kernel32:KERNEL32.dll
 0002:00000158       __imp_GetSystemInfo        00000001400af158     kernel32:KERNEL32.dll
 0002:00000160       __imp_GetTempPathW         00000001400af160     kernel32:KERNEL32.dll
 0002:00000168       __imp_FlsAlloc             00000001400af168     kernel32:KERNEL32.dll
 0002:00000170       __imp_FlsGetValue          00000001400af170     kernel32:KERNEL32.dll
 0002:00000178       __imp_FlsSetValue          00000001400af178     kernel32:KERNEL32.dll
 0002:00000180       __imp_FlsFree              00000001400af180     kernel32:KERNEL32.dll
 0002:00000188       __imp_IsThreadAFiber       00000001400af188     kernel32:KERNEL32.dll
 0002:00000190       __imp_InitializeCriticalSectionEx 00000001400af190     kernel32:KERNEL32.dll
 0002:00000198       __imp_VirtualProtect       00000001400af198     kernel32:KERNEL32.dll
 0002:000001a0       __imp_GetDateFormatW       00000001400af1a0     kernel32:KERNEL32.dll
 0002:000001a8       __imp_GetTimeFormatW       00000001400af1a8     kernel32:KERNEL32.dll
 0002:000001b0       __imp_CompareStringW       00000001400af1b0     kernel32:KERNEL32.dll
 0002:000001b8       __imp_LCMapStringW         00000001400af1b8     kernel32:KERNEL32.dll
 0002:000001c0       __imp_GetLocaleInfoW       00000001400af1c0     kernel32:KERNEL32.dll
 0002:000001c8       __imp_IsValidLocale        00000001400af1c8     kernel32:KERNEL32.dll
 0002:000001d0       __imp_GetUserDefaultLCID   00000001400af1d0     kernel32:KERNEL32.dll
 0002:000001d8       __imp_EnumSystemLocalesW   00000001400af1d8     kernel32:KERNEL32.dll
 0002:000001e0       __imp_GetFileType          00000001400af1e0     kernel32:KERNEL32.dll
 0002:000001e8       __imp_GetCurrentThread     00000001400af1e8     kernel32:KERNEL32.dll
 0002:000001f0       __imp_OutputDebugStringW   00000001400af1f0     kernel32:KERNEL32.dll
 0002:000001f8       __imp_FindClose            00000001400af1f8     kernel32:KERNEL32.dll
 0002:00000200       __imp_FindFirstFileExW     00000001400af200     kernel32:KERNEL32.dll
 0002:00000208       __imp_FindNextFileW        00000001400af208     kernel32:KERNEL32.dll
 0002:00000210       __imp_IsValidCodePage      00000001400af210     kernel32:KERNEL32.dll
 0002:00000218       __imp_GetACP               00000001400af218     kernel32:KERNEL32.dll
 0002:00000220       __imp_GetOEMCP             00000001400af220     kernel32:KERNEL32.dll
 0002:00000228       __imp_GetCPInfo            00000001400af228     kernel32:KERNEL32.dll
 0002:00000230       __imp_GetCommandLineA      00000001400af230     kernel32:KERNEL32.dll
 0002:00000238       __imp_GetCommandLineW      00000001400af238     kernel32:KERNEL32.dll
 0002:00000240       __imp_MultiByteToWideChar  00000001400af240     kernel32:KERNEL32.dll
 0002:00000248       __imp_WideCharToMultiByte  00000001400af248     kernel32:KERNEL32.dll
 0002:00000250       __imp_GetEnvironmentStringsW 00000001400af250     kernel32:KERNEL32.dll
 0002:00000258       __imp_FreeEnvironmentStringsW 00000001400af258     kernel32:KERNEL32.dll
 0002:00000260       __imp_SetEnvironmentVariableW 00000001400af260     kernel32:KERNEL32.dll
 0002:00000268       __imp_SetStdHandle         00000001400af268     kernel32:KERNEL32.dll
 0002:00000270       __imp_GetStringTypeW       00000001400af270     kernel32:KERNEL32.dll
 0002:00000278       __imp_GetProcessHeap       00000001400af278     kernel32:KERNEL32.dll
 0002:00000280       __imp_SetConsoleCtrlHandler 00000001400af280     kernel32:KERNEL32.dll
 0002:00000288       __imp_HeapFree             00000001400af288     kernel32:KERNEL32.dll
 0002:00000290       __imp_HeapReAlloc          00000001400af290     kernel32:KERNEL32.dll
 0002:00000298       __imp_HeapQueryInformation 00000001400af298     kernel32:KERNEL32.dll
 0002:000002a0       __imp_WriteConsoleW        00000001400af2a0     kernel32:KERNEL32.dll
 0002:000002a8       __imp_FlushFileBuffers     00000001400af2a8     kernel32:KERNEL32.dll
 0002:000002b0       __imp_GetConsoleOutputCP   00000001400af2b0     kernel32:KERNEL32.dll
 0002:000002b8       __imp_GetConsoleMode       00000001400af2b8     kernel32:KERNEL32.dll
 0002:000002c0       __imp_GetFileSizeEx        00000001400af2c0     kernel32:KERNEL32.dll
 0002:000002c8       __imp_SetFilePointerEx     00000001400af2c8     kernel32:KERNEL32.dll
 0002:000002d0       __imp_CloseHandle          00000001400af2d0     kernel32:KERNEL32.dll
 0002:000002d8       __imp_ReadFile             00000001400af2d8     kernel32:KERNEL32.dll
 0002:000002e0       __imp_ReadConsoleW         00000001400af2e0     kernel32:KERNEL32.dll
 0002:000002e8       __imp_CreateFileW          00000001400af2e8     kernel32:KERNEL32.dll
 0002:000002f0       __imp_RtlUnwind            00000001400af2f0     kernel32:KERNEL32.dll
 0002:000002f8       \177KERNEL32_NULL_THUNK_DATA 00000001400af2f8     kernel32:KERNEL32.dll
 0002:00000300       __guard_check_icall_fptr   00000001400af300     LIBCMTD:guard_support.obj
 0002:00000308       __guard_xfg_check_icall_fptr 00000001400af308     LIBCMTD:guard_support.obj
 0002:00000310       __guard_dispatch_icall_fptr 00000001400af310     LIBCMTD:guard_support.obj
 0002:00000318       __guard_xfg_dispatch_icall_fptr 00000001400af318     LIBCMTD:guard_support.obj
 0002:00000320       __guard_xfg_table_dispatch_icall_fptr 00000001400af320     LIBCMTD:guard_support.obj
 0002:00000328       __castguard_check_failure_os_handled_fptr 00000001400af328     LIBCMTD:guard_support.obj
 0002:00000330       __guard_memcpy_fptr        00000001400af330     libvcruntimed:softmemtag.obj
 0002:00000338       __xc_a                     00000001400af338     LIBCMTD:initializers.obj
 0002:00000348       __xc_z                     00000001400af348     LIBCMTD:initializers.obj
 0002:00000350       __xi_a                     00000001400af350     LIBCMTD:initializers.obj
 0002:00000368       __acrt_stdio_initializer   00000001400af368     libucrtd:stdio_initializer.obj
 0002:00000370       __acrt_multibyte_initializer 00000001400af370     libucrtd:multibyte_initializer.obj
 0002:00000378       __acrt_fmode_initializer   00000001400af378     libucrtd:fmode_initializer.obj
 0002:00000380       __acrt_tran_fma3_initializer 00000001400af380     libucrtd:fma3_initializer.obj
 0002:00000388       __xi_z                     00000001400af388     LIBCMTD:initializers.obj
 0002:00000390       __xp_a                     00000001400af390     LIBCMTD:initializers.obj
 0002:00000398       __acrt_locale_terminator   00000001400af398     libucrtd:locale_initializer.obj
 0002:000003a0       __dcrt_console_output_terminator 00000001400af3a0     libucrtd:console_output_initializer.obj
 0002:000003a8       __acrt_stdio_terminator    00000001400af3a8     libucrtd:stdio_initializer.obj
 0002:000003b0       __xp_z                     00000001400af3b0     LIBCMTD:initializers.obj
 0002:000003b8       __xt_a                     00000001400af3b8     LIBCMTD:initializers.obj
 0002:000003c0       __xt_z                     00000001400af3c0     LIBCMTD:initializers.obj
 0002:000003e0       ??_C@_0EC@CDJPIOJK@D?3?2a?2_work?21?2s?2src?2vctools?2crt?2@ 00000001400af3e0     libvcruntimed:std_type_info.obj
 0002:00000428       _pDestructExceptionObject  00000001400af428     libvcruntimed:ehhelpers.obj
 0002:00000430       ??_C@_0EK@HNOIOKGA@D?3?2a?2_work?21?2s?2src?2vctools?2crt?2@ 00000001400af430     libvcruntimed:per_thread_data.obj
 0002:00000b90       ??_C@_08EHJDFFNH@__based?$CI@ 00000001400afb90     libvcruntimed:undname.obj
 0002:00000ba0       ??_C@_07KOLFKCDI@__cdecl@  00000001400afba0     libvcruntimed:undname.obj
 0002:00000ba8       ??_C@_09IFJBGAPI@__stdcall@ 00000001400afba8     libvcruntimed:undname.obj
 0002:00000bb8       ??_C@_0L@NPHFGOKO@__thiscall@ 00000001400afbb8     libvcruntimed:undname.obj
 0002:00000bc8       ??_C@_0L@JMKHOMEK@__fastcall@ 00000001400afbc8     libvcruntimed:undname.obj
 0002:00000bd8       ??_C@_0N@BCKKPABJ@__vectorcall@ 00000001400afbd8     libvcruntimed:undname.obj
 0002:00000be8       ??_C@_0BA@NAGGFLJK@__preserve_none@ 00000001400afbe8     libvcruntimed:undname.obj
 0002:00000bf8       ??_C@_09HIJEGCPM@__clrcall@ 00000001400afbf8     libvcruntimed:undname.obj
 0002:00000c04       ??_C@_06GHPCKEAG@__eabi@   00000001400afc04     libvcruntimed:undname.obj
 0002:00000c10       ??_C@_09IOPIDJLG@__swift_1@ 00000001400afc10     libvcruntimed:undname.obj
 0002:00000c20       ??_C@_09KFNFGKHF@__swift_2@ 00000001400afc20     libvcruntimed:undname.obj
 0002:00000c30       ??_C@_09LMMOFLDE@__swift_3@ 00000001400afc30     libvcruntimed:undname.obj
 0002:00000c40       ??_C@_07JOMMBBKO@__ptr64@  00000001400afc40     libvcruntimed:undname.obj
 0002:00000c48       ??_C@_0L@PILCLIHE@__restrict@ 00000001400afc48     libvcruntimed:undname.obj
 0002:00000c58       ??_C@_0M@GFIIJFMG@__unaligned@ 00000001400afc58     libvcruntimed:undname.obj
 0002:00000c68       ??_C@_09DHDLOLLB@restrict?$CI@ 00000001400afc68     libvcruntimed:undname.obj
 0002:00000c72       ??_C@_00CNPNBAHC@@         00000001400afc72     libvcruntimed:undname.obj
 0002:00000c74       ??_C@_04NIHEBCM@?5new@     00000001400afc74     libvcruntimed:undname.obj
 0002:00000c80       ??_C@_07FPCDHGMM@?5delete@ 00000001400afc80     libvcruntimed:undname.obj
 0002:00000c88       ??_C@_01NEMOKFLO@?$DN@     00000001400afc88     libvcruntimed:undname.obj
 0002:00000c8c       ??_C@_02GPIOPFAK@?$DO?$DO@ 00000001400afc8c     libvcruntimed:undname.obj
 0002:00000c90       ??_C@_02FODMEDOG@?$DM?$DM@ 00000001400afc90     libvcruntimed:undname.obj
 0002:00000c94       ??_C@_01DCLJPIOD@?$CB@     00000001400afc94     libvcruntimed:undname.obj
 0002:00000c98       ??_C@_02EGOFBIJA@?$DN?$DN@ 00000001400afc98     libvcruntimed:undname.obj
 0002:00000c9c       ??_C@_02FDNJECIE@?$CB?$DN@ 00000001400afc9c     libvcruntimed:undname.obj
 0002:00000ca0       ??_C@_02GPECMEKF@?$FL?$FN@ 00000001400afca0     libvcruntimed:undname.obj
 0002:00000ca8       ??_C@_08LHJFAFGD@operator@ 00000001400afca8     libvcruntimed:undname.obj
 0002:00000cb4       ??_C@_02HBOOOICD@?9?$DO@   00000001400afcb4     libvcruntimed:undname.obj
 0002:00000cb8       ??_C@_01NBENCBCI@?$CK@     00000001400afcb8     libvcruntimed:undname.obj
 0002:00000cbc       ??_C@_02ECNGHCIF@?$CL?$CL@ 00000001400afcbc     libvcruntimed:undname.obj
 0002:00000cc0       ??_C@_02BAABKJLB@?9?9@     00000001400afcc0     libvcruntimed:undname.obj
 0002:00000cc4       ??_C@_01JOAMLHOP@?9@       00000001400afcc4     libvcruntimed:undname.obj
 0002:00000cc8       ??_C@_01MIFGBAGJ@?$CL@     00000001400afcc8     libvcruntimed:undname.obj
 0002:00000ccc       ??_C@_01HNPIGOCE@?$CG@     00000001400afccc     libvcruntimed:undname.obj
 0002:00000cd0       ??_C@_03MNHNFDLC@?9?$DO?$CK@ 00000001400afcd0     libvcruntimed:undname.obj
 0002:00000cd4       ??_C@_01KMDKNFGN@?1@       00000001400afcd4     libvcruntimed:undname.obj
 0002:00000cd8       ??_C@_01FGNFDNOH@?$CF@     00000001400afcd8     libvcruntimed:undname.obj
 0002:00000cdc       ??_C@_01MNNFJEPP@?$DM@     00000001400afcdc     libvcruntimed:undname.obj
 0002:00000ce0       ??_C@_02EHCHHCKH@?$DM?$DN@ 00000001400afce0     libvcruntimed:undname.obj
 0002:00000ce4       ??_C@_01PPODPGHN@?$DO@     00000001400afce4     libvcruntimed:undname.obj
 0002:00000ce8       ??_C@_02EEKDKGMJ@?$DO?$DN@ 00000001400afce8     libvcruntimed:undname.obj
 0002:00000cec       ??_C@_01IHBHIGKO@?0@       00000001400afcec     libvcruntimed:undname.obj
 0002:00000cf0       ??_C@_02HCKGKOFO@?$CI?$CJ@ 00000001400afcf0     libvcruntimed:undname.obj
 0002:00000cf4       ??_C@_01PJKLJHI@?$HO@      00000001400afcf4     libvcruntimed:undname.obj
 0002:00000cf8       ??_C@_01JKBOJNNK@?$FO@     00000001400afcf8     libvcruntimed:undname.obj
 0002:00000cfc       ??_C@_01DNKMNLPK@?$HM@     00000001400afcfc     libvcruntimed:undname.obj
 0002:00000d00       ??_C@_02PPKAJPJL@?$CG?$CG@ 00000001400afd00     libvcruntimed:undname.obj
 0002:00000d04       ??_C@_02NONPIBCD@?$HM?$HM@ 00000001400afd04     libvcruntimed:undname.obj
 0002:00000d08       ??_C@_02FPIMKNGF@?$CK?$DN@ 00000001400afd08     libvcruntimed:undname.obj
 0002:00000d0c       ??_C@_02FOEOMHFC@?$CL?$DN@ 00000001400afd0c     libvcruntimed:undname.obj
 0002:00000d10       ??_C@_02FKMDLLOA@?9?$DN@   00000001400afd10     libvcruntimed:undname.obj
 0002:00000d14       ??_C@_02FJEHGPIO@?1?$DN@   00000001400afd14     libvcruntimed:undname.obj
 0002:00000d18       ??_C@_02FENAOKFI@?$CF?$DN@ 00000001400afd18     libvcruntimed:undname.obj
 0002:00000d1c       ??_C@_03IKFCCPFF@?$DO?$DO?$DN@ 00000001400afd1c     libvcruntimed:undname.obj
 0002:00000d20       ??_C@_03CDNPDDLA@?$DM?$DM?$DN@ 00000001400afd20     libvcruntimed:undname.obj
 0002:00000d24       ??_C@_02FGJGFEAB@?$CG?$DN@ 00000001400afd24     libvcruntimed:undname.obj
 0002:00000d28       ??_C@_02DHLNPPGH@?$HM?$DN@ 00000001400afd28     libvcruntimed:undname.obj
 0002:00000d2c       ??_C@_02MHEGNOJ@?$FO?$DN@  00000001400afd2c     libvcruntimed:undname.obj
 0002:00000d30       ??_C@_09IFPLHPGF@?$GAvftable?8@ 00000001400afd30     libvcruntimed:undname.obj
 0002:00000d40       ??_C@_09BLBHBJP@?$GAvbtable?8@ 00000001400afd40     libvcruntimed:undname.obj
 0002:00000d50       ??_C@_07FEEIOKP@?$GAvcall?8@ 00000001400afd50     libvcruntimed:undname.obj
 0002:00000d58       ??_C@_08LLFFHHDJ@?$GAtypeof?8@ 00000001400afd58     libvcruntimed:undname.obj
 0002:00000d68       ??_C@_0BF@KDPPACIK@?$GAlocal?5static?5guard?8@ 00000001400afd68     libvcruntimed:undname.obj
 0002:00000d80       ??_C@_08OBABFOLI@?$GAstring?8@ 00000001400afd80     libvcruntimed:undname.obj
 0002:00000d90       ??_C@_0BD@JDLKDPAB@?$GAvbase?5destructor?8@ 00000001400afd90     libvcruntimed:undname.obj
 0002:00000da8       ??_C@_0BN@DEGPLNFK@?$GAvector?5deleting?5destructor?8@ 00000001400afda8     libvcruntimed:undname.obj
 0002:00000dc8       ??_C@_0BO@OBMKPJIG@?$GAdefault?5constructor?5closure?8@ 00000001400afdc8     libvcruntimed:undname.obj
 0002:00000de8       ??_C@_0BN@IMDCHIKM@?$GAscalar?5deleting?5destructor?8@ 00000001400afde8     libvcruntimed:undname.obj
 0002:00000e08       ??_C@_0BO@PFGOCPJJ@?$GAvector?5constructor?5iterator?8@ 00000001400afe08     libvcruntimed:undname.obj
 0002:00000e28       ??_C@_0BN@LFPFMEDL@?$GAvector?5destructor?5iterator?8@ 00000001400afe28     libvcruntimed:undname.obj
 0002:00000e48       ??_C@_0CE@IKBNEHA@?$GAvector?5vbase?5constructor?5itera@ 00000001400afe48     libvcruntimed:undname.obj
 0002:00000e70       ??_C@_0BL@NILFHHPC@?$GAvirtual?5displacement?5map?8@ 00000001400afe70     libvcruntimed:undname.obj
 0002:00000e90       ??_C@_0CB@JONCMFFK@?$GAeh?5vector?5constructor?5iterator@ 00000001400afe90     libvcruntimed:undname.obj
 0002:00000eb8       ??_C@_0CA@GCEOPDGL@?$GAeh?5vector?5destructor?5iterator?8@ 00000001400afeb8     libvcruntimed:undname.obj
 0002:00000ed8       ??_C@_0CH@OOJPLCPH@?$GAeh?5vector?5vbase?5constructor?5it@ 00000001400afed8     libvcruntimed:undname.obj
 0002:00000f00       ??_C@_0BL@LLKPOHJI@?$GAcopy?5constructor?5closure?8@ 00000001400aff00     libvcruntimed:undname.obj
 0002:00000f20       ??_C@_0BA@KBCDOMBN@?$GAudt?5returning?8@ 00000001400aff20     libvcruntimed:undname.obj
 0002:00000f30       ??_C@_03KLGMFNMG@?$GAEH@   00000001400aff30     libvcruntimed:undname.obj
 0002:00000f34       ??_C@_05KHLCHHI@?$GARTTI@  00000001400aff34     libvcruntimed:undname.obj
 0002:00000f40       ??_C@_0BA@KKLDJDLB@?$GAlocal?5vftable?8@ 00000001400aff40     libvcruntimed:undname.obj
 0002:00000f50       ??_C@_0CE@IIHCMGGL@?$GAlocal?5vftable?5constructor?5clos@ 00000001400aff50     libvcruntimed:undname.obj
 0002:00000f74       ??_C@_06FHBGPFGH@?5new?$FL?$FN@ 00000001400aff74     libvcruntimed:undname.obj
 0002:00000f80       ??_C@_09LBNFPBCA@?5delete?$FL?$FN@ 00000001400aff80     libvcruntimed:undname.obj
 0002:00000f90       ??_C@_0P@HJKNJFNN@?$GAomni?5callsig?8@ 00000001400aff90     libvcruntimed:undname.obj
 0002:00000fa0       ??_C@_0BL@CNOONJFP@?$GAplacement?5delete?5closure?8@ 00000001400affa0     libvcruntimed:undname.obj
 0002:00000fc0       ??_C@_0BN@CKNJLHMB@?$GAplacement?5delete?$FL?$FN?5closure?8@ 00000001400affc0     libvcruntimed:undname.obj
 0002:00000fe0       ??_C@_0CG@CFDHKGGD@?$GAmanaged?5vector?5constructor?5ite@ 00000001400affe0     libvcruntimed:undname.obj
 0002:00001008       ??_C@_0CF@IMGKMJNO@?$GAmanaged?5vector?5destructor?5iter@ 00000001400b0008     libvcruntimed:undname.obj
 0002:00001030       ??_C@_0CG@HLDDJMAG@?$GAeh?5vector?5copy?5constructor?5ite@ 00000001400b0030     libvcruntimed:undname.obj
 0002:00001058       ??_C@_0CM@FCBBDIGB@?$GAeh?5vector?5vbase?5copy?5construct@ 00000001400b0058     libvcruntimed:undname.obj
 0002:00001088       ??_C@_0BL@CLIPGLGB@?$GAdynamic?5initializer?5for?5?8@ 00000001400b0088     libvcruntimed:undname.obj
 0002:000010a8       ??_C@_0CB@PDBIFEP@?$GAdynamic?5atexit?5destructor?5for?5@ 00000001400b00a8     libvcruntimed:undname.obj
 0002:000010d0       ??_C@_0CD@CGAJBKEJ@?$GAvector?5copy?5constructor?5iterat@ 00000001400b00d0     libvcruntimed:undname.obj
 0002:000010f8       ??_C@_0CJ@GJELGAMM@?$GAvector?5vbase?5copy?5constructor?5@ 00000001400b00f8     libvcruntimed:undname.obj
 0002:00001128       ??_C@_0CL@FGIJHLCE@?$GAmanaged?5vector?5copy?5constructo@ 00000001400b0128     libvcruntimed:undname.obj
 0002:00001158       ??_C@_0BM@PMGGMLDN@?$GAlocal?5static?5thread?5guard?8@ 00000001400b0158     libvcruntimed:undname.obj
 0002:00001178       ??_C@_0N@BDNMDMOL@operator?5?$CC?$CC?5@ 00000001400b0178     libvcruntimed:undname.obj
 0002:00001188       ??_C@_0BC@GGEBGALA@operator?5co_await@ 00000001400b0188     libvcruntimed:undname.obj
 0002:000011a0       ??_C@_0M@GAAIMMOH@operator?$DM?$DN?$DO@ 00000001400b01a0     libvcruntimed:undname.obj
 0002:000011b0       ??_C@_0BC@DAFEJGAK@?5Type?5Descriptor?8@ 00000001400b01b0     libvcruntimed:undname.obj
 0002:000011c8       ??_C@_0BM@LDKODKLH@?5Base?5Class?5Descriptor?5at?5?$CI@ 00000001400b01c8     libvcruntimed:undname.obj
 0002:000011e8       ??_C@_0BD@LGICGFMM@?5Base?5Class?5Array?8@ 00000001400b01e8     libvcruntimed:undname.obj
 0002:00001200       ??_C@_0BN@MECKDCOJ@?5Class?5Hierarchy?5Descriptor?8@ 00000001400b0200     libvcruntimed:undname.obj
 0002:00001220       ??_C@_0BK@CFCOFLF@?5Complete?5Object?5Locator?8@ 00000001400b0220     libvcruntimed:undname.obj
 0002:00001240       ??_C@_0BG@JNJLAMPM@?$GAanonymous?5namespace?8@ 00000001400b0240     libvcruntimed:undname.obj
 0002:00001256       ?in_place@std@@3Uin_place_t@1@B 00000001400b0256     libvcruntimed:undname.obj
 0002:00001258       ??_C@_04HEJADOOB@CV?3?5@   00000001400b0258     libvcruntimed:undname.obj
 0002:00001260       ??_C@_03GDILBHBJ@$$h@      00000001400b0260     libvcruntimed:undname.obj
 0002:00001264       ??_C@_02MOLJINC@?3?3@      00000001400b0264     libvcruntimed:undname.obj
 0002:00001268       ??_C@_0BE@JAEOCHPE@template?9parameter?9@ 00000001400b0268     libvcruntimed:undname.obj
 0002:00001280       ??_C@_0BF@LNLGBBNL@?$GAtemplate?9parameter?9@ 00000001400b0280     libvcruntimed:undname.obj
 0002:00001298       ??_C@_0O@KHGCOMHP@generic?9type?9@ 00000001400b0298     libvcruntimed:undname.obj
 0002:000012a8       ??_C@_0P@ODDENDLM@?$GAgeneric?9type?9@ 00000001400b02a8     libvcruntimed:undname.obj
 0002:000012b8       ??_C@_02OHHJMEON@?8?8@     00000001400b02b8     libvcruntimed:undname.obj
 0002:000012c0       ??_C@_0BN@IBLMMFAP@?$GAnon?9type?9template?9parameter@ 00000001400b02c0     libvcruntimed:undname.obj
 0002:000012e0       ??_C@_03DLDNIBIK@?$CFlf@   00000001400b02e0     libvcruntimed:undname.obj
 0002:000012e4       ??_C@_04OFALKAJ@?$DP?$DP_C@ 00000001400b02e4     libvcruntimed:undname.obj
 0002:000012ec       ??_C@_03KHICJKCI@?4?4?4@   00000001400b02ec     libvcruntimed:undname.obj
 0002:000012f0       ??_C@_04HIBGFPH@NULL@      00000001400b02f0     libvcruntimed:undname.obj
 0002:000012f8       ??_C@_02DPKJAMEF@?$CFd@    00000001400b02f8     libvcruntimed:undname.obj
 0002:00001300       ??_C@_0BK@IHCCFNEL@?$GAtemplate?9type?9parameter?9@ 00000001400b0300     libvcruntimed:undname.obj
 0002:00001320       ??_C@_0BK@OFCNNNKO@?$GAgeneric?9class?9parameter?9@ 00000001400b0320     libvcruntimed:undname.obj
 0002:00001340       ??_C@_0BL@NGJBLFIL@?$GAgeneric?9method?9parameter?9@ 00000001400b0340     libvcruntimed:undname.obj
 0002:00001360       ??_C@_07OHNGEDJK@nullptr@  00000001400b0360     libvcruntimed:undname.obj
 0002:00001368       ??_C@_06COJIGPIB@lambda@   00000001400b0368     libvcruntimed:undname.obj
 0002:00001370       ??_C@_04GKJNKENE@void@     00000001400b0370     libvcruntimed:undname.obj
 0002:00001378       ??_C@_0BE@EODMJLIF@?$GAtemplate?9parameter@ 00000001400b0378     libvcruntimed:undname.obj
 0002:0000138c       ??_C@_03OPGICMGF@?$HN?8?5@ 00000001400b038c     libvcruntimed:undname.obj
 0002:00001390       ??_C@_02IGFCGPIL@?$HN?8@   00000001400b0390     libvcruntimed:undname.obj
 0002:00001398       ??_C@_0N@CBHHHENL@?$GAvtordispex?$HL@ 00000001400b0398     libvcruntimed:undname.obj
 0002:000013a8       ??_C@_0L@GHPFDFH@?$GAvtordisp?$HL@ 00000001400b03a8     libvcruntimed:undname.obj
 0002:000013b8       ??_C@_0L@HNGCOGAE@?$GAadjustor?$HL@ 00000001400b03b8     libvcruntimed:undname.obj
 0002:000013c8       ??_C@_0CB@KJDOOODE@?$GAlocal?5static?5destructor?5helper@ 00000001400b03c8     libvcruntimed:undname.obj
 0002:000013f0       ??_C@_0DB@ILEFOCIJ@?$GAtemplate?5static?5data?5member?5co@ 00000001400b03f0     libvcruntimed:undname.obj
 0002:00001428       ??_C@_0DA@HGFJFBBE@?$GAtemplate?5static?5data?5member?5de@ 00000001400b0428     libvcruntimed:undname.obj
 0002:00001458       ??_C@_07PGOEDBHP@static?5@ 00000001400b0458     libvcruntimed:undname.obj
 0002:00001460       ??_C@_08NIEOINHE@virtual?5@ 00000001400b0460     libvcruntimed:undname.obj
 0002:00001470       ??_C@_09LAPHOOG@private?3?5@ 00000001400b0470     libvcruntimed:undname.obj
 0002:00001480       ??_C@_0M@GAIFPFIP@protected?3?5@ 00000001400b0480     libvcruntimed:undname.obj
 0002:00001490       ??_C@_08GPDDCMKI@public?3?5@ 00000001400b0490     libvcruntimed:undname.obj
 0002:000014a0       ??_C@_08KJLFOPNE@?$FLthunk?$FN?3@ 00000001400b04a0     libvcruntimed:undname.obj
 0002:000014b0       ??_C@_0M@DHNBOJMP@extern?5?$CCC?$CC?5@ 00000001400b04b0     libvcruntimed:undname.obj
 0002:000014bc       ??_C@_02KCKGHPCA@?$CJ?5@   00000001400b04bc     libvcruntimed:undname.obj
 0002:000014c0       ??_C@_05CIHEBHNO@char?5@   00000001400b04c0     libvcruntimed:undname.obj
 0002:000014c8       ??_C@_06EHJMALKF@short?5@  00000001400b04c8     libvcruntimed:undname.obj
 0002:000014d0       ??_C@_04LAHKHJMA@int?5@    00000001400b04d0     libvcruntimed:undname.obj
 0002:000014d8       ??_C@_05CJIMAING@long?5@   00000001400b04d8     libvcruntimed:undname.obj
 0002:000014e0       ??_C@_09EBBEKKIH@unsigned?5@ 00000001400b04e0     libvcruntimed:undname.obj
 0002:000014ec       ??_C@_05BEFAKPML@void?5@   00000001400b04ec     libvcruntimed:undname.obj
 0002:000014f8       ??_C@_09GAIEOBLP@volatile?5@ 00000001400b04f8     libvcruntimed:undname.obj
 0002:00001508       ??_C@_08PABEKFH@volatile@  00000001400b0508     libvcruntimed:undname.obj
 0002:00001518       ??_C@_0BA@LKIJLKPP@std?3?3nullptr_t?5@ 00000001400b0518     libvcruntimed:undname.obj
 0002:00001528       ??_C@_0P@GCOCNKDM@std?3?3nullptr_t@ 00000001400b0528     libvcruntimed:undname.obj
 0002:00001538       ??_C@_0L@EGPHHEKN@?$DMellipsis?$DO@ 00000001400b0538     libvcruntimed:undname.obj
 0002:00001544       ??_C@_04EENFHACM@?0?4?4?4@ 00000001400b0544     libvcruntimed:undname.obj
 0002:00001550       ??_C@_0M@ELJOJFFH@?0?$DMellipsis?$DO@ 00000001400b0550     libvcruntimed:undname.obj
 0002:00001560       ??_C@_09DNHFEOJI@?5noexcept@ 00000001400b0560     libvcruntimed:undname.obj
 0002:0000156c       ??_C@_03PBJBJNON@cpu@      00000001400b056c     libvcruntimed:undname.obj
 0002:00001570       ??_C@_03DCBBJBAA@amp@      00000001400b0570     libvcruntimed:undname.obj
 0002:00001574       ??_C@_02KEGNLNML@?0?5@     00000001400b0574     libvcruntimed:undname.obj
 0002:00001578       ??_C@_04ENMBGAPA@char@     00000001400b0578     libvcruntimed:undname.obj
 0002:00001580       ??_C@_05BFKKPKCG@short@    00000001400b0580     libvcruntimed:undname.obj
 0002:00001588       ??_C@_03JBIPMCLC@int@      00000001400b0588     libvcruntimed:undname.obj
 0002:0000158c       ??_C@_04GOKPGOLB@long@     00000001400b058c     libvcruntimed:undname.obj
 0002:00001594       ??_C@_05KNFBNCOH@float@    00000001400b0594     libvcruntimed:undname.obj
 0002:0000159c       ??_C@_06BNJCAIGJ@double@   00000001400b059c     libvcruntimed:undname.obj
 0002:000015a4       ??_C@_04DDKJGDCM@bool@     00000001400b05a4     libvcruntimed:undname.obj
 0002:000015ac       ??_C@_06EBGKOKIG@__int8@   00000001400b05ac     libvcruntimed:undname.obj
 0002:000015b8       ??_C@_07ICFHOGAF@__int16@  00000001400b05b8     libvcruntimed:undname.obj
 0002:000015c0       ??_C@_07OFLPPHGP@__int32@  00000001400b05c0     libvcruntimed:undname.obj
 0002:000015c8       ??_C@_07LFCOJCAC@__int64@  00000001400b05c8     libvcruntimed:undname.obj
 0002:000015d0       ??_C@_08GAHOLHEO@__int128@ 00000001400b05d0     libvcruntimed:undname.obj
 0002:000015e0       ??_C@_09EEKGDCPH@?$DMunknown?$DO@ 00000001400b05e0     libvcruntimed:undname.obj
 0002:000015f0       ??_C@_07CFHGOPCN@char8_t@  00000001400b05f0     libvcruntimed:undname.obj
 0002:000015f8       ??_C@_08HBIPOFJB@char16_t@ 00000001400b05f8     libvcruntimed:undname.obj
 0002:00001608       ??_C@_08IECNCBKG@char32_t@ 00000001400b0608     libvcruntimed:undname.obj
 0002:00001618       ??_C@_07CLGGIAMF@wchar_t@  00000001400b0618     libvcruntimed:undname.obj
 0002:00001620       ??_C@_04HAPDLBFF@auto@     00000001400b0620     libvcruntimed:undname.obj
 0002:00001628       ??_C@_0P@LHCGKIGK@decltype?$CIauto?$CJ@ 00000001400b0628     libvcruntimed:undname.obj
 0002:00001638       ??_C@_05PCNBGHCF@this?5@   00000001400b0638     libvcruntimed:undname.obj
 0002:00001640       ??_C@_06GCICPBLB@__w64?5@  00000001400b0640     libvcruntimed:undname.obj
 0002:00001648       ??_C@_07NFANNNEC@UNKNOWN@  00000001400b0648     libvcruntimed:undname.obj
 0002:00001650       ??_C@_07EDHNAJHC@signed?5@ 00000001400b0650     libvcruntimed:undname.obj
 0002:00001658       ??_C@_05BNCCCJPP@const@    00000001400b0658     libvcruntimed:undname.obj
 0002:00001660       ??_C@_09EFNPDFFP@?5volatile@ 00000001400b0660     libvcruntimed:undname.obj
 0002:00001670       ??_C@_0P@GCIFDJCJ@?$GAunknown?5ecsu?8@ 00000001400b0670     libvcruntimed:undname.obj
 0002:00001680       ??_C@_06MOJHIBMG@union?5@  00000001400b0680     libvcruntimed:undname.obj
 0002:00001688       ??_C@_07DIBCDNGL@struct?5@ 00000001400b0688     libvcruntimed:undname.obj
 0002:00001690       ??_C@_06LJBABKPM@class?5@  00000001400b0690     libvcruntimed:undname.obj
 0002:00001698       ??_C@_08KOFANOFK@coclass?5@ 00000001400b0698     libvcruntimed:undname.obj
 0002:000016a8       ??_C@_0N@DLIEFKNA@cointerface?5@ 00000001400b06a8     libvcruntimed:undname.obj
 0002:000016b8       ??_C@_05LJGMCFOG@enum?5@   00000001400b06b8     libvcruntimed:undname.obj
 0002:000016c0       ??_C@_06LIJLOJAG@const?5@  00000001400b06c0     libvcruntimed:undname.obj
 0002:000016c8       ??_C@_02KJPKDIBN@?$CG?5@   00000001400b06c8     libvcruntimed:undname.obj
 0002:000016cc       ??_C@_03PCKGMOPB@?$CG?$CG?5@ 00000001400b06cc     libvcruntimed:undname.obj
 0002:000016d0       ??_C@_0M@EALIELKG@cli?3?3array?$DM@ 00000001400b06d0     libvcruntimed:undname.obj
 0002:000016e0       ??_C@_0O@GKABPPIF@cli?3?3pin_ptr?$DM@ 00000001400b06e0     libvcruntimed:undname.obj
 0002:000016f0       ??_C@_02GOGNNPBN@?$CJ?$FL@ 00000001400b06f0     libvcruntimed:undname.obj
 0002:000016f4       ??_C@_06EEGAIFAK@?$HLflat?$HN@ 00000001400b06f4     libvcruntimed:undname.obj
 0002:000016fc       ??_C@_05JIBOFOHK@?$HLfor?5@ 00000001400b06fc     libvcruntimed:undname.obj
 0002:00001704       ??_C@_02MDINNEEG@s?5@      00000001400b0704     libvcruntimed:undname.obj
 0002:00001710       ??_7DNameNode@@6B@         00000001400b0710     libvcruntimed:undname.obj
 0002:00001738       ??_7charNode@@6B@          00000001400b0738     libvcruntimed:undname.obj
 0002:00001760       ??_7pcharNode@@6B@         00000001400b0760     libvcruntimed:undname.obj
 0002:00001788       ??_7pDNameNode@@6B@        00000001400b0788     libvcruntimed:undname.obj
 0002:000017b0       ??_7DNameStatusNode@@6B@   00000001400b07b0     libvcruntimed:undname.obj
 0002:000017d8       ??_7pairNode@@6B@          00000001400b07d8     libvcruntimed:undname.obj
 0002:00001900       ??_C@_04OKOHEJBO@?5?$DP?$DP?5@ 00000001400b0900     libvcruntimed:undname.obj
 0002:00001910       ?nodes@?1??make@DNameStatusNode@@SAPEBV2@W4DNameStatus@@@Z@4QBV2@B 00000001400b0910     libvcruntimed:undname.obj
 0002:00001950       ??_C@_0CF@ONAOGJIP@operator?$CK?$CI?$CJ?5called?5on?5empty?5opt@ 00000001400b0950     libvcruntimed:undname.obj
 0002:00001978       ??_C@_02DKCKIIND@?$CFs@    00000001400b0978     libvcruntimed:undname.obj
 0002:00001980       ??_C@_0CO@DDKCBJPP@D?3?2a?2_work?21?2s?2binaries?2amd64re@ 00000001400b0980     libvcruntimed:undname.obj
 0002:000019c8       ??_C@_1DM@KHCHBNEB@?$AAa?$AAp?$AAi?$AA?9?$AAm?$AAs?$AA?9?$AAw?$AAi?$AAn?$AA?9?$AAc?$AAo?$AAr?$AAe@ 00000001400b09c8     libvcruntimed:winapi_downlevel.obj
 0002:00001a08       ??_C@_1DK@LPPGFMPP@?$AAa?$AAp?$AAi?$AA?9?$AAm?$AAs?$AA?9?$AAw?$AAi?$AAn?$AA?9?$AAc?$AAo?$AAr?$AAe@ 00000001400b0a08     libvcruntimed:winapi_downlevel.obj
 0002:00001a48       ??_C@_1BC@GDMECMAK@?$AAk?$AAe?$AAr?$AAn?$AAe?$AAl?$AA3?$AA2@ 00000001400b0a48     libvcruntimed:winapi_downlevel.obj
 0002:00001a60       ??_C@_17CNPHIMPH@?$AA?$CF?$AAl?$AAs@ 00000001400b0a60     libvcruntimed:winapi_downlevel.obj
 0002:00001a68       ??_C@_1BA@PFFKHIOG@?$AAa?$AAp?$AAi?$AA?9?$AAm?$AAs?$AA?9@ 00000001400b0a68     libvcruntimed:winapi_downlevel.obj
 0002:00001a80       ??_C@_1EM@LBIFGLGH@?$AAc?$AAa?$AAc?$AAh?$AAe?$AAd?$AA_?$AAh?$AAa?$AAn?$AAd?$AAl?$AAe?$AA?5?$AA?$DN@ 00000001400b0a80     libvcruntimed:winapi_downlevel.obj
 0002:00001ad0       ??_C@_1JG@EAIBPIGC@?$AAD?$AA?3?$AA?2?$AAa?$AA?2?$AA_?$AAw?$AAo?$AAr?$AAk?$AA?2?$AA1?$AA?2?$AAs?$AA?2@ 00000001400b0ad0     libvcruntimed:winapi_downlevel.obj
 0002:00001b68       ??_C@_1DI@MAHEDLDB@?$AAc?$AAa?$AAc?$AAh?$AAe?$AAd?$AA_?$AAh?$AAa?$AAn?$AAd?$AAl?$AAe?$AA?5?$AA?$DN@ 00000001400b0b68     libvcruntimed:winapi_downlevel.obj
 0002:00001ba0       ??_C@_1FC@IBNCGNKL@?$AAc?$AAa?$AAc?$AAh?$AAe?$AAd?$AA_?$AAf?$AAp?$AA?5?$AA?$DN?$AA?$DN?$AA?5?$AAi?$AAn@ 00000001400b0ba0     libvcruntimed:winapi_downlevel.obj
 0002:00001bf8       ??_C@_1CI@GDJBAGLP@?$AAc?$AAa?$AAc?$AAh?$AAe?$AAd?$AA_?$AAf?$AAp?$AA?5?$AA?$DN?$AA?$DN?$AA?5?$AAn?$AAe@ 00000001400b0bf8     libvcruntimed:winapi_downlevel.obj
 0002:00001c28       ??_C@_08KNHFBNJ@FlsAlloc@  00000001400b0c28     libvcruntimed:winapi_downlevel.obj
 0002:00001c40       ??_C@_07PEJMOBNF@FlsFree@  00000001400b0c40     libvcruntimed:winapi_downlevel.obj
 0002:00001c50       ??_C@_0M@GDNOONDI@FlsGetValue@ 00000001400b0c50     libvcruntimed:winapi_downlevel.obj
 0002:00001c68       ??_C@_0M@JCPCPOEF@FlsSetValue@ 00000001400b0c68     libvcruntimed:winapi_downlevel.obj
 0002:00001c80       ??_C@_0BM@HCFOFFN@InitializeCriticalSectionEx@ 00000001400b0c80     libvcruntimed:winapi_downlevel.obj
 0002:00001ca0       ?s_negLengthTab@FH4@@3QBCB 00000001400b0ca0     libvcruntimed:risctrnsctrl.obj
 0002:00001cb0       ?s_shiftTab@FH4@@3QBEB     00000001400b0cb0     libvcruntimed:risctrnsctrl.obj
 0002:00001e00       ??_7exception@std@@6B@     00000001400b0e00     libvcruntimed:frame.obj
 0002:00001e10       ??_C@_0BC@EOODALEL@Unknown?5exception@ 00000001400b0e10     libvcruntimed:frame.obj
 0002:00001e30       ??_7bad_exception@std@@6B@ 00000001400b0e30     libvcruntimed:frame.obj
 0002:00001e40       ??_C@_0O@DPKOEFFH@bad?5exception@ 00000001400b0e40     libvcruntimed:frame.obj
 0002:00001e50       ??_C@_1FK@OACNEHHA@?$AAt?$AAo?$AA?9?$AA?$DO?$AA_?$AAW?$AAh?$AAa?$AAt?$AA?5?$AA?$DN?$AA?$DN?$AA?5?$AAn?$AAu@ 00000001400b0e50     libvcruntimed:std_exception.obj
 0002:00001eb0       ??_C@_1IE@BLOAAGCK@?$AAD?$AA?3?$AA?2?$AAa?$AA?2?$AA_?$AAw?$AAo?$AAr?$AAk?$AA?2?$AA1?$AA?2?$AAs?$AA?2@ 00000001400b0eb0     libvcruntimed:std_exception.obj
 0002:00001f38       ??_C@_0CP@GDJHIDC@minkernel?2crts?2ucrt?2src?2appcrt?2@ 00000001400b0f38     libucrtd:_file.obj
 0002:00001f68       ??_C@_1DC@OGOLMDEL@?$AAp?$AAu?$AAb?$AAl?$AAi?$AAc?$AA_?$AAs?$AAt?$AAr?$AAe?$AAa?$AAm?$AA?5?$AA?$CB@ 00000001400b0f68     libucrtd:_file.obj
 0002:00001fa0       ??_C@_1FO@IEGKHABE@?$AAm?$AAi?$AAn?$AAk?$AAe?$AAr?$AAn?$AAe?$AAl?$AA?2?$AAc?$AAr?$AAt?$AAs?$AA?2@ 00000001400b0fa0     libucrtd:_file.obj
 0002:00002000       ??_C@_1DI@PJGMCDLC@?$AA_?$AAg?$AAe?$AAt?$AA_?$AAs?$AAt?$AAr?$AAe?$AAa?$AAm?$AA_?$AAb?$AAu?$AAf@ 00000001400b1000     libucrtd:_file.obj
 0002:00002038       _Fenv1                     00000001400b1038     libucrtd:output.obj
 0002:00002040       ?standard_lookup_table_spectre@__crt_stdio_output@@3V?$spectre_mitigated_lookup_table@Ustate_transition_pair@__crt_stdio_output@@$0IA@@1@B 00000001400b1040     libucrtd:output.obj
 0002:00002140       ?format_validation_lookup_table_spectre@__crt_stdio_output@@3V?$spectre_mitigated_lookup_table@Ustate_transition_pair@__crt_stdio_output@@$0IA@@1@B 00000001400b1140     libucrtd:output.obj
 0002:00002970       ??_C@_1BDG@MKBKGHOH@?$AA?$CI?$AA?5?$AA?$CI?$AA_?$AAS?$AAt?$AAr?$AAe?$AAa?$AAm?$AA?4?$AAi?$AAs?$AA_?$AAs@ 00000001400b1970     libucrtd:output.obj
 0002:00002ab0       ??_C@_1GC@LCDLABEA@?$AAm?$AAi?$AAn?$AAk?$AAe?$AAr?$AAn?$AAe?$AAl?$AA?2?$AAc?$AAr?$AAt?$AAs?$AA?2@ 00000001400b1ab0     libucrtd:output.obj
 0002:00002b20       ??_C@_1II@DIIMCJOK@?$AA_?$AA_?$AAa?$AAc?$AAr?$AAt?$AA_?$AAs?$AAt?$AAd?$AAi?$AAo?$AA_?$AAc?$AAh@ 00000001400b1b20     libucrtd:output.obj
 0002:00002bb0       ??_C@_1GE@DPGDJKLM@?$AAm?$AAi?$AAn?$AAk?$AAe?$AAr?$AAn?$AAe?$AAl?$AA?2?$AAc?$AAr?$AAt?$AAs?$AA?2@ 00000001400b1bb0     libucrtd:output.obj
 0002:00002c18       ??_C@_1CE@JLIJLEKO@?$AAs?$AAt?$AAr?$AAe?$AAa?$AAm?$AA?5?$AA?$CB?$AA?$DN?$AA?5?$AAn?$AAu?$AAl?$AAl?$AAp@ 00000001400b1c18     libucrtd:output.obj
 0002:00002c40       ??_C@_1GA@MOBAPGIO@?$AAm?$AAi?$AAn?$AAk?$AAe?$AAr?$AAn?$AAe?$AAl?$AA?2?$AAc?$AAr?$AAt?$AAs?$AA?2@ 00000001400b1c40     libucrtd:output.obj
 0002:00002ca0       ??_C@_1CA@GELIJBMC@?$AAc?$AAo?$AAm?$AAm?$AAo?$AAn?$AA_?$AAv?$AAf?$AAp?$AAr?$AAi?$AAn?$AAt?$AAf@ 00000001400b1ca0     libucrtd:output.obj
 0002:00002cc0       ??_C@_1CE@EAKLPBKK@?$AAf?$AAo?$AAr?$AAm?$AAa?$AAt?$AA?5?$AA?$CB?$AA?$DN?$AA?5?$AAn?$AAu?$AAl?$AAl?$AAp@ 00000001400b1cc0     libucrtd:output.obj
 0002:00002ce8       ??_C@_1CA@PIMGHCEK@?$AAc?$AAo?$AAm?$AAm?$AAo?$AAn?$AA_?$AAv?$AAs?$AAp?$AAr?$AAi?$AAn?$AAt?$AAf@ 00000001400b1ce8     libucrtd:output.obj
 0002:00002d10       ??_C@_1EO@EGEEFEFM@?$AAb?$AAu?$AAf?$AAf?$AAe?$AAr?$AA_?$AAc?$AAo?$AAu?$AAn?$AAt?$AA?5?$AA?$DN?$AA?$DN@ 00000001400b1d10     libucrtd:output.obj
 0002:00002d60       ??_C@_1CE@JEILLNB@?$AAc?$AAo?$AAm?$AAm?$AAo?$AAn?$AA_?$AAv?$AAs?$AAp?$AAr?$AAi?$AAn?$AAt?$AAf@ 00000001400b1d60     libucrtd:output.obj
 0002:00002d90       ??_C@_1EM@OAFHAOLH@?$AAb?$AAu?$AAf?$AAf?$AAe?$AAr?$AA?5?$AA?$CB?$AA?$DN?$AA?5?$AAn?$AAu?$AAl?$AAl?$AAp@ 00000001400b1d90     libucrtd:output.obj
 0002:00002de0       ??_C@_1DA@HPBFKMEB@?$AA?$CI?$AA?$CC?$AAB?$AAu?$AAf?$AAf?$AAe?$AAr?$AA?5?$AAt?$AAo?$AAo?$AA?5?$AAs?$AAm@ 00000001400b1de0     libucrtd:output.obj
 0002:00002e10       ??_C@_1CG@LHFJHFBB@?$AAc?$AAo?$AAm?$AAm?$AAo?$AAn?$AA_?$AAv?$AAs?$AAn?$AAp?$AAr?$AAi?$AAn?$AAt@ 00000001400b1e10     libucrtd:output.obj
 0002:00002e38       ??_C@_1CM@JOIJBMEM@?$AA_?$AAf?$AAo?$AAr?$AAm?$AAa?$AAt?$AA_?$AAi?$AAt?$AA?5?$AA?$CB?$AA?$DN?$AA?5?$AAn@ 00000001400b1e38     libucrtd:output.obj
 0002:00002e70       ??_C@_1HA@DMAAKIJP@?$AAm?$AAi?$AAn?$AAk?$AAe?$AAr?$AAn?$AAe?$AAl?$AA?2?$AAc?$AAr?$AAt?$AAs?$AA?2@ 00000001400b1e70     libucrtd:output.obj
 0002:00002ee0       ??_C@_1BNA@OIIAGHJI@?$AA_?$AA_?$AAc?$AAr?$AAt?$AA_?$AAs?$AAt?$AAd?$AAi?$AAo?$AA_?$AAo?$AAu?$AAt@ 00000001400b1ee0     libucrtd:output.obj
 0002:000030b0       ??_C@_1EE@DMAIGNBG@?$AA?$CI?$AA?$CC?$AAI?$AAn?$AAc?$AAo?$AAr?$AAr?$AAe?$AAc?$AAt?$AA?5?$AAf?$AAo?$AAr@ 00000001400b20b0     libucrtd:output.obj
 0002:00003100       ??_C@_1BLI@EGFICANE@?$AA_?$AA_?$AAc?$AAr?$AAt?$AA_?$AAs?$AAt?$AAd?$AAi?$AAo?$AA_?$AAo?$AAu?$AAt@ 00000001400b2100     libucrtd:output.obj
 0002:000032c0       ??_C@_1BLI@IKDKMDHI@?$AA_?$AA_?$AAc?$AAr?$AAt?$AA_?$AAs?$AAt?$AAd?$AAi?$AAo?$AA_?$AAo?$AAu?$AAt@ 00000001400b22c0     libucrtd:output.obj
 0002:00003480       ??_C@_1BKA@DNADAJMC@?$AA_?$AA_?$AAc?$AAr?$AAt?$AA_?$AAs?$AAt?$AAd?$AAi?$AAo?$AA_?$AAo?$AAu?$AAt@ 00000001400b2480     libucrtd:output.obj
 0002:00003620       ??_C@_1BNA@HGLCOOBP@?$AA_?$AA_?$AAc?$AAr?$AAt?$AA_?$AAs?$AAt?$AAd?$AAi?$AAo?$AA_?$AAo?$AAu?$AAt@ 00000001400b2620     libucrtd:output.obj
 0002:000037f0       ??_C@_1BLI@FOCNEPKJ@?$AA_?$AA_?$AAc?$AAr?$AAt?$AA_?$AAs?$AAt?$AAd?$AAi?$AAo?$AA_?$AAo?$AAu?$AAt@ 00000001400b27f0     libucrtd:output.obj
 0002:000039b0       ??_C@_1BMK@CPBKHDIH@?$AA_?$AA_?$AAc?$AAr?$AAt?$AA_?$AAs?$AAt?$AAd?$AAi?$AAo?$AA_?$AAo?$AAu?$AAt@ 00000001400b29b0     libucrtd:output.obj
 0002:00003b80       ??_C@_1BLC@PMCLHHAE@?$AA_?$AA_?$AAc?$AAr?$AAt?$AA_?$AAs?$AAt?$AAd?$AAi?$AAo?$AA_?$AAo?$AAu?$AAt@ 00000001400b2b80     libucrtd:output.obj
 0002:00003d40       ??_C@_1BLI@EEAAPJD@?$AA_?$AA_?$AAc?$AAr?$AAt?$AA_?$AAs?$AAt?$AAd?$AAi?$AAo?$AA_?$AAo?$AAu?$AAt@ 00000001400b2d40     libucrtd:output.obj
 0002:00003f00       ??_C@_1BKA@IIAAOGBO@?$AA_?$AA_?$AAc?$AAr?$AAt?$AA_?$AAs?$AAt?$AAd?$AAi?$AAo?$AA_?$AAo?$AAu?$AAt@ 00000001400b2f00     libucrtd:output.obj
 0002:000040a0       ??_C@_1FG@OBJBDPAC@?$AA?$CI?$AA?$CC?$AAN?$AA?5?$AAl?$AAe?$AAn?$AAg?$AAt?$AAh?$AA?5?$AAm?$AAo?$AAd?$AAi@ 00000001400b30a0     libucrtd:output.obj
 0002:00004100       ??_C@_1BOA@BMEGDMHF@?$AA_?$AA_?$AAc?$AAr?$AAt?$AA_?$AAs?$AAt?$AAd?$AAi?$AAo?$AA_?$AAo?$AAu?$AAt@ 00000001400b3100     libucrtd:output.obj
 0002:000042e0       ??_C@_1EC@GJPNJDCN@?$AA_?$AAl?$AAe?$AAn?$AAg?$AAt?$AAh?$AA?5?$AA?$DN?$AA?$DN?$AA?5?$AAl?$AAe?$AAn?$AAg@ 00000001400b32e0     libucrtd:output.obj
 0002:00004328       ??_C@_1DG@CEJKFDMO@?$AAs?$AAt?$AAa?$AAt?$AAe?$AA_?$AAc?$AAa?$AAs?$AAe?$AA_?$AAn?$AAo?$AAr?$AAm@ 00000001400b3328     libucrtd:output.obj
 0002:00004360       ??_C@_1BOE@IPKNNOEE@?$AA_?$AA_?$AAc?$AAr?$AAt?$AA_?$AAs?$AAt?$AAd?$AAi?$AAo?$AA_?$AAo?$AAu?$AAt@ 00000001400b3360     libucrtd:output.obj
 0002:00004550       ??_C@_1IC@NLEOMCDL@?$AA_?$AAt?$AAy?$AAp?$AAe?$AA_?$AAi?$AAn?$AAd?$AAe?$AAx?$AA?5?$AA?$DO?$AA?$DN?$AA?5@ 00000001400b3550     libucrtd:output.obj
 0002:000045e0       ??_C@_1BFK@KNCMELHH@?$AA_?$AA_?$AAc?$AAr?$AAt?$AA_?$AAs?$AAt?$AAd?$AAi?$AAo?$AA_?$AAo?$AAu?$AAt@ 00000001400b35e0     libucrtd:output.obj
 0002:00004740       ??_C@_1FK@BCPANIEK@?$AA?$CI?$AA?$CC?$AAM?$AAi?$AAs?$AAs?$AAi?$AAn?$AAg?$AA?5?$AAp?$AAo?$AAs?$AAi?$AAt@ 00000001400b3740     libucrtd:output.obj
 0002:000047a0       ??_C@_1BEI@IHLBHMLJ@?$AA_?$AA_?$AAc?$AAr?$AAt?$AA_?$AAs?$AAt?$AAd?$AAi?$AAo?$AA_?$AAo?$AAu?$AAt@ 00000001400b37a0     libucrtd:output.obj
 0002:000048f0       ??_C@_1BMI@LKDDDFDL@?$AA_?$AA_?$AAc?$AAr?$AAt?$AA_?$AAs?$AAt?$AAd?$AAi?$AAo?$AA_?$AAo?$AAu?$AAt@ 00000001400b38f0     libucrtd:output.obj
 0002:00004ac0       ??_C@_1BMM@JGEKEBKL@?$AA_?$AA_?$AAc?$AAr?$AAt?$AA_?$AAs?$AAt?$AAd?$AAi?$AAo?$AA_?$AAo?$AAu?$AAt@ 00000001400b3ac0     libucrtd:output.obj
 0002:00004c90       ??_C@_1BEO@ODGKIOAL@?$AA_?$AA_?$AAc?$AAr?$AAt?$AA_?$AAs?$AAt?$AAd?$AAi?$AAo?$AA_?$AAo?$AAu?$AAt@ 00000001400b3c90     libucrtd:output.obj
 0002:00004de0       ??_C@_1BDM@GFCGMNL@?$AA_?$AA_?$AAc?$AAr?$AAt?$AA_?$AAs?$AAt?$AAd?$AAi?$AAo?$AA_?$AAo?$AAu?$AAt@ 00000001400b3de0     libucrtd:output.obj
 0002:00004f20       ??_C@_1BMI@KBPJOJJI@?$AA_?$AA_?$AAc?$AAr?$AAt?$AA_?$AAs?$AAt?$AAd?$AAi?$AAo?$AA_?$AAo?$AAu?$AAt@ 00000001400b3f20     libucrtd:output.obj
 0002:000050f0       ??_C@_1BMM@PGHHMNDM@?$AA_?$AA_?$AAc?$AAr?$AAt?$AA_?$AAs?$AAt?$AAd?$AAi?$AAo?$AA_?$AAo?$AAu?$AAt@ 00000001400b40f0     libucrtd:output.obj
 0002:000052c0       ??_C@_1CI@DDKMNCPP@?$AA_?$AAc?$AAo?$AAn?$AAt?$AAe?$AAx?$AAt?$AA?5?$AA?$CB?$AA?$DN?$AA?5?$AAn?$AAu?$AAl@ 00000001400b42c0     libucrtd:output.obj
 0002:000052f0       ??_C@_1HK@IIPGOADH@?$AA_?$AA_?$AAc?$AAr?$AAt?$AA_?$AAs?$AAt?$AAd?$AAi?$AAo?$AA_?$AAo?$AAu?$AAt@ 00000001400b42f0     libucrtd:output.obj
 0002:00005370       ??_C@_1BLA@MEDMHIOH@?$AA_?$AA_?$AAc?$AAr?$AAt?$AA_?$AAs?$AAt?$AAd?$AAi?$AAo?$AA_?$AAo?$AAu?$AAt@ 00000001400b4370     libucrtd:output.obj
 0002:00005520       ??_C@_1BLE@LCKPBJON@?$AA_?$AA_?$AAc?$AAr?$AAt?$AA_?$AAs?$AAt?$AAd?$AAi?$AAo?$AA_?$AAo?$AAu?$AAt@ 00000001400b4520     libucrtd:output.obj
 0002:000056e0       ??_C@_1HE@IACOMEJF@?$AA_?$AA_?$AAc?$AAr?$AAt?$AA_?$AAs?$AAt?$AAd?$AAi?$AAo?$AA_?$AAo?$AAu?$AAt@ 00000001400b46e0     libucrtd:output.obj
 0002:00005760       ??_C@_1BOA@CBIEMBEE@?$AA_?$AA_?$AAc?$AAr?$AAt?$AA_?$AAs?$AAt?$AAd?$AAi?$AAo?$AA_?$AAo?$AAu?$AAt@ 00000001400b4760     libucrtd:output.obj
 0002:00005940       ??_C@_1BOE@NLICFINO@?$AA_?$AA_?$AAc?$AAr?$AAt?$AA_?$AAs?$AAt?$AAd?$AAi?$AAo?$AA_?$AAo?$AAu?$AAt@ 00000001400b4940     libucrtd:output.obj
 0002:00005b30       ??_C@_1BFK@IOIDDMPJ@?$AA_?$AA_?$AAc?$AAr?$AAt?$AA_?$AAs?$AAt?$AAd?$AAi?$AAo?$AA_?$AAo?$AAu?$AAt@ 00000001400b4b30     libucrtd:output.obj
 0002:00005c90       ??_C@_1BEI@JNJAFAD@?$AA_?$AA_?$AAc?$AAr?$AAt?$AA_?$AAs?$AAt?$AAd?$AAi?$AAo?$AA_?$AAo?$AAu?$AAt@ 00000001400b4c90     libucrtd:output.obj
 0002:00005de0       ??_C@_1BMI@PKGBOKJK@?$AA_?$AA_?$AAc?$AAr?$AAt?$AA_?$AAs?$AAt?$AAd?$AAi?$AAo?$AA_?$AAo?$AAu?$AAt@ 00000001400b4de0     libucrtd:output.obj
 0002:00005fb0       ??_C@_1BMM@BLBJDDIA@?$AA_?$AA_?$AAc?$AAr?$AAt?$AA_?$AAs?$AAt?$AAd?$AAi?$AAo?$AA_?$AAo?$AAu?$AAt@ 00000001400b4fb0     libucrtd:output.obj
 0002:00006180       ??_C@_1BEO@JEHLMMKB@?$AA_?$AA_?$AAc?$AAr?$AAt?$AA_?$AAs?$AAt?$AAd?$AAi?$AAo?$AA_?$AAo?$AAu?$AAt@ 00000001400b5180     libucrtd:output.obj
 0002:000062d0       ??_C@_1BDM@FDOLKCHK@?$AA_?$AA_?$AAc?$AAr?$AAt?$AA_?$AAs?$AAt?$AAd?$AAi?$AAo?$AA_?$AAo?$AAu?$AAt@ 00000001400b52d0     libucrtd:output.obj
 0002:00006410       ??_C@_1BNK@ONPHCEAM@?$AA_?$AA_?$AAc?$AAr?$AAt?$AA_?$AAs?$AAt?$AAd?$AAi?$AAo?$AA_?$AAo?$AAu?$AAt@ 00000001400b5410     libucrtd:output.obj
 0002:000065f0       ??_C@_1BNO@LMMLJOOJ@?$AA_?$AA_?$AAc?$AAr?$AAt?$AA_?$AAs?$AAt?$AAd?$AAi?$AAo?$AA_?$AAo?$AAu?$AAt@ 00000001400b55f0     libucrtd:output.obj
 0002:000067d0       ??_C@_1GC@BNMHNGKM@?$AA_?$AAs?$AAt?$AAa?$AAt?$AAe?$AA?5?$AA?$DN?$AA?$DN?$AA?5?$AAs?$AAt?$AAa?$AAt?$AAe@ 00000001400b57d0     libucrtd:output.obj
 0002:00006840       ??_C@_1BEC@FNIGNBHI@?$AA_?$AA_?$AAc?$AAr?$AAt?$AA_?$AAs?$AAt?$AAd?$AAi?$AAo?$AA_?$AAo?$AAu?$AAt@ 00000001400b5840     libucrtd:output.obj
 0002:00006990       ??_C@_1BMC@DAENMDAD@?$AA_?$AA_?$AAc?$AAr?$AAt?$AA_?$AAs?$AAt?$AAd?$AAi?$AAo?$AA_?$AAo?$AAu?$AAt@ 00000001400b5990     libucrtd:output.obj
 0002:00006b60       ??_C@_1BMG@KOENKAMB@?$AA_?$AA_?$AAc?$AAr?$AAt?$AA_?$AAs?$AAt?$AAd?$AAi?$AAo?$AA_?$AAo?$AAu?$AAt@ 00000001400b5b60     libucrtd:output.obj
 0002:00006d30       ??_C@_1BDG@PLANJEFE@?$AA_?$AA_?$AAc?$AAr?$AAt?$AA_?$AAs?$AAt?$AAd?$AAi?$AAo?$AA_?$AAo?$AAu?$AAt@ 00000001400b5d30     libucrtd:output.obj
 0002:00006e70       ??_C@_1BMI@DNMDMAAN@?$AA_?$AA_?$AAc?$AAr?$AAt?$AA_?$AAs?$AAt?$AAd?$AAi?$AAo?$AA_?$AAo?$AAu?$AAt@ 00000001400b5e70     libucrtd:output.obj
 0002:00007040       ??_C@_1BMM@JHGFKAND@?$AA_?$AA_?$AAc?$AAr?$AAt?$AA_?$AAs?$AAt?$AAd?$AAi?$AAo?$AA_?$AAo?$AAu?$AAt@ 00000001400b6040     libucrtd:output.obj
 0002:00007210       ??_C@_1CA@ONEGMNAN@?$AA_?$AAs?$AAt?$AAr?$AAe?$AAa?$AAm?$AA?4?$AAv?$AAa?$AAl?$AAi?$AAd?$AA?$CI?$AA?$CJ@ 00000001400b6210     libucrtd:output.obj
 0002:00007230       ??_C@_1HK@MPBCDOK@?$AA_?$AA_?$AAc?$AAr?$AAt?$AA_?$AAs?$AAt?$AAd?$AAi?$AAo?$AA_?$AAo?$AAu?$AAt@ 00000001400b6230     libucrtd:output.obj
 0002:000072b0       ??_C@_1BLA@GJNGKGIK@?$AA_?$AA_?$AAc?$AAr?$AAt?$AA_?$AAs?$AAt?$AAd?$AAi?$AAo?$AA_?$AAo?$AAu?$AAt@ 00000001400b62b0     libucrtd:output.obj
 0002:00007460       ??_C@_1BLE@PAACOKDK@?$AA_?$AA_?$AAc?$AAr?$AAt?$AA_?$AAs?$AAt?$AAd?$AAi?$AAo?$AA_?$AAo?$AAu?$AAt@ 00000001400b6460     libucrtd:output.obj
 0002:00007620       ??_C@_1HE@FGKHNBNL@?$AA_?$AA_?$AAc?$AAr?$AAt?$AA_?$AAs?$AAt?$AAd?$AAi?$AAo?$AA_?$AAo?$AAu?$AAt@ 00000001400b6620     libucrtd:output.obj
 0002:000076a0       ??_C@_1EK@PNGFDECN@?$AA?$CI?$AA?$CC?$AA?8?$AAn?$AA?8?$AA?5?$AAf?$AAo?$AAr?$AAm?$AAa?$AAt?$AA?5?$AAs?$AAp@ 00000001400b66a0     libucrtd:output.obj
 0002:000076f0       ??_C@_1BNI@OPBGCNOB@?$AA_?$AA_?$AAc?$AAr?$AAt?$AA_?$AAs?$AAt?$AAd?$AAi?$AAo?$AA_?$AAo?$AAu?$AAt@ 00000001400b66f0     libucrtd:output.obj
 0002:000078d0       ??_C@_1EO@GHKFGFKL@?$AA?$CI?$AA?$CC?$AAI?$AAn?$AAv?$AAa?$AAl?$AAi?$AAd?$AA?5?$AAi?$AAn?$AAt?$AAe?$AAg@ 00000001400b68d0     libucrtd:output.obj
 0002:00007920       ??_C@_1JC@PMCLKCOC@?$AAp?$AAr?$AAe?$AAc?$AAi?$AAs?$AAi?$AAo?$AAn?$AA_?$AAi?$AAn?$AAd?$AAe?$AAx@ 00000001400b6920     libucrtd:output.obj
 0002:000079c0       ??_C@_1BAG@GKCGGKOF@?$AA_?$AA_?$AAc?$AAr?$AAt?$AA_?$AAs?$AAt?$AAd?$AAi?$AAo?$AA_?$AAo?$AAu?$AAt@ 00000001400b69c0     libucrtd:output.obj
 0002:00007ad0       ??_C@_1IC@KGDNLBNC@?$AAw?$AAi?$AAd?$AAt?$AAh?$AA_?$AAi?$AAn?$AAd?$AAe?$AAx?$AA?5?$AA?$DO?$AA?$DN?$AA?5@ 00000001400b6ad0     libucrtd:output.obj
 0002:00007b60       ??_C@_1BAK@CDLANFGA@?$AA_?$AA_?$AAc?$AAr?$AAt?$AA_?$AAs?$AAt?$AAd?$AAi?$AAo?$AA_?$AAo?$AAu?$AAt@ 00000001400b6b60     libucrtd:output.obj
 0002:00007c70       ??_C@_1BEC@NDOOKIMC@?$AA_?$AA_?$AAc?$AAr?$AAt?$AA_?$AAs?$AAt?$AAd?$AAi?$AAo?$AA_?$AAo?$AAu?$AAt@ 00000001400b6c70     libucrtd:output.obj
 0002:00007dc0       ??_C@_1BMA@CBPCAOAB@?$AA_?$AA_?$AAc?$AAr?$AAt?$AA_?$AAs?$AAt?$AAd?$AAi?$AAo?$AA_?$AAo?$AAu?$AAt@ 00000001400b6dc0     libucrtd:output.obj
 0002:00007f80       ??_C@_1PK@KBJLALII@?$AA_?$AA_?$AAc?$AAr?$AAt?$AA_?$AAs?$AAt?$AAd?$AAi?$AAo?$AA_?$AAo?$AAu?$AAt@ 00000001400b6f80     libucrtd:output.obj
 0002:00008080       ??_C@_1PO@PODEJAGE@?$AA_?$AA_?$AAc?$AAr?$AAt?$AA_?$AAs?$AAt?$AAd?$AAi?$AAo?$AA_?$AAo?$AAu?$AAt@ 00000001400b7080     libucrtd:output.obj
 0002:00008180       ??_C@_1BDG@KOLEFKPF@?$AA_?$AA_?$AAc?$AAr?$AAt?$AA_?$AAs?$AAt?$AAd?$AAi?$AAo?$AA_?$AAo?$AAu?$AAt@ 00000001400b7180     libucrtd:output.obj
 0002:000082c0       ??_C@_1BMA@IHIBOLMD@?$AA_?$AA_?$AAc?$AAr?$AAt?$AA_?$AAs?$AAt?$AAd?$AAi?$AAo?$AA_?$AAo?$AAu?$AAt@ 00000001400b72c0     libucrtd:output.obj
 0002:00008480       ??_C@_1BKI@CJEIGDAI@?$AA_?$AA_?$AAc?$AAr?$AAt?$AA_?$AAs?$AAt?$AAd?$AAi?$AAo?$AA_?$AAo?$AAu?$AAt@ 00000001400b7480     libucrtd:output.obj
 0002:00008630       ??_C@_1BNI@IMOCDBNE@?$AA_?$AA_?$AAc?$AAr?$AAt?$AA_?$AAs?$AAt?$AAd?$AAi?$AAo?$AA_?$AAo?$AAu?$AAt@ 00000001400b7630     libucrtd:output.obj
 0002:00008810       ??_C@_1BAG@DOFNHDMF@?$AA_?$AA_?$AAc?$AAr?$AAt?$AA_?$AAs?$AAt?$AAd?$AAi?$AAo?$AA_?$AAo?$AAu?$AAt@ 00000001400b7810     libucrtd:output.obj
 0002:00008920       ??_C@_1BAK@DALINHHB@?$AA_?$AA_?$AAc?$AAr?$AAt?$AA_?$AAs?$AAt?$AAd?$AAi?$AAo?$AA_?$AAo?$AAu?$AAt@ 00000001400b7920     libucrtd:output.obj
 0002:00008a30       ??_C@_1BMA@GACGPGHN@?$AA_?$AA_?$AAc?$AAr?$AAt?$AA_?$AAs?$AAt?$AAd?$AAi?$AAo?$AA_?$AAo?$AAu?$AAt@ 00000001400b7a30     libucrtd:output.obj
 0002:00008bf0       ??_C@_1PK@KBJECIEM@?$AA_?$AA_?$AAc?$AAr?$AAt?$AA_?$AAs?$AAt?$AAd?$AAi?$AAo?$AA_?$AAo?$AAu?$AAt@ 00000001400b7bf0     libucrtd:output.obj
 0002:00008cf0       ??_C@_1PO@LKIIANED@?$AA_?$AA_?$AAc?$AAr?$AAt?$AA_?$AAs?$AAt?$AAd?$AAi?$AAo?$AA_?$AAo?$AAu?$AAt@ 00000001400b7cf0     libucrtd:output.obj
 0002:00008df0       ??_C@_1BNC@DONELHFF@?$AA_?$AA_?$AAc?$AAr?$AAt?$AA_?$AAs?$AAt?$AAd?$AAi?$AAo?$AA_?$AAo?$AAu?$AAt@ 00000001400b7df0     libucrtd:output.obj
 0002:00008fd0       ??_C@_1BLK@BGFMMAPO@?$AA_?$AA_?$AAc?$AAr?$AAt?$AA_?$AAs?$AAt?$AAd?$AAi?$AAo?$AA_?$AAo?$AAu?$AAt@ 00000001400b7fd0     libucrtd:output.obj
 0002:00009190       ??_C@_1BMA@PGOJAHFP@?$AA_?$AA_?$AAc?$AAr?$AAt?$AA_?$AAs?$AAt?$AAd?$AAi?$AAo?$AA_?$AAo?$AAu?$AAt@ 00000001400b8190     libucrtd:output.obj
 0002:00009350       ??_C@_1BKI@NDKBCDGP@?$AA_?$AA_?$AAc?$AAr?$AAt?$AA_?$AAs?$AAt?$AAd?$AAi?$AAo?$AA_?$AAo?$AAu?$AAt@ 00000001400b8350     libucrtd:output.obj
 0002:000094f8       ??_C@_1O@CEDCILHN@?$AA?$CI?$AAn?$AAu?$AAl?$AAl?$AA?$CJ@ 00000001400b84f8     libucrtd:output.obj
 0002:00009508       ??_C@_06OJHGLDPL@?$CInull?$CJ@ 00000001400b8508     libucrtd:output.obj
 0002:00009510       ??_C@_1LO@HECDHMMI@?$AAi?$AAs?$AA_?$AAp?$AAo?$AAs?$AAi?$AAt?$AAi?$AAo?$AAn?$AAa?$AAl?$AA_?$AAp@ 00000001400b8510     libucrtd:output.obj
 0002:000095d0       ??_C@_1BCI@OBMMNJKK@?$AA_?$AA_?$AAc?$AAr?$AAt?$AA_?$AAs?$AAt?$AAd?$AAi?$AAo?$AA_?$AAo?$AAu?$AAt@ 00000001400b85d0     libucrtd:output.obj
 0002:00009700       ??_C@_1FE@IAFJEKN@?$AA_?$AAt?$AAy?$AAp?$AAe?$AA_?$AAi?$AAn?$AAd?$AAe?$AAx?$AA?5?$AA?$DO?$AA?$DN?$AA?5@ 00000001400b8700     libucrtd:output.obj
 0002:00009760       ??_C@_1BCC@GJLKCHIG@?$AA_?$AA_?$AAc?$AAr?$AAt?$AA_?$AAs?$AAt?$AAd?$AAi?$AAo?$AA_?$AAo?$AAu?$AAt@ 00000001400b8760     libucrtd:output.obj
 0002:00009888       ??_C@_1CK@LGDCECDH@?$AA_?$AAf?$AAo?$AAr?$AAm?$AAa?$AAt?$AA_?$AAc?$AAh?$AAa?$AAr?$AA?5?$AA?$CB?$AA?$DN@ 00000001400b8888     libucrtd:output.obj
 0002:000098c0       ??_C@_1BNI@EDCGAPJB@?$AA_?$AA_?$AAc?$AAr?$AAt?$AA_?$AAs?$AAt?$AAd?$AAi?$AAo?$AA_?$AAo?$AAu?$AAt@ 00000001400b88c0     libucrtd:output.obj
 0002:00009aa0       ??_C@_1BBM@CBBAFMPJ@?$AA_?$AA_?$AAc?$AAr?$AAt?$AA_?$AAs?$AAt?$AAd?$AAi?$AAo?$AA_?$AAo?$AAu?$AAt@ 00000001400b8aa0     libucrtd:output.obj
 0002:00009bc0       ??_C@_1BBG@KIHCHFIM@?$AA_?$AA_?$AAc?$AAr?$AAt?$AA_?$AAs?$AAt?$AAd?$AAi?$AAo?$AA_?$AAo?$AAu?$AAt@ 00000001400b8bc0     libucrtd:output.obj
 0002:00009ce0       ??_C@_1BMA@FANDDEHK@?$AA_?$AA_?$AAc?$AAr?$AAt?$AA_?$AAs?$AAt?$AAd?$AAi?$AAo?$AA_?$AAo?$AAu?$AAt@ 00000001400b8ce0     libucrtd:output.obj
 0002:00009ea0       ??_C@_1BCI@ILAANKJG@?$AA_?$AA_?$AAc?$AAr?$AAt?$AA_?$AAs?$AAt?$AAd?$AAi?$AAo?$AA_?$AAo?$AAu?$AAt@ 00000001400b8ea0     libucrtd:output.obj
 0002:00009fd0       ??_C@_1BCC@PDNLFIHK@?$AA_?$AA_?$AAc?$AAr?$AAt?$AA_?$AAs?$AAt?$AAd?$AAi?$AAo?$AA_?$AAo?$AAu?$AAt@ 00000001400b8fd0     libucrtd:output.obj
 0002:0000a100       ??_C@_1BNI@EJPCEBAG@?$AA_?$AA_?$AAc?$AAr?$AAt?$AA_?$AAs?$AAt?$AAd?$AAi?$AAo?$AA_?$AAo?$AAu?$AAt@ 00000001400b9100     libucrtd:output.obj
 0002:0000a2e0       ??_C@_1BBM@LLHBCDAF@?$AA_?$AA_?$AAc?$AAr?$AAt?$AA_?$AAs?$AAt?$AAd?$AAi?$AAo?$AA_?$AAo?$AAu?$AAt@ 00000001400b92e0     libucrtd:output.obj
 0002:0000a400       ??_C@_1BBG@JLLDGFML@?$AA_?$AA_?$AAc?$AAr?$AAt?$AA_?$AAs?$AAt?$AAd?$AAi?$AAo?$AA_?$AAo?$AAu?$AAt@ 00000001400b9400     libucrtd:output.obj
 0002:0000a520       ??_C@_1BNC@BAMNIOCM@?$AA_?$AA_?$AAc?$AAr?$AAt?$AA_?$AAs?$AAt?$AAd?$AAi?$AAo?$AA_?$AAo?$AAu?$AAt@ 00000001400b9520     libucrtd:output.obj
 0002:0000a700       ??_C@_1BMA@MEBEEDJE@?$AA_?$AA_?$AAc?$AAr?$AAt?$AA_?$AAs?$AAt?$AAd?$AAi?$AAo?$AA_?$AAo?$AAu?$AAt@ 00000001400b9700     libucrtd:output.obj
 0002:0000a8c0       ??_C@_1BCA@HCPCJFGA@?$AA_?$AA_?$AAc?$AAr?$AAt?$AA_?$AAs?$AAt?$AAd?$AAi?$AAo?$AA_?$AAo?$AAu?$AAt@ 00000001400b98c0     libucrtd:output.obj
 0002:0000a9e0       ??_C@_1BOE@LIBLDKPN@?$AA_?$AA_?$AAc?$AAr?$AAt?$AA_?$AAs?$AAt?$AAd?$AAi?$AAo?$AA_?$AAo?$AAu?$AAt@ 00000001400b99e0     libucrtd:output.obj
 0002:0000abc8       ??_C@_0DI@KIFBHMNO@minkernel?2crts?2ucrt?2inc?2corecrt@ 00000001400b9bc8     libucrtd:output.obj
 0002:0000ac00       ??_C@_1BBE@IBPNPIIM@?$AA_?$AA_?$AAc?$AAr?$AAt?$AA_?$AAs?$AAt?$AAd?$AAi?$AAo?$AA_?$AAo?$AAu?$AAt@ 00000001400b9c00     libucrtd:output.obj
 0002:0000ad20       ??_C@_1BMM@KBPMKFBC@?$AA_?$AA_?$AAc?$AAr?$AAt?$AA_?$AAs?$AAt?$AAd?$AAi?$AAo?$AA_?$AAo?$AAu?$AAt@ 00000001400b9d20     libucrtd:output.obj
 0002:0000aef0       ??_C@_1BMM@MBMBCJIF@?$AA_?$AA_?$AAc?$AAr?$AAt?$AA_?$AAs?$AAt?$AAd?$AAi?$AAo?$AA_?$AAo?$AAu?$AAt@ 00000001400b9ef0     libucrtd:output.obj
 0002:0000b0c0       ??_C@_1BLE@IFBJPNFE@?$AA_?$AA_?$AAc?$AAr?$AAt?$AA_?$AAs?$AAt?$AAd?$AAi?$AAo?$AA_?$AAo?$AAu?$AAt@ 00000001400ba0c0     libucrtd:output.obj
 0002:0000b280       ??_C@_1BCA@FCGNBIN@?$AA_?$AA_?$AAc?$AAr?$AAt?$AA_?$AAs?$AAt?$AAd?$AAi?$AAo?$AA_?$AAo?$AAu?$AAt@ 00000001400ba280     libucrtd:output.obj
 0002:0000b3a0       ??_C@_1BOE@OMDELMGH@?$AA_?$AA_?$AAc?$AAr?$AAt?$AA_?$AAs?$AAt?$AAd?$AAi?$AAo?$AA_?$AAo?$AAu?$AAt@ 00000001400ba3a0     libucrtd:output.obj
 0002:0000b590       ??_C@_1BBE@FLKADCDA@?$AA_?$AA_?$AAc?$AAr?$AAt?$AA_?$AAs?$AAt?$AAd?$AAi?$AAo?$AA_?$AAo?$AAu?$AAt@ 00000001400ba590     libucrtd:output.obj
 0002:0000b6b0       ??_C@_1BMM@CMKPNHDJ@?$AA_?$AA_?$AAc?$AAr?$AAt?$AA_?$AAs?$AAt?$AAd?$AAi?$AAo?$AA_?$AAo?$AAu?$AAt@ 00000001400ba6b0     libucrtd:output.obj
 0002:0000b880       ??_C@_1BNO@ILHNHKFA@?$AA_?$AA_?$AAc?$AAr?$AAt?$AA_?$AAs?$AAt?$AAd?$AAi?$AAo?$AA_?$AAo?$AAu?$AAt@ 00000001400ba880     libucrtd:output.obj
 0002:0000ba60       ??_C@_1BMG@JJPLEEHI@?$AA_?$AA_?$AAc?$AAr?$AAt?$AA_?$AAs?$AAt?$AAd?$AAi?$AAo?$AA_?$AAo?$AAu?$AAt@ 00000001400baa60     libucrtd:output.obj
 0002:0000bc30       ??_C@_1BMM@KANDEEGK@?$AA_?$AA_?$AAc?$AAr?$AAt?$AA_?$AAs?$AAt?$AAd?$AAi?$AAo?$AA_?$AAo?$AAu?$AAt@ 00000001400bac30     libucrtd:output.obj
 0002:0000be00       ??_C@_1BLE@MHLEAOID@?$AA_?$AA_?$AAc?$AAr?$AAt?$AA_?$AAs?$AAt?$AAd?$AAi?$AAo?$AA_?$AAo?$AAu?$AAt@ 00000001400bae00     libucrtd:output.obj
 0002:0000bfc0       ??_C@_1BMK@JGIBNIA@?$AA_?$AA_?$AAc?$AAr?$AAt?$AA_?$AAs?$AAt?$AAd?$AAi?$AAo?$AA_?$AAo?$AAu?$AAt@ 00000001400bafc0     libucrtd:output.obj
 0002:0000c190       ??_C@_1BLC@INKIGOCN@?$AA_?$AA_?$AAc?$AAr?$AAt?$AA_?$AAs?$AAt?$AAd?$AAi?$AAo?$AA_?$AAo?$AAu?$AAt@ 00000001400bb190     libucrtd:output.obj
 0002:0000c350       ??_C@_1BNK@KHNJGCCP@?$AA_?$AA_?$AAc?$AAr?$AAt?$AA_?$AAs?$AAt?$AAd?$AAi?$AAo?$AA_?$AAo?$AAu?$AAt@ 00000001400bb350     libucrtd:output.obj
 0002:0000c530       ??_C@_1BNO@OHFFMOOJ@?$AA_?$AA_?$AAc?$AAr?$AAt?$AA_?$AAs?$AAt?$AAd?$AAi?$AAo?$AA_?$AAo?$AAu?$AAt@ 00000001400bb530     libucrtd:output.obj
 0002:0000c710       ??_C@_1BMC@FAGJFBLI@?$AA_?$AA_?$AAc?$AAr?$AAt?$AA_?$AAs?$AAt?$AAd?$AAi?$AAo?$AA_?$AAo?$AAu?$AAt@ 00000001400bb710     libucrtd:output.obj
 0002:0000c8e0       ??_C@_1BMG@CGPDIFDK@?$AA_?$AA_?$AAc?$AAr?$AAt?$AA_?$AAs?$AAt?$AAd?$AAi?$AAo?$AA_?$AAo?$AAu?$AAt@ 00000001400bb8e0     libucrtd:output.obj
 0002:0000cab0       ??_C@_1BNC@OHPDPPJK@?$AA_?$AA_?$AAc?$AAr?$AAt?$AA_?$AAs?$AAt?$AAd?$AAi?$AAo?$AA_?$AAo?$AAu?$AAt@ 00000001400bbab0     libucrtd:output.obj
 0002:0000cc90       ??_C@_1BLK@FOLFMPJH@?$AA_?$AA_?$AAc?$AAr?$AAt?$AA_?$AAs?$AAt?$AAd?$AAi?$AAo?$AA_?$AAo?$AAu?$AAt@ 00000001400bbc90     libucrtd:output.obj
 0002:0000ce50       ??_C@_1BNC@JPKLPOHO@?$AA_?$AA_?$AAc?$AAr?$AAt?$AA_?$AAs?$AAt?$AAd?$AAi?$AAo?$AA_?$AAo?$AAu?$AAt@ 00000001400bbe50     libucrtd:output.obj
 0002:0000d030       ??_C@_1EO@MLJCKPIB@?$AAb?$AAa?$AAs?$AAe?$AA?5?$AA?$DN?$AA?$DN?$AA?5?$AA0?$AA?5?$AA?$HM?$AA?$HM?$AA?5?$AA?$CI?$AA2@ 00000001400bc030     libucrtd:output.obj
 0002:0000d080       ??_C@_1DI@BANODKFL@?$AA_?$AA_?$AAc?$AAr?$AAt?$AA_?$AAs?$AAt?$AAr?$AAt?$AAo?$AAx?$AA?3?$AA?3?$AAp@ 00000001400bc080     libucrtd:output.obj
 0002:0000d0c0       ??_C@_1BNO@NAODCKFA@?$AA_?$AA_?$AAc?$AAr?$AAt?$AA_?$AAs?$AAt?$AAd?$AAi?$AAo?$AA_?$AAo?$AAu?$AAt@ 00000001400bc0c0     libucrtd:output.obj
 0002:0000d2a0       ??_C@_1BMG@BBEFGBID@?$AA_?$AA_?$AAc?$AAr?$AAt?$AA_?$AAs?$AAt?$AAd?$AAi?$AAo?$AA_?$AAo?$AAu?$AAt@ 00000001400bc2a0     libucrtd:output.obj
 0002:0000d468       ??_C@_1CM@GJENOOEJ@?$AAc?$AA?5?$AA?$DN?$AA?$DN?$AA?5?$AA?8?$AA?2?$AA0?$AA?8?$AA?5?$AA?$HM?$AA?$HM?$AA?5?$AA?$CK?$AA_@ 00000001400bc468     libucrtd:output.obj
 0002:0000d4a0       ??_C@_1GK@MNHIDABG@?$AA_?$AA_?$AAc?$AAr?$AAt?$AA_?$AAs?$AAt?$AAr?$AAt?$AAo?$AAx?$AA?3?$AA?3?$AAc@ 00000001400bc4a0     libucrtd:output.obj
 0002:0000d510       ??_C@_1BM@PNEBBBDO@?$AA_?$AAp?$AA?5?$AA?$CB?$AA?$DN?$AA?5?$AAn?$AAu?$AAl?$AAl?$AAp?$AAt?$AAr@ 00000001400bc510     libucrtd:output.obj
 0002:0000d530       ??_C@_1HA@MKKIHBHP@?$AA_?$AA_?$AAc?$AAr?$AAt?$AA_?$AAs?$AAt?$AAr?$AAt?$AAo?$AAx?$AA?3?$AA?3?$AAc@ 00000001400bc530     libucrtd:output.obj
 0002:0000d5a0       ??_C@_1HA@CONLANFI@?$AA_?$AA_?$AAc?$AAr?$AAt?$AA_?$AAs?$AAt?$AAr?$AAt?$AAo?$AAx?$AA?3?$AA?3?$AAc@ 00000001400bc5a0     libucrtd:output.obj
 0002:0000d610       ??_C@_1HG@FCDBLOEG@?$AA_?$AA_?$AAc?$AAr?$AAt?$AA_?$AAs?$AAt?$AAr?$AAt?$AAo?$AAx?$AA?3?$AA?3?$AAc@ 00000001400bc610     libucrtd:output.obj
 0002:0000d690       __acrt_exception_action_table 00000001400bc690     libucrtd:exception_filter.obj
 0002:0000d750       __acrt_signal_action_table_count 00000001400bc750     libucrtd:exception_filter.obj
 0002:0000d758       __acrt_signal_action_table_size 00000001400bc758     libucrtd:exception_filter.obj
 0002:0000d760       __acrt_signal_action_first_fpe_index 00000001400bc760     libucrtd:exception_filter.obj
 0002:0000d768       __acrt_signal_action_fpe_count 00000001400bc768     libucrtd:exception_filter.obj
 0002:0000d770       ??_C@_1IC@DCNEKBE@?$AAm?$AAi?$AAn?$AAk?$AAe?$AAr?$AAn?$AAe?$AAl?$AA?2?$AAc?$AAr?$AAt?$AAs?$AA?2@ 00000001400bc770     libucrtd:report_runtime_error.obj
 0002:0000d7f8       ??_C@_1DI@BLFJHKKP@?$AA_?$AA_?$AAa?$AAc?$AAr?$AAt?$AA_?$AAr?$AAe?$AAp?$AAo?$AAr?$AAt?$AA_?$AAr@ 00000001400bc7f8     libucrtd:report_runtime_error.obj
 0002:0000d830       ??_C@_1LE@MHPGJGKE@?$AAw?$AAc?$AAs?$AAc?$AAp?$AAy?$AA_?$AAs?$AA?$CI?$AAo?$AAu?$AAt?$AAm?$AAs?$AAg@ 00000001400bc830     libucrtd:report_runtime_error.obj
 0002:0000d8e8       ??_C@_1DE@JNGNBFGO@?$AAR?$AAu?$AAn?$AAt?$AAi?$AAm?$AAe?$AA?5?$AAE?$AAr?$AAr?$AAo?$AAr?$AA?$CB?$AA?6@ 00000001400bc8e8     libucrtd:report_runtime_error.obj
 0002:0000d920       ??_C@_1HK@FJJNAABO@?$AAw?$AAc?$AAs?$AAc?$AAp?$AAy?$AA_?$AAs?$AA?$CI?$AAp?$AAr?$AAo?$AAg?$AAn?$AAa@ 00000001400bc920     libucrtd:report_runtime_error.obj
 0002:0000d9a0       ??_C@_1CO@EAEJAADC@?$AA?$DM?$AAp?$AAr?$AAo?$AAg?$AAr?$AAa?$AAm?$AA?5?$AAn?$AAa?$AAm?$AAe?$AA?5?$AAu@ 00000001400bc9a0     libucrtd:report_runtime_error.obj
 0002:0000d9d0       ??_C@_1HI@FLHKGEBE@?$AAw?$AAc?$AAs?$AAn?$AAc?$AAp?$AAy?$AA_?$AAs?$AA?$CI?$AAp?$AAc?$AAh?$AA?0?$AA?5@ 00000001400bc9d0     libucrtd:report_runtime_error.obj
 0002:0000da48       ??_C@_17LGKOMLJ@?$AA?4?$AA?4?$AA?4@ 00000001400bca48     libucrtd:report_runtime_error.obj
 0002:0000da50       ??_C@_1IG@MNNKBLBI@?$AAw?$AAc?$AAs?$AAc?$AAa?$AAt?$AA_?$AAs?$AA?$CI?$AAo?$AAu?$AAt?$AAm?$AAs?$AAg@ 00000001400bca50     libucrtd:report_runtime_error.obj
 0002:0000dad8       ??_C@_15IABLJNFO@?$AA?6?$AA?6@ 00000001400bcad8     libucrtd:report_runtime_error.obj
 0002:0000dae0       ??_C@_1IG@DFBBBDAN@?$AAw?$AAc?$AAs?$AAc?$AAa?$AAt?$AA_?$AAs?$AA?$CI?$AAo?$AAu?$AAt?$AAm?$AAs?$AAg@ 00000001400bcae0     libucrtd:report_runtime_error.obj
 0002:0000db70       ??_C@_1EK@MBDPDCGA@?$AAM?$AAi?$AAc?$AAr?$AAo?$AAs?$AAo?$AAf?$AAt?$AA?5?$AAV?$AAi?$AAs?$AAu?$AAa@ 00000001400bcb70     libucrtd:report_runtime_error.obj
 0002:0000dc10       ??_C@_0DI@KNDIGDEP@minkernel?2crts?2ucrt?2src?2appcrt?2@ 00000001400bcc10     libucrtd:argv_parsing.obj
 0002:0000dc50       ??_C@_1JO@PGBIJBAM@?$AAm?$AAo?$AAd?$AAe?$AA?5?$AA?$DN?$AA?$DN?$AA?5?$AA_?$AAc?$AAr?$AAt?$AA_?$AAa?$AAr@ 00000001400bcc50     libucrtd:argv_parsing.obj
